 nodejavabridge_bindings

 Timestamp is 5d76002b (Mon Sep  9 15:32:59 2019)

 Preferred load address is 0000000180000000

 Start         Length     Name                   Class
 0001:00000000 00000350H .text$di                CODE
 0001:00000350 0003fdc0H .text$mn                CODE
 0001:00040110 00000020H .text$mn$00             CODE
 0001:00040130 000003f0H .text$x                 CODE
 0001:00040520 000004d0H .text$yd                CODE
 0002:00000000 000002a8H .idata$5                DATA
 0002:000002a8 00000010H .00cfg                  DATA
 0002:000002b8 00000008H .CRT$XCA                DATA
 0002:000002c0 00000018H .CRT$XCC                DATA
 0002:000002d8 00000010H .CRT$XCL                DATA
 0002:000002e8 00000060H .CRT$XCU                DATA
 0002:00000348 00000008H .CRT$XCZ                DATA
 0002:00000350 00000008H .CRT$XIA                DATA
 0002:00000358 00000028H .CRT$XIC                DATA
 0002:00000380 00000008H .CRT$XIZ                DATA
 0002:00000388 00000008H .CRT$XPA                DATA
 0002:00000390 00000010H .CRT$XPX                DATA
 0002:000003a0 00000008H .CRT$XPXA               DATA
 0002:000003a8 00000008H .CRT$XPZ                DATA
 0002:000003b0 00000008H .CRT$XTA                DATA
 0002:000003b8 00000008H .CRT$XTZ                DATA
 0002:000003c0 00000000H .gfids$y                DATA
 0002:000003c0 00013568H .rdata                  DATA
 0002:00013928 0000090cH .rdata$r                DATA
 0002:00014234 0000042cH .rdata$zzzdbg           DATA
 0002:00014660 00000008H .rtc$IAA                DATA
 0002:00014668 00000008H .rtc$IZZ                DATA
 0002:00014670 00000008H .rtc$TAA                DATA
 0002:00014678 00000008H .rtc$TZZ                DATA
 0002:00014680 00002e40H .xdata                  DATA
 0002:000174c0 000002a4H .xdata$x                DATA
 0002:00017764 00000020H .didat$2                DATA
 0002:00017784 00000024H .didat$3                DATA
 0002:000177a8 00000310H .didat$4                DATA
 0002:00017ab8 00001a80H .didat$6                DATA
 0002:00019538 00000318H .didat$7                DATA
 0002:00019850 000000d4H .edata                  DATA
 0002:00019924 00000028H .idata$2                DATA
 0002:0001994c 00000014H .idata$3                DATA
 0002:00019960 000002a8H .idata$4                DATA
 0002:00019c08 00000618H .idata$6                DATA
 0003:00000000 00000ba0H .data                   DATA
 0003:00000ba0 00000320H .data$r                 DATA
 0003:00000ec0 00000310H .didat$5                DATA
 0003:000011d0 000019a4H .bss                    DATA
 0004:00000000 00002fd0H .pdata                  DATA
 0005:00000000 00000094H _RDATA                  DATA
 0006:00000000 00000060H .rsrc$01                DATA
 0006:00000060 00000180H .rsrc$02                DATA

  Address         Publics by Value              Rva+Base               Lib:Object

 0000:00000000       __guard_fids_count         0000000000000000     <absolute>
 0000:00000000       __hybrid_code_map          0000000000000000     <absolute>
 0000:00000000       __guard_longjmp_count      0000000000000000     <absolute>
 0000:00000000       __guard_iat_count          0000000000000000     <absolute>
 0000:00000000       __guard_longjmp_table      0000000000000000     <absolute>
 0000:00000000       __volatile_metadata        0000000000000000     <absolute>
 0000:00000000       __guard_iat_table          0000000000000000     <absolute>
 0000:00000000       __hybrid_code_map_count    0000000000000000     <absolute>
 0000:00000000       __enclave_config           0000000000000000     <absolute>
 0000:00000000       ___safe_se_handler_count   0000000000000000     <absolute>
 0000:00000000       __AbsoluteZero             0000000000000000     <absolute>
 0000:00000000       ___safe_se_handler_table   0000000000000000     <absolute>
 0000:00000000       __guard_fids_table         0000000000000000     <absolute>
 0000:00000000       __hybrid_auxiliary_iat     0000000000000000     <absolute>
 0000:00000000       __dynamic_value_reloc_table 0000000000000000     <absolute>
 0000:00000100       __guard_flags              0000000000000100     <absolute>
 0000:00000000       __ImageBase                0000000180000000     <linker-defined>
 0001:00000350       __local_stdio_printf_options 0000000180001350 f i java.obj
 0001:00000360       fprintf                    0000000180001360 f i java.obj
 0001:000003b0       sprintf_s                  00000001800013b0 f i java.obj
 0001:00000410       ?what@exception@stdext@@UEBAPEBDXZ 0000000180001410 f i java.obj
 0001:00000430       ?_Raise@exception@stdext@@QEBAXXZ 0000000180001430 f i java.obj
 0001:00000470       ?imbue@?$basic_streambuf@DU?$char_traits@D@std@@@std@@MEAAXAEBVlocale@2@@Z 0000000180001470 f i java.obj
 0001:00000470       ?_Lock@?$basic_streambuf@DU?$char_traits@D@std@@@std@@UEAAXXZ 0000000180001470 f i java.obj
 0001:00000470       ?_Unlock@?$basic_streambuf@DU?$char_traits@D@std@@@std@@UEAAXXZ 0000000180001470 f i java.obj
 0001:00000470       ?EIO_CallJs@@YAXPEAUuv_work_s@@@Z 0000000180001470 f i java.obj
 0001:00000470       ?_Doraise@exception@stdext@@MEBAXXZ 0000000180001470 f i java.obj
 0001:00000470       _guard_check_icall_nop     0000000180001470 f i LIBCMT:guard_support.obj
 0001:00000480       ??_Gexception@stdext@@UEAAPEAXI@Z 0000000180001480 f i java.obj
 0001:00000480       ??_Eexception@stdext@@UEAAPEAXI@Z 0000000180001480 f i * CIL library *:* CIL module *
 0001:00000480       ??_Eruntime_error@std@@UEAAPEAXI@Z 0000000180001480 f i * CIL library *:* CIL module *
 0001:00000480       ??_Gruntime_error@std@@UEAAPEAXI@Z 0000000180001480 f i java.obj
 0001:000004b0       ?NewObject@JNIEnv_@@QEAAPEAV_jobject@@PEAV_jclass@@PEAU_jmethodID@@ZZ 00000001800014b0 f i java.obj
 0001:000004e0       ?CallObjectMethod@JNIEnv_@@QEAAPEAV_jobject@@PEAV2@PEAU_jmethodID@@ZZ 00000001800014e0 f i java.obj
 0001:00000510       ?CallBooleanMethod@JNIEnv_@@QEAAEPEAV_jobject@@PEAU_jmethodID@@ZZ 0000000180001510 f i java.obj
 0001:00000540       ?CallByteMethod@JNIEnv_@@QEAACPEAV_jobject@@PEAU_jmethodID@@ZZ 0000000180001540 f i java.obj
 0001:00000570       ?CallCharMethod@JNIEnv_@@QEAAGPEAV_jobject@@PEAU_jmethodID@@ZZ 0000000180001570 f i java.obj
 0001:000005a0       ?CallShortMethod@JNIEnv_@@QEAAFPEAV_jobject@@PEAU_jmethodID@@ZZ 00000001800015a0 f i java.obj
 0001:000005d0       ?CallIntMethod@JNIEnv_@@QEAAJPEAV_jobject@@PEAU_jmethodID@@ZZ 00000001800015d0 f i java.obj
 0001:00000600       ?CallFloatMethod@JNIEnv_@@QEAAMPEAV_jobject@@PEAU_jmethodID@@ZZ 0000000180001600 f i java.obj
 0001:00000630       ?CallDoubleMethod@JNIEnv_@@QEAANPEAV_jobject@@PEAU_jmethodID@@ZZ 0000000180001630 f i java.obj
 0001:00000660       ?CallStaticObjectMethod@JNIEnv_@@QEAAPEAV_jobject@@PEAV_jclass@@PEAU_jmethodID@@ZZ 0000000180001660 f i java.obj
 0001:00000910       ?New@?$Factory@VFunctionTemplate@v8@@@imp@Nan@@SA?AV?$Local@VFunctionTemplate@v8@@@v8@@P6AXAEBV?$FunctionCallbackInfo@VValue@v8@@@3@@ZV?$Local@VValue@v8@@@5@V?$Local@VSignature@v8@@@5@@Z 0000000180001910 f i java.obj
 0001:00000ac0       ?ThrowError@Nan@@YAXPEBD@Z 0000000180001ac0 f i java.obj
 0001:00000b50       ?TypeError@Nan@@YA?AV?$Local@VValue@v8@@@v8@@PEBD@Z 0000000180001b50 f i java.obj
 0001:00000be0       ?SetPrototypeMethod@Nan@@YAXV?$Local@VFunctionTemplate@v8@@@v8@@PEBDP6AXAEBV?$FunctionCallbackInfo@VValue@v8@@@1@@Z@Z 0000000180001be0 f i java.obj
 0001:00000cc0       ?SetAccessor@Nan@@YA_NV?$Local@VObject@v8@@@v8@@V?$Local@VString@v8@@@3@P6AX1AEBV?$PropertyCallbackInfo@VValue@v8@@@1@@ZP6AX1V?$Local@VValue@v8@@@3@AEBV?$PropertyCallbackInfo@X@1@@Z4W4AccessControl@3@W4PropertyAttribute@3@@Z 0000000180001cc0 f i java.obj
 0001:00000e90       ?Wrap@ObjectWrap@Nan@@IEAAXV?$Local@VObject@v8@@@v8@@@Z 0000000180001e90 f i java.obj
 0001:00000f70       ?Ref@JavaObject@@UEAAXXZ   0000000180001f70 f i javaObject.obj
 0001:00000f70       ?Ref@ObjectWrap@Nan@@MEAAXXZ 0000000180001f70 f i java.obj
 0001:00000fb0       ?Unref@ObjectWrap@Nan@@MEAAXXZ 0000000180001fb0 f i java.obj
 0001:00000fb0       ?Unref@JavaObject@@UEAAXXZ 0000000180001fb0 f i javaObject.obj
 0001:00001060       ?WeakCallback@ObjectWrap@Nan@@CAXAEBV?$WeakCallbackInfo@VObjectWrap@Nan@@@v8@@@Z 0000000180002060 f i java.obj
 0001:000010f0       ??_EObjectWrap@Nan@@UEAAPEAXI@Z 00000001800020f0 f i * CIL library *:* CIL module *
 0001:000010f0       ??_GObjectWrap@Nan@@UEAAPEAXI@Z 00000001800020f0 f i java.obj
 0001:00001180       ??1runtime_error@std@@UEAA@XZ 0000000180002180 f i java.obj
 0001:00001190       ?default_error_condition@error_category@std@@UEBA?AVerror_condition@2@H@Z 0000000180002190 f i java.obj
 0001:000011a0       ?equivalent@error_category@std@@UEBA_NHAEBVerror_condition@2@@Z 00000001800021a0 f i java.obj
 0001:00001200       ?equivalent@error_category@std@@UEBA_NAEBVerror_code@2@H@Z 0000000180002200 f i java.obj
 0001:00001220       ?make_error_code@std@@YA?AVerror_code@1@W4io_errc@1@@Z 0000000180002220 f i java.obj
 0001:00001270       ??0_System_error@std@@IEAA@Verror_code@1@AEBV?$basic_string@DU?$char_traits@D@std@@V?$allocator@D@2@@1@@Z 0000000180002270 f i java.obj
 0001:00001430       ??_G_System_error@std@@UEAAPEAXI@Z 0000000180002430 f i java.obj
 0001:00001430       ??_Gfailure@ios_base@std@@UEAAPEAXI@Z 0000000180002430 f i java.obj
 0001:00001430       ??_E_System_error@std@@UEAAPEAXI@Z 0000000180002430 f i * CIL library *:* CIL module *
 0001:00001430       ??_Efailure@ios_base@std@@UEAAPEAXI@Z 0000000180002430 f i * CIL library *:* CIL module *
 0001:00001460       ?name@_Iostream_error_category@std@@UEBAPEBDXZ 0000000180002460 f i java.obj
 0001:00001470       ?message@_Iostream_error_category@std@@UEBA?AV?$basic_string@DU?$char_traits@D@std@@V?$allocator@D@2@@2@H@Z 0000000180002470 f i java.obj
 0001:000014f0       ??_G_Iostream_error_category@std@@UEAAPEAXI@Z 00000001800024f0 f i java.obj
 0001:000014f0       ??_E_Iostream_error_category@std@@UEAAPEAXI@Z 00000001800024f0 f i * CIL library *:* CIL module *
 0001:00001520       ??_E_Facet_base@std@@UEAAPEAXI@Z 0000000180002520 f i * CIL library *:* CIL module *
 0001:00001520       ??_G_Facet_base@std@@UEAAPEAXI@Z 0000000180002520 f i java.obj
 0001:00001550       ??1_Locinfo@std@@QEAA@XZ   0000000180002550 f i java.obj
 0001:000015f0       ?_Incref@facet@locale@std@@UEAAXXZ 00000001800025f0 f i java.obj
 0001:00001600       ?_Decref@facet@locale@std@@UEAAPEAV_Facet_base@3@XZ 0000000180002600 f i java.obj
 0001:00001610       ?do_tolower@?$ctype@D@std@@MEBADD@Z 0000000180002610 f i java.obj
 0001:00001620       ?do_tolower@?$ctype@D@std@@MEBAPEBDPEADPEBD@Z 0000000180002620 f i java.obj
 0001:00001680       ?do_toupper@?$ctype@D@std@@MEBADD@Z 0000000180002680 f i java.obj
 0001:00001690       ?do_toupper@?$ctype@D@std@@MEBAPEBDPEADPEBD@Z 0000000180002690 f i java.obj
 0001:000016f0       ?do_widen@?$ctype@D@std@@MEBADD@Z 00000001800026f0 f i java.obj
 0001:000016f0       ?do_narrow@?$ctype@D@std@@MEBADDD@Z 00000001800026f0 f i java.obj
 0001:00001700       ?do_widen@?$ctype@D@std@@MEBAPEBDPEBD0PEAD@Z 0000000180002700 f i java.obj
 0001:00001720       ?do_narrow@?$ctype@D@std@@MEBAPEBDPEBD0DPEAD@Z 0000000180002720 f i java.obj
 0001:00001740       ??_E?$ctype@D@std@@MEAAPEAXI@Z 0000000180002740 f i * CIL library *:* CIL module *
 0001:00001740       ??_G?$ctype@D@std@@MEAAPEAXI@Z 0000000180002740 f i java.obj
 0001:000017b0       ??0failure@ios_base@std@@QEAA@PEBDAEBVerror_code@2@@Z 00000001800027b0 f i java.obj
 0001:00001880       ?_Doraise@failure@ios_base@std@@MEBAXXZ 0000000180002880 f i java.obj
 0001:000018a0       ??_Gios_base@std@@UEAAPEAXI@Z 00000001800028a0 f i java.obj
 0001:000018a0       ??_Eios_base@std@@UEAAPEAXI@Z 00000001800028a0 f i * CIL library *:* CIL module *
 0001:000018e0       ?Init@Java@@SAXV?$Local@VObject@v8@@@v8@@@Z 00000001800028e0 f   java.obj
 0001:00001df0       ?New@Java@@CAXAEBV?$FunctionCallbackInfo@VValue@v8@@@Nan@@@Z 0000000180002df0 f   java.obj
 0001:00002160       ??_GJava@@EEAAPEAXI@Z      0000000180003160 f i java.obj
 0001:00002160       ??_EJava@@EEAAPEAXI@Z      0000000180003160 f i * CIL library *:* CIL module *
 0001:000021a0       ??1Java@@EEAA@XZ           00000001800031a0 f   java.obj
 0001:00002380       ?configureAsync@Java@@AEAAXAEAV?$Local@VValue@v8@@@v8@@@Z 0000000180003380 f   java.obj
 0001:00002820       ?createJVM@Java@@AEAA?AV?$Local@VValue@v8@@@v8@@PEAPEAUJavaVM_@@PEAPEAUJNIEnv_@@@Z 0000000180003820 f   java.obj
 0001:00003960       ??_D?$basic_ostringstream@DU?$char_traits@D@std@@V?$allocator@D@2@@std@@QEAAXXZ 0000000180004960 f i java.obj
 0001:000039f0       ?AccessorProhibitsOverwritingGetter@Java@@CAXV?$Local@VString@v8@@@v8@@AEBV?$PropertyCallbackInfo@VValue@v8@@@Nan@@@Z 00000001800049f0 f   java.obj
 0001:00003d80       ?AccessorProhibitsOverwritingSetter@Java@@CAXV?$Local@VString@v8@@@v8@@V?$Local@VValue@v8@@@3@AEBV?$PropertyCallbackInfo@X@Nan@@@Z 0000000180004d80 f   java.obj
 0001:00003f40       ?getClassLoader@Java@@CAXAEBV?$FunctionCallbackInfo@VValue@v8@@@Nan@@@Z 0000000180004f40 f   java.obj
 0001:00004100       ?newInstance@Java@@CAXAEBV?$FunctionCallbackInfo@VValue@v8@@@Nan@@@Z 0000000180005100 f   java.obj
 0001:00004c40       ?newInstanceSync@Java@@CAXAEBV?$FunctionCallbackInfo@VValue@v8@@@Nan@@@Z 0000000180005c40 f   java.obj
 0001:00005570       ?newProxy@Java@@CAXAEBV?$FunctionCallbackInfo@VValue@v8@@@Nan@@@Z 0000000180006570 f   java.obj
 0001:00006800       ??1DynamicProxyData@@QEAA@XZ 0000000180007800 f i java.obj
 0001:00006960       ?callStaticMethod@Java@@CAXAEBV?$FunctionCallbackInfo@VValue@v8@@@Nan@@@Z 0000000180007960 f   java.obj
 0001:000076f0       ?callStaticMethodSync@Java@@CAXAEBV?$FunctionCallbackInfo@VValue@v8@@@Nan@@@Z 00000001800086f0 f   java.obj
 0001:00008390       ?callMethodSync@Java@@CAXAEBV?$FunctionCallbackInfo@VValue@v8@@@Nan@@@Z 0000000180009390 f   java.obj
 0001:00008c70       ?callMethod@Java@@CAXAEBV?$FunctionCallbackInfo@VValue@v8@@@Nan@@@Z 0000000180009c70 f   java.obj
 0001:00009780       ?findClassSync@Java@@CAXAEBV?$FunctionCallbackInfo@VValue@v8@@@Nan@@@Z 000000018000a780 f   java.obj
 0001:00009de0       ?newArray@Java@@CAXAEBV?$FunctionCallbackInfo@VValue@v8@@@Nan@@@Z 000000018000ade0 f   java.obj
 0001:0000b0b0       ?newByte@Java@@CAXAEBV?$FunctionCallbackInfo@VValue@v8@@@Nan@@@Z 000000018000c0b0 f   java.obj
 0001:0000b410       ?newShort@Java@@CAXAEBV?$FunctionCallbackInfo@VValue@v8@@@Nan@@@Z 000000018000c410 f   java.obj
 0001:0000b770       ?newLong@Java@@CAXAEBV?$FunctionCallbackInfo@VValue@v8@@@Nan@@@Z 000000018000c770 f   java.obj
 0001:0000bae0       ?newChar@Java@@CAXAEBV?$FunctionCallbackInfo@VValue@v8@@@Nan@@@Z 000000018000cae0 f   java.obj
 0001:0000bfa0       ?newFloat@Java@@CAXAEBV?$FunctionCallbackInfo@VValue@v8@@@Nan@@@Z 000000018000cfa0 f   java.obj
 0001:0000c310       ?newDouble@Java@@CAXAEBV?$FunctionCallbackInfo@VValue@v8@@@Nan@@@Z 000000018000d310 f   java.obj
 0001:0000c680       ?getStaticFieldValue@Java@@CAXAEBV?$FunctionCallbackInfo@VValue@v8@@@Nan@@@Z 000000018000d680 f   java.obj
 0001:0000d520       ?setStaticFieldValue@Java@@CAXAEBV?$FunctionCallbackInfo@VValue@v8@@@Nan@@@Z 000000018000e520 f   java.obj
 0001:0000e230       ?instanceOf@Java@@CAXAEBV?$FunctionCallbackInfo@VValue@v8@@@Nan@@@Z 000000018000f230 f   java.obj
 0001:0000ea20       ?EIO_AfterCallJs@@YAXPEAUuv_work_s@@H@Z 000000018000fa20 f   java.obj
 0001:0000f4d0       ?throwNewThrowable@@YAXPEAUJNIEnv_@@PEBDV?$basic_string@DU?$char_traits@D@std@@V?$allocator@D@2@@std@@@Z 00000001800104d0 f   java.obj
 0001:0000f580       Java_node_NodeDynamicProxyClass_callJs 0000000180010580 f   java.obj
 0001:0000f8e0       Java_node_NodeDynamicProxyClass_unref 00000001800108e0 f   java.obj
 0001:0000f8f0       ??1?$basic_string@DU?$char_traits@D@std@@V?$allocator@D@2@@std@@QEAA@XZ 00000001800108f0 f i java.obj
 0001:0000f950       ??4?$basic_string@DU?$char_traits@D@std@@V?$allocator@D@2@@std@@QEAAAEAV01@$$QEAV01@@Z 0000000180010950 f i java.obj
 0001:0000f9e0       ??0?$basic_string@DU?$char_traits@D@std@@V?$allocator@D@2@@std@@QEAA@_KD@Z 00000001800109e0 f i java.obj
 0001:0000faf0       ??0?$basic_string@DU?$char_traits@D@std@@V?$allocator@D@2@@std@@QEAA@AEBV01@@Z 0000000180010af0 f i java.obj
 0001:0000fbd0       ?str@?$basic_ostringstream@DU?$char_traits@D@std@@V?$allocator@D@2@@std@@QEBA?AV?$basic_string@DU?$char_traits@D@std@@V?$allocator@D@2@@2@XZ 0000000180010bd0 f i java.obj
 0001:0000fc60       ??0?$basic_ostringstream@DU?$char_traits@D@std@@V?$allocator@D@2@@std@@QEAA@H@Z 0000000180010c60 f i java.obj
 0001:0000fe60       ?seekpos@?$basic_stringbuf@DU?$char_traits@D@std@@V?$allocator@D@2@@std@@MEAA?AV?$fpos@U_Mbstatet@@@2@V32@H@Z 0000000180010e60 f i java.obj
 0001:0000ff50       ?seekoff@?$basic_stringbuf@DU?$char_traits@D@std@@V?$allocator@D@2@@std@@MEAA?AV?$fpos@U_Mbstatet@@@2@_JHH@Z 0000000180010f50 f i java.obj
 0001:000100b0       ?underflow@?$basic_stringbuf@DU?$char_traits@D@std@@V?$allocator@D@2@@std@@MEAAHXZ 00000001800110b0 f i java.obj
 0001:00010120       ?pbackfail@?$basic_stringbuf@DU?$char_traits@D@std@@V?$allocator@D@2@@std@@MEAAHH@Z 0000000180011120 f i java.obj
 0001:00010180       ?overflow@?$basic_stringbuf@DU?$char_traits@D@std@@V?$allocator@D@2@@std@@MEAAHH@Z 0000000180011180 f i java.obj
 0001:00010340       ??1?$basic_stringbuf@DU?$char_traits@D@std@@V?$allocator@D@2@@std@@UEAA@XZ 0000000180011340 f i java.obj
 0001:00010440       ??6?$basic_ostream@DU?$char_traits@D@std@@@std@@QEAAAEAV01@H@Z 0000000180011440 f i java.obj
 0001:000105d0       ?showmanyc@?$basic_streambuf@DU?$char_traits@D@std@@@std@@MEAA_JXZ 00000001800115d0 f i java.obj
 0001:000105d0       ?sync@?$basic_streambuf@DU?$char_traits@D@std@@@std@@MEAAHXZ 00000001800115d0 f i java.obj
 0001:000105e0       ?setbuf@?$basic_streambuf@DU?$char_traits@D@std@@@std@@MEAAPEAV12@PEAD_J@Z 00000001800115e0 f i java.obj
 0001:000105f0       ?seekpos@?$basic_streambuf@DU?$char_traits@D@std@@@std@@MEAA?AV?$fpos@U_Mbstatet@@@2@V32@H@Z 00000001800115f0 f i java.obj
 0001:000105f0       ?seekoff@?$basic_streambuf@DU?$char_traits@D@std@@@std@@MEAA?AV?$fpos@U_Mbstatet@@@2@_JHH@Z 00000001800115f0 f i java.obj
 0001:00010610       ?xsputn@?$basic_streambuf@DU?$char_traits@D@std@@@std@@MEAA_JPEBD_J@Z 0000000180011610 f i java.obj
 0001:000106d0       ?xsgetn@?$basic_streambuf@DU?$char_traits@D@std@@@std@@MEAA_JPEAD_J@Z 00000001800116d0 f i java.obj
 0001:000107b0       ?uflow@?$basic_streambuf@DU?$char_traits@D@std@@@std@@MEAAHXZ 00000001800117b0 f i java.obj
 0001:000107f0       ?pbackfail@?$basic_streambuf@DU?$char_traits@D@std@@@std@@MEAAHH@Z 00000001800117f0 f i java.obj
 0001:000107f0       ?overflow@?$basic_streambuf@DU?$char_traits@D@std@@@std@@MEAAHH@Z 00000001800117f0 f i java.obj
 0001:000107f0       ?underflow@?$basic_streambuf@DU?$char_traits@D@std@@@std@@MEAAHXZ 00000001800117f0 f i java.obj
 0001:00010800       ??_G?$basic_ostringstream@DU?$char_traits@D@std@@V?$allocator@D@2@@std@@UEAAPEAXI@Z 0000000180011800 f i java.obj
 0001:00010800       ??_E?$basic_ostringstream@DU?$char_traits@D@std@@V?$allocator@D@2@@std@@UEAAPEAXI@Z 0000000180011800 f i * CIL library *:* CIL module *
 0001:00010840       ??_E?$basic_stringbuf@DU?$char_traits@D@std@@V?$allocator@D@2@@std@@UEAAPEAXI@Z 0000000180011840 f i * CIL library *:* CIL module *
 0001:00010840       ??_G?$basic_stringbuf@DU?$char_traits@D@std@@V?$allocator@D@2@@std@@UEAAPEAXI@Z 0000000180011840 f i java.obj
 0001:00010880       ??_G?$basic_ostream@DU?$char_traits@D@std@@@std@@UEAAPEAXI@Z 0000000180011880 f i java.obj
 0001:00010880       ??_E?$basic_ostream@DU?$char_traits@D@std@@@std@@UEAAPEAXI@Z 0000000180011880 f i * CIL library *:* CIL module *
 0001:000108f0       ??_G?$basic_streambuf@DU?$char_traits@D@std@@@std@@UEAAPEAXI@Z 00000001800118f0 f i java.obj
 0001:000108f0       ??_E?$basic_streambuf@DU?$char_traits@D@std@@@std@@UEAAPEAXI@Z 00000001800118f0 f i * CIL library *:* CIL module *
 0001:00010970       ??_G?$basic_ios@DU?$char_traits@D@std@@@std@@UEAAPEAXI@Z 0000000180011970 f i java.obj
 0001:00010970       ??_E?$basic_ios@DU?$char_traits@D@std@@@std@@UEAAPEAXI@Z 0000000180011970 f i * CIL library *:* CIL module *
 0001:000109b0       ??0sentry@?$basic_ostream@DU?$char_traits@D@std@@@std@@QEAA@AEAV12@@Z 00000001800119b0 f i java.obj
 0001:00010b40       ?do_put@?$num_put@DV?$ostreambuf_iterator@DU?$char_traits@D@std@@@std@@@std@@MEBA?AV?$ostreambuf_iterator@DU?$char_traits@D@std@@@2@V32@AEAVios_base@2@DPEBX@Z 0000000180011b40 f i java.obj
 0001:00010be0       ?do_put@?$num_put@DV?$ostreambuf_iterator@DU?$char_traits@D@std@@@std@@@std@@MEBA?AV?$ostreambuf_iterator@DU?$char_traits@D@std@@@2@V32@AEAVios_base@2@DO@Z 0000000180011be0 f i java.obj
 0001:00010ed0       ?do_put@?$num_put@DV?$ostreambuf_iterator@DU?$char_traits@D@std@@@std@@@std@@MEBA?AV?$ostreambuf_iterator@DU?$char_traits@D@std@@@2@V32@AEAVios_base@2@DN@Z 0000000180011ed0 f i java.obj
 0001:000111b0       ?do_put@?$num_put@DV?$ostreambuf_iterator@DU?$char_traits@D@std@@@std@@@std@@MEBA?AV?$ostreambuf_iterator@DU?$char_traits@D@std@@@2@V32@AEAVios_base@2@D_K@Z 00000001800121b0 f i java.obj
 0001:000112d0       ?do_put@?$num_put@DV?$ostreambuf_iterator@DU?$char_traits@D@std@@@std@@@std@@MEBA?AV?$ostreambuf_iterator@DU?$char_traits@D@std@@@2@V32@AEAVios_base@2@D_J@Z 00000001800122d0 f i java.obj
 0001:000113f0       ?do_put@?$num_put@DV?$ostreambuf_iterator@DU?$char_traits@D@std@@@std@@@std@@MEBA?AV?$ostreambuf_iterator@DU?$char_traits@D@std@@@2@V32@AEAVios_base@2@DK@Z 00000001800123f0 f i java.obj
 0001:00011510       ?do_put@?$num_put@DV?$ostreambuf_iterator@DU?$char_traits@D@std@@@std@@@std@@MEBA?AV?$ostreambuf_iterator@DU?$char_traits@D@std@@@2@V32@AEAVios_base@2@DJ@Z 0000000180012510 f i java.obj
 0001:00011630       ?do_put@?$num_put@DV?$ostreambuf_iterator@DU?$char_traits@D@std@@@std@@@std@@MEBA?AV?$ostreambuf_iterator@DU?$char_traits@D@std@@@2@V32@AEAVios_base@2@D_N@Z 0000000180012630 f i java.obj
 0001:000119c0       ?assign@?$basic_string@DU?$char_traits@D@std@@V?$allocator@D@2@@std@@QEAAAEAV12@QEBD_K@Z 00000001800129c0 f i java.obj
 0001:00011b10       ?append@?$basic_string@DU?$char_traits@D@std@@V?$allocator@D@2@@std@@QEAAAEAV12@QEBD_K@Z 0000000180012b10 f i java.obj
 0001:00011ba0       ?allocate@?$allocator@D@std@@QEAAPEAD_K@Z 0000000180012ba0 f i java.obj
 0001:00011c00       ?deallocate@?$allocator@D@std@@QEAAXQEAD_K@Z 0000000180012c00 f i java.obj
 0001:00011c40       ?_Pnavail@?$basic_streambuf@DU?$char_traits@D@std@@@std@@IEBA_JXZ 0000000180012c40 f i java.obj
 0001:00011c60       ?_Gnavail@?$basic_streambuf@DU?$char_traits@D@std@@@std@@IEBA_JXZ 0000000180012c60 f i java.obj
 0001:00011c80       ?setstate@?$basic_ios@DU?$char_traits@D@std@@@std@@QEAAXH_N@Z 0000000180012c80 f i java.obj
 0001:00011d00       ??_E?$num_put@DV?$ostreambuf_iterator@DU?$char_traits@D@std@@@std@@@std@@MEAAPEAXI@Z 0000000180012d00 f i * CIL library *:* CIL module *
 0001:00011d00       ??_G?$num_put@DV?$ostreambuf_iterator@DU?$char_traits@D@std@@@std@@@std@@MEAAPEAXI@Z 0000000180012d00 f i java.obj
 0001:00011d30       ?do_truename@?$numpunct@D@std@@MEBA?AV?$basic_string@DU?$char_traits@D@std@@V?$allocator@D@2@@2@XZ 0000000180012d30 f i java.obj
 0001:00011d80       ?do_falsename@?$numpunct@D@std@@MEBA?AV?$basic_string@DU?$char_traits@D@std@@V?$allocator@D@2@@2@XZ 0000000180012d80 f i java.obj
 0001:00011dd0       ?do_grouping@?$numpunct@D@std@@MEBA?AV?$basic_string@DU?$char_traits@D@std@@V?$allocator@D@2@@2@XZ 0000000180012dd0 f i java.obj
 0001:00011e20       ?do_thousands_sep@?$numpunct@D@std@@MEBADXZ 0000000180012e20 f i java.obj
 0001:00011e30       ?do_decimal_point@?$numpunct@D@std@@MEBADXZ 0000000180012e30 f i java.obj
 0001:00011e40       ?_Iput@?$num_put@DV?$ostreambuf_iterator@DU?$char_traits@D@std@@@std@@@std@@AEBA?AV?$ostreambuf_iterator@DU?$char_traits@D@std@@@2@V32@AEAVios_base@2@DPEAD_K@Z 0000000180012e40 f i java.obj
 0001:00012530       ?_Fput@?$num_put@DV?$ostreambuf_iterator@DU?$char_traits@D@std@@@std@@@std@@AEBA?AV?$ostreambuf_iterator@DU?$char_traits@D@std@@@2@V32@AEAVios_base@2@DPEBD_K@Z 0000000180013530 f i java.obj
 0001:00012c90       ??_E?$numpunct@D@std@@MEAAPEAXI@Z 0000000180013c90 f i * CIL library *:* CIL module *
 0001:00012c90       ??_G?$numpunct@D@std@@MEAAPEAXI@Z 0000000180013c90 f i java.obj
 0001:00012cf0       ?_Xran@?$_String_val@U?$_Simple_types@D@std@@@std@@SAXXZ 0000000180013cf0 f i java.obj
 0001:00012d10       ??$use_facet@V?$ctype@D@std@@@std@@YAAEBV?$ctype@D@0@AEBVlocale@0@@Z 0000000180013d10 f i java.obj
 0001:00012f10       ??$?6U?$char_traits@D@std@@@std@@YAAEAV?$basic_ostream@DU?$char_traits@D@std@@@0@AEAV10@PEBD@Z 0000000180013f10 f i java.obj
 0001:00013140       ??$Unwrap@VJavaObject@@@ObjectWrap@Nan@@SAPEAVJavaObject@@V?$Local@VObject@v8@@@v8@@@Z 0000000180014140 f i java.obj
 0001:00013140       ??$Unwrap@VJava@@@ObjectWrap@Nan@@SAPEAVJava@@V?$Local@VObject@v8@@@v8@@@Z 0000000180014140 f i java.obj
 0001:00013140       ??$Unwrap@VJavaProxyObject@@@ObjectWrap@Nan@@SAPEAVJavaProxyObject@@V?$Local@VObject@v8@@@v8@@@Z 0000000180014140 f i javaObject.obj
 0001:000131c0       ??$use_facet@V?$num_put@DV?$ostreambuf_iterator@DU?$char_traits@D@std@@@std@@@std@@@std@@YAAEBV?$num_put@DV?$ostreambuf_iterator@DU?$char_traits@D@std@@@std@@@0@AEBVlocale@0@@Z 00000001800141c0 f i java.obj
 0001:000133a0       ??$use_facet@V?$numpunct@D@std@@@std@@YAAEBV?$numpunct@D@0@AEBVlocale@0@@Z 00000001800143a0 f i java.obj
 0001:000134c0       ??$_Reallocate_grow_by@V<lambda_e1befb086ad3257e3f042a63030725f7>@@_KD@?$basic_string@DU?$char_traits@D@std@@V?$allocator@D@2@@std@@AEAAAEAV01@_KV<lambda_e1befb086ad3257e3f042a63030725f7>@@_KD@Z 00000001800144c0 f i java.obj
 0001:00013640       ??$_Reallocate_grow_by@V<lambda_65e615be2a453ca0576c979606f46740>@@PEBD_K@?$basic_string@DU?$char_traits@D@std@@V?$allocator@D@2@@std@@AEAAAEAV01@_KV<lambda_65e615be2a453ca0576c979606f46740>@@PEBD_K@Z 0000000180014640 f i java.obj
 0001:000137c0       ??$_Allocate@$0BA@U_Default_allocate_traits@std@@$0A@@std@@YAPEAX_K@Z 00000001800147c0 f i java.obj
 0001:00013820       ??$_Reallocate_grow_by@V<lambda_b986da8d428e4af07c64af60eec09b61>@@_K_KD@?$basic_string@DU?$char_traits@D@std@@V?$allocator@D@2@@std@@AEAAAEAV01@_KV<lambda_b986da8d428e4af07c64af60eec09b61>@@_K2D@Z 0000000180014820 f i java.obj
 0001:000139d0       ?_Getcat@?$numpunct@D@std@@SA_KPEAPEBVfacet@locale@2@PEBV42@@Z 00000001800149d0 f i java.obj
 0001:00013bb0       ?_Xlen@?$basic_string@DU?$char_traits@D@std@@V?$allocator@D@2@@std@@CAXXZ 0000000180014bb0 f i java.obj
 0001:00013bd0       ?reserve@?$basic_string@DU?$char_traits@D@std@@V?$allocator@D@2@@std@@QEAAX_K@Z 0000000180014bd0 f i java.obj
 0001:00013d90       ?sputn@?$basic_streambuf@DU?$char_traits@D@std@@@std@@QEAA_JPEBD_J@Z 0000000180014d90 f i java.obj
 0001:00013e70       ??$_Immortalize_impl@V_Iostream_error_category@std@@@std@@YAHPEAX0PEAPEAX@Z 0000000180014e70 f i java.obj
 0001:00013e90       ??$_Insert_string@DU?$char_traits@D@std@@_K@std@@YAAEAV?$basic_ostream@DU?$char_traits@D@std@@@0@AEAV10@QEBD_K@Z 0000000180014e90 f i java.obj
 0001:00014100       ??$_Reallocate_grow_by@V<lambda_f3a66ab6a0570788f31503db83886f49>@@_KPEBD_K@?$basic_string@DU?$char_traits@D@std@@V?$allocator@D@2@@std@@AEAAAEAV01@_KV<lambda_f3a66ab6a0570788f31503db83886f49>@@_KPEBD2@Z 0000000180015100 f i java.obj
 0001:00014260       ??_E?$basic_ostream@DU?$char_traits@D@std@@@std@@$4PPPPPPPM@A@EAAPEAXI@Z 0000000180015260 f i java.obj
 0001:0001426c       ??_E?$basic_ostringstream@DU?$char_traits@D@std@@V?$allocator@D@2@@std@@$4PPPPPPPM@A@EAAPEAXI@Z 000000018001526c f i java.obj
 0001:00014280       ?CallStaticIntMethod@JNIEnv_@@QEAAJPEAV_jclass@@PEAU_jmethodID@@ZZ 0000000180015280 f i javaObject.obj
 0001:00014380       ?NewInstance@Nan@@YA?AV?$MaybeLocal@VObject@v8@@@v8@@V?$Local@VFunction@v8@@@3@@Z 0000000180015380 f i javaObject.obj
 0001:00014400       ?SetPrototypeTemplate@Nan@@YAXV?$Local@VFunctionTemplate@v8@@@v8@@PEBDV?$Local@VData@v8@@@3@@Z 0000000180015400 f i javaObject.obj
 0001:000144a0       ?SetAccessor@Nan@@YAXV?$Local@VObjectTemplate@v8@@@v8@@V?$Local@VString@v8@@@3@P6AX1AEBV?$PropertyCallbackInfo@VValue@v8@@@1@@ZP6AX1V?$Local@VValue@v8@@@3@AEBV?$PropertyCallbackInfo@X@1@@Z4W4AccessControl@3@W4PropertyAttribute@3@V?$Local@VAccessorSignature@v8@@@3@@Z 00000001800154a0 f i javaObject.obj
 0001:00014650       ?New@JavaObject@@SA?AV?$Local@VObject@v8@@@v8@@PEAVJava@@PEAV_jobject@@@Z 0000000180015650 f   javaObject.obj
 0001:00015f10       ??0JavaObject@@IEAA@PEAVJava@@PEAV_jobject@@@Z 0000000180016f10 f   javaObject.obj
 0001:00015f90       ??_GJavaObject@@MEAAPEAXI@Z 0000000180016f90 f i javaObject.obj
 0001:00015f90       ??_EJavaObject@@MEAAPEAXI@Z 0000000180016f90 f i * CIL library *:* CIL module *
 0001:00015fd0       ??1JavaObject@@MEAA@XZ     0000000180016fd0 f   javaObject.obj
 0001:00016080       ?methodCall@JavaObject@@CAXAEBV?$FunctionCallbackInfo@VValue@v8@@@Nan@@@Z 0000000180017080 f   javaObject.obj
 0001:00016780       ?methodCallSync@JavaObject@@CAXAEBV?$FunctionCallbackInfo@VValue@v8@@@Nan@@@Z 0000000180017780 f   javaObject.obj
 0001:00016a90       ?methodCallPromise@JavaObject@@CAXAEBV?$FunctionCallbackInfo@VValue@v8@@@Nan@@@Z 0000000180017a90 f   javaObject.obj
 0001:00016bc0       ?fieldGetter@JavaObject@@CAXV?$Local@VString@v8@@@v8@@AEBV?$PropertyCallbackInfo@VValue@v8@@@Nan@@@Z 0000000180017bc0 f   javaObject.obj
 0001:00017260       ?fieldSetter@JavaObject@@CAXV?$Local@VString@v8@@@v8@@V?$Local@VValue@v8@@@3@AEBV?$PropertyCallbackInfo@X@Nan@@@Z 0000000180018260 f   javaObject.obj
 0001:000177a0       ?indexGetter@JavaObject@@CAXIAEBV?$PropertyCallbackInfo@VValue@v8@@@Nan@@@Z 00000001800187a0 f   javaObject.obj
 0001:00017970       ??_GJavaProxyObject@@EEAAPEAXI@Z 0000000180018970 f i javaObject.obj
 0001:00017970       ??_EJavaProxyObject@@EEAAPEAXI@Z 0000000180018970 f i * CIL library *:* CIL module *
 0001:000179e0       ?doUnref@JavaProxyObject@@CAXAEBV?$FunctionCallbackInfo@VValue@v8@@@Nan@@@Z 00000001800189e0 f   javaObject.obj
 0001:00017a40       ?invocationHandlerGetter@JavaProxyObject@@CAXV?$Local@VString@v8@@@v8@@AEBV?$PropertyCallbackInfo@VValue@v8@@@Nan@@@Z 0000000180018a40 f   javaObject.obj
 0001:00017b00       ??A?$map@V?$basic_string@DU?$char_traits@D@std@@V?$allocator@D@2@@std@@PEAV?$Persistent@VFunctionTemplate@v8@@V?$NonCopyablePersistentTraits@VFunctionTemplate@v8@@@2@@Nan@@U?$less@V?$basic_string@DU?$char_traits@D@std@@V?$allocator@D@2@@std@@@2@V?$allocator@U?$pair@$$CBV?$basic_string@DU?$char_traits@D@std@@V?$allocator@D@2@@std@@PEAV?$Persistent@VFunctionTemplate@v8@@V?$NonCopyablePersistentTraits@VFunctionTemplate@v8@@@2@@Nan@@@std@@@2@@std@@QEAAAEAPEAV?$Persistent@VFunctionTemplate@v8@@V?$NonCopyablePersistentTraits@VFunctionTemplate@v8@@@2@@Nan@@AEBV?$basic_string@DU?$char_traits@D@std@@V?$allocator@D@2@@1@@Z 0000000180018b00 f i javaObject.obj
 0001:00017bc0       ?lower_bound@?$_Tree@V?$_Tmap_traits@V?$basic_string@DU?$char_traits@D@std@@V?$allocator@D@2@@std@@PEAV?$Persistent@VFunctionTemplate@v8@@V?$NonCopyablePersistentTraits@VFunctionTemplate@v8@@@2@@Nan@@U?$less@V?$basic_string@DU?$char_traits@D@std@@V?$allocator@D@2@@std@@@2@V?$allocator@U?$pair@$$CBV?$basic_string@DU?$char_traits@D@std@@V?$allocator@D@2@@std@@PEAV?$Persistent@VFunctionTemplate@v8@@V?$NonCopyablePersistentTraits@VFunctionTemplate@v8@@@2@@Nan@@@std@@@2@$0A@@std@@@std@@QEAA?AV?$_Tree_iterator@V?$_Tree_val@U?$_Tree_simple_types@U?$pair@$$CBV?$basic_string@DU?$char_traits@D@std@@V?$allocator@D@2@@std@@PEAV?$Persistent@VFunctionTemplate@v8@@V?$NonCopyablePersistentTraits@VFunctionTemplate@v8@@@2@@Nan@@@std@@@std@@@std@@@2@AEBV?$basic_string@DU?$char_traits@D@std@@V?$allocator@D@2@@2@@Z 0000000180018bc0 f i javaObject.obj
 0001:00017c90       ??R?$less@V?$basic_string@DU?$char_traits@D@std@@V?$allocator@D@2@@std@@@std@@QEBA_NAEBV?$basic_string@DU?$char_traits@D@std@@V?$allocator@D@2@@1@0@Z 0000000180018c90 f i javaObject.obj
 0001:00017d00       ??$_Erase_tree@V?$allocator@U?$_Tree_node@U?$pair@$$CBV?$basic_string@DU?$char_traits@D@std@@V?$allocator@D@2@@std@@PEAV?$Persistent@VFunctionTemplate@v8@@V?$NonCopyablePersistentTraits@VFunctionTemplate@v8@@@2@@Nan@@@std@@PEAX@std@@@std@@@?$_Tree_val@U?$_Tree_simple_types@U?$pair@$$CBV?$basic_string@DU?$char_traits@D@std@@V?$allocator@D@2@@std@@PEAV?$Persistent@VFunctionTemplate@v8@@V?$NonCopyablePersistentTraits@VFunctionTemplate@v8@@@2@@Nan@@@std@@@std@@@std@@QEAAXAEAV?$allocator@U?$_Tree_node@U?$pair@$$CBV?$basic_string@DU?$char_traits@D@std@@V?$allocator@D@2@@std@@PEAV?$Persistent@VFunctionTemplate@v8@@V?$NonCopyablePersistentTraits@VFunctionTemplate@v8@@@2@@Nan@@@std@@PEAX@std@@@1@PEAU?$_Tree_node@U?$pair@$$CBV?$basic_string@DU?$char_traits@D@std@@V?$allocator@D@2@@std@@PEAV?$Persistent@VFunctionTemplate@v8@@V?$NonCopyablePersistentTraits@VFunctionTemplate@v8@@@2@@Nan@@@std@@PEAX@1@@Z 0000000180018d00 f i javaObject.obj
 0001:00017dc0       ??$_Insert_hint@AEAU?$pair@$$CBV?$basic_string@DU?$char_traits@D@std@@V?$allocator@D@2@@std@@PEAV?$Persistent@VFunctionTemplate@v8@@V?$NonCopyablePersistentTraits@VFunctionTemplate@v8@@@2@@Nan@@@std@@PEAU?$_Tree_node@U?$pair@$$CBV?$basic_string@DU?$char_traits@D@std@@V?$allocator@D@2@@std@@PEAV?$Persistent@VFunctionTemplate@v8@@V?$NonCopyablePersistentTraits@VFunctionTemplate@v8@@@2@@Nan@@@std@@PEAX@2@@?$_Tree@V?$_Tmap_traits@V?$basic_string@DU?$char_traits@D@std@@V?$allocator@D@2@@std@@PEAV?$Persistent@VFunctionTemplate@v8@@V?$NonCopyablePersistentTraits@VFunctionTemplate@v8@@@2@@Nan@@U?$less@V?$basic_string@DU?$char_traits@D@std@@V?$allocator@D@2@@std@@@2@V?$allocator@U?$pair@$$CBV?$basic_string@DU?$char_traits@D@std@@V?$allocator@D@2@@std@@PEAV?$Persistent@VFunctionTemplate@v8@@V?$NonCopyablePersistentTraits@VFunctionTemplate@v8@@@2@@Nan@@@std@@@2@$0A@@std@@@std@@IEAA?AV?$_Tree_iterator@V?$_Tree_val@U?$_Tree_simple_types@U?$pair@$$CBV?$basic_string@DU?$char_traits@D@std@@V?$allocator@D@2@@std@@PEAV?$Persistent@VFunctionTemplate@v8@@V?$NonCopyablePersistentTraits@VFunctionTemplate@v8@@@2@@Nan@@@std@@@std@@@std@@@1@V?$_Tree_const_iterator@V?$_Tree_val@U?$_Tree_simple_types@U?$pair@$$CBV?$basic_string@DU?$char_traits@D@std@@V?$allocator@D@2@@std@@PEAV?$Persistent@VFunctionTemplate@v8@@V?$NonCopyablePersistentTraits@VFunctionTemplate@v8@@@2@@Nan@@@std@@@std@@@std@@@1@AEAU?$pair@$$CBV?$basic_string@DU?$char_traits@D@std@@V?$allocator@D@2@@std@@PEAV?$Persistent@VFunctionTemplate@v8@@V?$NonCopyablePersistentTraits@VFunctionTemplate@v8@@@2@@Nan@@@1@PEAU?$_Tree_node@U?$pair@$$CBV?$basic_string@DU?$char_traits@D@std@@V?$allocator@D@2@@std@@PEAV?$Persistent@VFunctionTemplate@v8@@V?$NonCopyablePersistentTraits@VFunctionTemplate@v8@@@2@@Nan@@@std@@PEAX@1@@Z 0000000180018dc0 f i javaObject.obj
 0001:00018000       ??F?$_Tree_const_iterator@V?$_Tree_val@U?$_Tree_simple_types@U?$pair@$$CBV?$basic_string@DU?$char_traits@D@std@@V?$allocator@D@2@@std@@PEAV?$Persistent@VFunctionTemplate@v8@@V?$NonCopyablePersistentTraits@VFunctionTemplate@v8@@@2@@Nan@@@std@@@std@@@std@@@std@@QEAAAEAV01@XZ 0000000180019000 f i javaObject.obj
 0001:00018090       ?_Destroy_if_node@?$_Tree@V?$_Tmap_traits@V?$basic_string@DU?$char_traits@D@std@@V?$allocator@D@2@@std@@PEAV?$Persistent@VFunctionTemplate@v8@@V?$NonCopyablePersistentTraits@VFunctionTemplate@v8@@@2@@Nan@@U?$less@V?$basic_string@DU?$char_traits@D@std@@V?$allocator@D@2@@std@@@2@V?$allocator@U?$pair@$$CBV?$basic_string@DU?$char_traits@D@std@@V?$allocator@D@2@@std@@PEAV?$Persistent@VFunctionTemplate@v8@@V?$NonCopyablePersistentTraits@VFunctionTemplate@v8@@@2@@Nan@@@std@@@2@$0A@@std@@@std@@IEAAXPEAU?$_Tree_node@U?$pair@$$CBV?$basic_string@DU?$char_traits@D@std@@V?$allocator@D@2@@std@@PEAV?$Persistent@VFunctionTemplate@v8@@V?$NonCopyablePersistentTraits@VFunctionTemplate@v8@@@2@@Nan@@@std@@PEAX@2@@Z 0000000180019090 f i javaObject.obj
 0001:00018100       ??$_Insert_at@AEAU?$pair@$$CBV?$basic_string@DU?$char_traits@D@std@@V?$allocator@D@2@@std@@PEAV?$Persistent@VFunctionTemplate@v8@@V?$NonCopyablePersistentTraits@VFunctionTemplate@v8@@@2@@Nan@@@std@@PEAU?$_Tree_node@U?$pair@$$CBV?$basic_string@DU?$char_traits@D@std@@V?$allocator@D@2@@std@@PEAV?$Persistent@VFunctionTemplate@v8@@V?$NonCopyablePersistentTraits@VFunctionTemplate@v8@@@2@@Nan@@@std@@PEAX@2@@?$_Tree@V?$_Tmap_traits@V?$basic_string@DU?$char_traits@D@std@@V?$allocator@D@2@@std@@PEAV?$Persistent@VFunctionTemplate@v8@@V?$NonCopyablePersistentTraits@VFunctionTemplate@v8@@@2@@Nan@@U?$less@V?$basic_string@DU?$char_traits@D@std@@V?$allocator@D@2@@std@@@2@V?$allocator@U?$pair@$$CBV?$basic_string@DU?$char_traits@D@std@@V?$allocator@D@2@@std@@PEAV?$Persistent@VFunctionTemplate@v8@@V?$NonCopyablePersistentTraits@VFunctionTemplate@v8@@@2@@Nan@@@std@@@2@$0A@@std@@@std@@IEAA?AV?$_Tree_iterator@V?$_Tree_val@U?$_Tree_simple_types@U?$pair@$$CBV?$basic_string@DU?$char_traits@D@std@@V?$allocator@D@2@@std@@PEAV?$Persistent@VFunctionTemplate@v8@@V?$NonCopyablePersistentTraits@VFunctionTemplate@v8@@@2@@Nan@@@std@@@std@@@std@@@1@_NPEAU?$_Tree_node@U?$pair@$$CBV?$basic_string@DU?$char_traits@D@std@@V?$allocator@D@2@@std@@PEAV?$Persistent@VFunctionTemplate@v8@@V?$NonCopyablePersistentTraits@VFunctionTemplate@v8@@@2@@Nan@@@std@@PEAX@1@AEAU?$pair@$$CBV?$basic_string@DU?$char_traits@D@std@@V?$allocator@D@2@@std@@PEAV?$Persistent@VFunctionTemplate@v8@@V?$NonCopyablePersistentTraits@VFunctionTemplate@v8@@@2@@Nan@@@1@1@Z 0000000180019100 f i javaObject.obj
 0001:000183d0       ??$_Insert_nohint@AEAU?$pair@$$CBV?$basic_string@DU?$char_traits@D@std@@V?$allocator@D@2@@std@@PEAV?$Persistent@VFunctionTemplate@v8@@V?$NonCopyablePersistentTraits@VFunctionTemplate@v8@@@2@@Nan@@@std@@PEAU?$_Tree_node@U?$pair@$$CBV?$basic_string@DU?$char_traits@D@std@@V?$allocator@D@2@@std@@PEAV?$Persistent@VFunctionTemplate@v8@@V?$NonCopyablePersistentTraits@VFunctionTemplate@v8@@@2@@Nan@@@std@@PEAX@2@@?$_Tree@V?$_Tmap_traits@V?$basic_string@DU?$char_traits@D@std@@V?$allocator@D@2@@std@@PEAV?$Persistent@VFunctionTemplate@v8@@V?$NonCopyablePersistentTraits@VFunctionTemplate@v8@@@2@@Nan@@U?$less@V?$basic_string@DU?$char_traits@D@std@@V?$allocator@D@2@@std@@@2@V?$allocator@U?$pair@$$CBV?$basic_string@DU?$char_traits@D@std@@V?$allocator@D@2@@std@@PEAV?$Persistent@VFunctionTemplate@v8@@V?$NonCopyablePersistentTraits@VFunctionTemplate@v8@@@2@@Nan@@@std@@@2@$0A@@std@@@std@@IEAA?AU?$pair@V?$_Tree_iterator@V?$_Tree_val@U?$_Tree_simple_types@U?$pair@$$CBV?$basic_string@DU?$char_traits@D@std@@V?$allocator@D@2@@std@@PEAV?$Persistent@VFunctionTemplate@v8@@V?$NonCopyablePersistentTraits@VFunctionTemplate@v8@@@2@@Nan@@@std@@@std@@@std@@@std@@_N@1@_NAEAU?$pair@$$CBV?$basic_string@DU?$char_traits@D@std@@V?$allocator@D@2@@std@@PEAV?$Persistent@VFunctionTemplate@v8@@V?$NonCopyablePersistentTraits@VFunctionTemplate@v8@@@2@@Nan@@@1@PEAU?$_Tree_node@U?$pair@$$CBV?$basic_string@DU?$char_traits@D@std@@V?$allocator@D@2@@std@@PEAV?$Persistent@VFunctionTemplate@v8@@V?$NonCopyablePersistentTraits@VFunctionTemplate@v8@@@2@@Nan@@@std@@PEAX@1@@Z 00000001800193d0 f i javaObject.obj
 0001:00018580       ?Call@Callback@Nan@@QEBA?AV?$MaybeLocal@VValue@v8@@@v8@@HQEAV?$Local@VValue@v8@@@4@PEAVAsyncResource@2@@Z 0000000180019580 f i methodCallBaton.obj
 0001:00018680       ??1AsyncWorker@Nan@@UEAA@XZ 0000000180019680 f i methodCallBaton.obj
 0001:00018730       ?WorkComplete@AsyncWorker@Nan@@UEAAXXZ 0000000180019730 f i methodCallBaton.obj
 0001:00018990       ?Destroy@AsyncWorker@Nan@@UEAAXXZ 0000000180019990 f i methodCallBaton.obj
 0001:000189b0       ?HandleOKCallback@AsyncWorker@Nan@@MEAAXXZ 00000001800199b0 f i methodCallBaton.obj
 0001:00018a00       ?HandleErrorCallback@AsyncWorker@Nan@@MEAAXXZ 0000000180019a00 f i methodCallBaton.obj
 0001:00018b70       ??_EAsyncWorker@Nan@@UEAAPEAXI@Z 0000000180019b70 f i * CIL library *:* CIL module *
 0001:00018b70       ??_GAsyncWorker@Nan@@UEAAPEAXI@Z 0000000180019b70 f i methodCallBaton.obj
 0001:00018bb0       ?AsyncExecute@Nan@@YAXPEAUuv_work_s@@@Z 0000000180019bb0 f i methodCallBaton.obj
 0001:00018c30       ?AsyncExecuteComplete@Nan@@YAXPEAUuv_work_s@@@Z 0000000180019c30 f i methodCallBaton.obj
 0001:00018c70       ??0MethodCallBaton@@QEAA@PEAVJava@@PEAV_jobject@@PEAV_jarray@@AEAV?$Local@VValue@v8@@@v8@@@Z 0000000180019c70 f   methodCallBaton.obj
 0001:00018e20       ??_EMethodCallBaton@@UEAAPEAXI@Z 0000000180019e20 f i * CIL library *:* CIL module *
 0001:00018e20       ??_GMethodCallBaton@@UEAAPEAXI@Z 0000000180019e20 f i methodCallBaton.obj
 0001:00018e60       ??1MethodCallBaton@@UEAA@XZ 0000000180019e60 f   methodCallBaton.obj
 0001:00018f70       ?run@MethodCallBaton@@QEAAXXZ 0000000180019f70 f   methodCallBaton.obj
 0001:00018fb0       ?Execute@MethodCallBaton@@MEAAXXZ 0000000180019fb0 f   methodCallBaton.obj
 0001:00019010       ?WorkComplete@MethodCallBaton@@MEAAXXZ 000000018001a010 f   methodCallBaton.obj
 0001:00019150       ?resultsToV8@MethodCallBaton@@IEAA?AV?$Local@VValue@v8@@@v8@@PEAUJNIEnv_@@@Z 000000018001a150 f   methodCallBaton.obj
 0001:00019290       ?ExecuteInternal@NewInstanceBaton@@MEAAXPEAUJNIEnv_@@@Z 000000018001a290 f   methodCallBaton.obj
 0001:000193e0       ?ExecuteInternal@StaticMethodCallBaton@@MEAAXPEAUJNIEnv_@@@Z 000000018001a3e0 f   methodCallBaton.obj
 0001:00019500       ?ExecuteInternal@InstanceMethodCallBaton@@MEAAXPEAUJNIEnv_@@@Z 000000018001a500 f   methodCallBaton.obj
 0001:00019640       ??_GNewInstanceBaton@@UEAAPEAXI@Z 000000018001a640 f i methodCallBaton.obj
 0001:00019640       ??_ENewInstanceBaton@@UEAAPEAXI@Z 000000018001a640 f i * CIL library *:* CIL module *
 0001:000196b0       ??_GStaticMethodCallBaton@@UEAAPEAXI@Z 000000018001a6b0 f i methodCallBaton.obj
 0001:000196b0       ??_EStaticMethodCallBaton@@UEAAPEAXI@Z 000000018001a6b0 f i * CIL library *:* CIL module *
 0001:00019720       ??0InstanceMethodCallBaton@@QEAA@PEAVJava@@PEAVJavaObject@@PEAV_jobject@@PEAV_jarray@@AEAV?$Local@VValue@v8@@@v8@@@Z 000000018001a720 f   methodCallBaton.obj
 0001:000197d0       ??_EInstanceMethodCallBaton@@UEAAPEAXI@Z 000000018001a7d0 f i * CIL library *:* CIL module *
 0001:000197d0       ??_GInstanceMethodCallBaton@@UEAAPEAXI@Z 000000018001a7d0 f i methodCallBaton.obj
 0001:00019900       DllMain                    000000018001a900 f   nodeJavaBridge.obj
 0001:00019900       _get_startup_argv_mode     000000018001a900 f   LIBCMT:argv_mode.obj
 0001:00019910       printf                     000000018001a910 f i utils.obj
 0001:00019970       ?CallLongMethod@JNIEnv_@@QEAA_JPEAV_jobject@@PEAU_jmethodID@@ZZ 000000018001a970 f i utils.obj
 0001:000199a0       ?javaReflectionGetMethods@@YAXPEAUJNIEnv_@@PEAV_jclass@@PEAV?$list@PEAV_jobject@@V?$allocator@PEAV_jobject@@@std@@@std@@_N@Z 000000018001a9a0 f   utils.obj
 0001:00019b50       ?javaToString@@YA?AV?$basic_string@DU?$char_traits@D@std@@V?$allocator@D@2@@std@@PEAUJNIEnv_@@PEAV_jstring@@@Z 000000018001ab50 f   utils.obj
 0001:00019c70       ?javaObjectToString@@YA?AV?$basic_string@DU?$char_traits@D@std@@V?$allocator@D@2@@std@@PEAUJNIEnv_@@PEAV_jobject@@@Z 000000018001ac70 f   utils.obj
 0001:00019d60       ?javaGetEnv@@YAPEAUJNIEnv_@@PEAUJavaVM_@@PEAV_jobject@@@Z 000000018001ad60 f   utils.obj
 0001:00019ed0       ?javaGetType@@YA?AW4_jvalueType@@PEAUJNIEnv_@@PEAV_jclass@@@Z 000000018001aed0 f   utils.obj
 0001:0001a270       ?javaFindClass@@YAPEAV_jclass@@PEAUJNIEnv_@@AEAV?$basic_string@DU?$char_traits@D@std@@V?$allocator@D@2@@std@@@Z 000000018001b270 f   utils.obj
 0001:0001a370       ?javaFindField@@YAPEAV_jobject@@PEAUJNIEnv_@@PEAV_jclass@@AEAV?$basic_string@DU?$char_traits@D@std@@V?$allocator@D@2@@std@@@Z 000000018001b370 f   utils.obj
 0001:0001ab70       ?v8ToJava@@YAPEAV_jobject@@PEAUJNIEnv_@@V?$Local@VValue@v8@@@v8@@@Z 000000018001bb70 f   utils.obj
 0001:0001b0f0       ?checkJavaException@@YAXPEAUJNIEnv_@@@Z 000000018001c0f0 f   utils.obj
 0001:0001b1e0       ?v8ToJava@@YAPEAV_jobjectArray@@PEAUJNIEnv_@@AEBV?$FunctionCallbackInfo@VValue@v8@@@Nan@@HH@Z 000000018001c1e0 f   utils.obj
 0001:0001b2b0       ?javaExceptionToString@@YA?AV?$basic_string@DU?$char_traits@D@std@@V?$allocator@D@2@@std@@PEAUJNIEnv_@@PEAV_jthrowable@@@Z 000000018001c2b0 f   utils.obj
 0001:0001b410       ?javaExceptionToV8@@YA?AV?$Local@VValue@v8@@@v8@@PEAVJava@@PEAUJNIEnv_@@PEAV_jthrowable@@AEBV?$basic_string@DU?$char_traits@D@std@@V?$allocator@D@2@@std@@@Z 000000018001c410 f   utils.obj
 0001:0001b850       ?javaExceptionToV8@@YA?AV?$Local@VValue@v8@@@v8@@PEAVJava@@PEAUJNIEnv_@@AEBV?$basic_string@DU?$char_traits@D@std@@V?$allocator@D@2@@std@@@Z 000000018001c850 f   utils.obj
 0001:0001b8d0       ?javaArrayToV8@@YA?AV?$Local@VValue@v8@@@v8@@PEAVJava@@PEAUJNIEnv_@@PEAV_jobjectArray@@@Z 000000018001c8d0 f   utils.obj
 0001:0001bf50       ?javaToV8@@YA?AV?$Local@VValue@v8@@@v8@@PEAVJava@@PEAUJNIEnv_@@PEAV_jobject@@PEAUDynamicProxyData@@@Z 000000018001cf50 f   utils.obj
 0001:0001c850       ?javaObjectArrayToClasses@@YAPEAV_jobjectArray@@PEAUJNIEnv_@@PEAV1@@Z 000000018001d850 f   utils.obj
 0001:0001c920       ?javaFindMethod@@YAPEAV_jobject@@PEAUJNIEnv_@@PEAV_jclass@@AEAV?$basic_string@DU?$char_traits@D@std@@V?$allocator@D@2@@std@@PEAV_jobjectArray@@@Z 000000018001d920 f   utils.obj
 0001:0001cc90       ?javaFindConstructor@@YAPEAV_jobject@@PEAUJNIEnv_@@PEAV_jclass@@PEAV_jobjectArray@@@Z 000000018001dc90 f   utils.obj
 0001:0001cd60       ?longToJavaLongObj@@YAPEAV_jobject@@PEAUJNIEnv_@@_J@Z 000000018001dd60 f   utils.obj
 0001:0001cdd0       ?dynamicProxyDataVerify@@YAHPEAUDynamicProxyData@@@Z 000000018001ddd0 f   utils.obj
 0001:0001ce10       ?methodNotFoundToString@@YA?AV?$basic_string@DU?$char_traits@D@std@@V?$allocator@D@2@@std@@PEAUJNIEnv_@@PEAV_jclass@@V12@_NAEBV?$FunctionCallbackInfo@VValue@v8@@@Nan@@HH@Z 000000018001de10 f   utils.obj
 0001:0001e010       ?unref@@YAXPEAUDynamicProxyData@@@Z 000000018001f010 f   utils.obj
 0001:0001e0a0       ?javaGetArgsForMethod@@YAPEAV_jarray@@PEAUJNIEnv_@@PEAV_jobject@@PEAV1@@Z 000000018001f0a0 f   utils.obj
 0001:0001e130       ?GetHiddenValue@@YA?AV?$Local@VValue@v8@@@v8@@V?$Local@VObject@v8@@@2@V?$Local@VString@v8@@@2@@Z 000000018001f130 f   utils.obj
 0001:0001e1f0       ?SetHiddenValue@@YAXV?$Local@VObject@v8@@@v8@@V?$Local@VString@v8@@@2@V?$Local@VValue@v8@@@2@@Z 000000018001f1f0 f   utils.obj
 0001:0001e270       ??$_Insert_nohint@AEBV?$basic_string@DU?$char_traits@D@std@@V?$allocator@D@2@@std@@U_Not_a_node_tag@2@@?$_Tree@V?$_Tset_traits@V?$basic_string@DU?$char_traits@D@std@@V?$allocator@D@2@@std@@U?$less@V?$basic_string@DU?$char_traits@D@std@@V?$allocator@D@2@@std@@@2@V?$allocator@V?$basic_string@DU?$char_traits@D@std@@V?$allocator@D@2@@std@@@2@$0A@@std@@@std@@IEAA?AU?$pair@V?$_Tree_const_iterator@V?$_Tree_val@U?$_Tree_simple_types@V?$basic_string@DU?$char_traits@D@std@@V?$allocator@D@2@@std@@@std@@@std@@@std@@_N@1@_NAEBV?$basic_string@DU?$char_traits@D@std@@V?$allocator@D@2@@1@U_Not_a_node_tag@1@@Z 000000018001f270 f i utils.obj
 0001:0001e420       ??$_Erase_tree@V?$allocator@U?$_Tree_node@V?$basic_string@DU?$char_traits@D@std@@V?$allocator@D@2@@std@@PEAX@std@@@std@@@?$_Tree_val@U?$_Tree_simple_types@V?$basic_string@DU?$char_traits@D@std@@V?$allocator@D@2@@std@@@std@@@std@@QEAAXAEAV?$allocator@U?$_Tree_node@V?$basic_string@DU?$char_traits@D@std@@V?$allocator@D@2@@std@@PEAX@std@@@1@PEAU?$_Tree_node@V?$basic_string@DU?$char_traits@D@std@@V?$allocator@D@2@@std@@PEAX@1@@Z 000000018001f420 f i utils.obj
 0001:0001e4e0       ??$_Insert_at@AEBV?$basic_string@DU?$char_traits@D@std@@V?$allocator@D@2@@std@@U_Not_a_node_tag@2@@?$_Tree@V?$_Tset_traits@V?$basic_string@DU?$char_traits@D@std@@V?$allocator@D@2@@std@@U?$less@V?$basic_string@DU?$char_traits@D@std@@V?$allocator@D@2@@std@@@2@V?$allocator@V?$basic_string@DU?$char_traits@D@std@@V?$allocator@D@2@@std@@@2@$0A@@std@@@std@@IEAA?AV?$_Tree_const_iterator@V?$_Tree_val@U?$_Tree_simple_types@V?$basic_string@DU?$char_traits@D@std@@V?$allocator@D@2@@std@@@std@@@std@@@1@_NPEAU?$_Tree_node@V?$basic_string@DU?$char_traits@D@std@@V?$allocator@D@2@@std@@PEAX@1@AEBV?$basic_string@DU?$char_traits@D@std@@V?$allocator@D@2@@1@U_Not_a_node_tag@1@@Z 000000018001f4e0 f i utils.obj
 0001:0001e804       __imp_load_uv_queue_work   000000018001f804 f   node:node.exe
 0001:0001e810       __tailMerge_node_exe       000000018001f810     node:node.exe
 0001:0001e889       __imp_load_?Global@Context@v8@@QEAA?AV?$Local@VObject@v8@@@2@XZ 000000018001f889 f   node:node.exe
 0001:0001e895       __imp_load_?Value@External@v8@@QEBAPEAXXZ 000000018001f895 f   node:node.exe
 0001:0001e8a1       __imp_load_?New@External@v8@@SA?AV?$Local@VExternal@v8@@@2@PEAVIsolate@2@PEAX@Z 000000018001f8a1 f   node:node.exe
 0001:0001e8ad       __imp_load_?New@Signature@v8@@SA?AV?$Local@VSignature@v8@@@2@PEAVIsolate@2@V?$Local@VFunctionTemplate@v8@@@2@@Z 000000018001f8ad f   node:node.exe
 0001:0001e8b9       __imp_load_?ThrowException@Isolate@v8@@QEAA?AV?$Local@VValue@v8@@@2@V32@@Z 000000018001f8b9 f   node:node.exe
 0001:0001e8c5       __imp_load_?GetCurrentContext@Isolate@v8@@QEAA?AV?$Local@VContext@v8@@@2@XZ 000000018001f8c5 f   node:node.exe
 0001:0001e8d1       __imp_load_?GetCurrent@Isolate@v8@@SAPEAV12@XZ 000000018001f8d1 f   node:node.exe
 0001:0001e8dd       __imp_load_?CreateHandle@HandleScope@v8@@KAPEAPEAVObject@internal@2@PEAVIsolate@42@PEAV342@@Z 000000018001f8dd f   node:node.exe
 0001:0001e8e9       __imp_load_?CreateHandle@HandleScope@v8@@CAPEAPEAVObject@internal@2@PEAVHeapObject@42@PEAV342@@Z 000000018001f8e9 f   node:node.exe
 0001:0001e8f5       __imp_load_??1HandleScope@v8@@QEAA@XZ 000000018001f8f5 f   node:node.exe
 0001:0001e901       __imp_load_??0HandleScope@v8@@QEAA@PEAVIsolate@1@@Z 000000018001f901 f   node:node.exe
 0001:0001e90d       __imp_load_?Set@Template@v8@@QEAAXV?$Local@VName@v8@@@2@V?$Local@VData@v8@@@2@W4PropertyAttribute@2@@Z 000000018001f90d f   node:node.exe
 0001:0001e919       __imp_load_?Error@Exception@v8@@SA?AV?$Local@VValue@v8@@@2@V?$Local@VString@v8@@@2@@Z 000000018001f919 f   node:node.exe
 0001:0001e925       __imp_load_?TypeError@Exception@v8@@SA?AV?$Local@VValue@v8@@@2@V?$Local@VString@v8@@@2@@Z 000000018001f925 f   node:node.exe
 0001:0001e931       __imp_load_?New@Array@v8@@SA?AV?$Local@VArray@v8@@@2@PEAVIsolate@2@H@Z 000000018001f931 f   node:node.exe
 0001:0001e93d       __imp_load_?Length@Array@v8@@QEBAIXZ 000000018001f93d f   node:node.exe
 0001:0001e949       __imp_load_?SetClassName@FunctionTemplate@v8@@QEAAXV?$Local@VString@v8@@@2@@Z 000000018001f949 f   node:node.exe
 0001:0001e955       __imp_load_?PrototypeTemplate@FunctionTemplate@v8@@QEAA?AV?$Local@VObjectTemplate@v8@@@2@XZ 000000018001f955 f   node:node.exe
 0001:0001e961       __imp_load_?InstanceTemplate@FunctionTemplate@v8@@QEAA?AV?$Local@VObjectTemplate@v8@@@2@XZ 000000018001f961 f   node:node.exe
 0001:0001e96d       __imp_load_?GetFunction@FunctionTemplate@v8@@QEAA?AV?$Local@VFunction@v8@@@2@XZ 000000018001f96d f   node:node.exe
 0001:0001e979       __imp_load_?New@FunctionTemplate@v8@@SA?AV?$Local@VFunctionTemplate@v8@@@2@PEAVIsolate@2@P6AXAEBV?$FunctionCallbackInfo@VValue@v8@@@2@@ZV?$Local@VValue@v8@@@2@V?$Local@VSignature@v8@@@2@HW4ConstructorBehavior@2@@Z 000000018001f979 f   node:node.exe
 0001:0001e985       __imp_load_?ToLocalEmpty@V8@v8@@CAXXZ 000000018001f985 f   node:node.exe
 0001:0001e991       __imp_load_?FromJustIsNothing@V8@v8@@CAXXZ 000000018001f991 f   node:node.exe
 0001:0001e99d       __imp_load_?ClearWeak@V8@v8@@CAPEAXPEAPEAVObject@internal@2@@Z 000000018001f99d f   node:node.exe
 0001:0001e9a9       __imp_load_?MakeWeak@V8@v8@@CAXPEAPEAVObject@internal@2@PEAXP6AXAEBV?$WeakCallbackInfo@X@2@@ZW4WeakCallbackType@2@@Z 000000018001f9a9 f   node:node.exe
 0001:0001e9b5       __imp_load_?DisposeGlobal@V8@v8@@CAXPEAPEAVObject@internal@2@@Z 000000018001f9b5 f   node:node.exe
 0001:0001e9c1       __imp_load_?GlobalizeReference@V8@v8@@CAPEAPEAVObject@internal@2@PEAVIsolate@42@PEAPEAV342@@Z 000000018001f9c1 f   node:node.exe
 0001:0001e9cd       __imp_load_?Int32Value@Value@v8@@QEBA?AV?$Maybe@H@2@V?$Local@VContext@v8@@@2@@Z 000000018001f9cd f   node:node.exe
 0001:0001e9d9       __imp_load_?IntegerValue@Value@v8@@QEBA?AV?$Maybe@_J@2@V?$Local@VContext@v8@@@2@@Z 000000018001f9d9 f   node:node.exe
 0001:0001e9e5       __imp_load_?NumberValue@Value@v8@@QEBA?AV?$Maybe@N@2@V?$Local@VContext@v8@@@2@@Z 000000018001f9e5 f   node:node.exe
 0001:0001e9f1       __imp_load_?IsNativeError@Value@v8@@QEBA_NXZ 000000018001f9f1 f   node:node.exe
 0001:0001e9fd       __imp_load_?IsNumber@Value@v8@@QEBA_NXZ 000000018001f9fd f   node:node.exe
 0001:0001ea09       __imp_load_?IsObject@Value@v8@@QEBA_NXZ 000000018001fa09 f   node:node.exe
 0001:0001ea15       __imp_load_?IsArray@Value@v8@@QEBA_NXZ 000000018001fa15 f   node:node.exe
 0001:0001ea21       __imp_load_?IsFunction@Value@v8@@QEBA_NXZ 000000018001fa21 f   node:node.exe
 0001:0001ea2d       __imp_load_?Get@Message@v8@@QEBA?AV?$Local@VString@v8@@@2@XZ 000000018001fa2d f   node:node.exe
 0001:0001ea39       __imp_load_?SetCaptureMessage@TryCatch@v8@@QEAAX_N@Z 000000018001fa39 f   node:node.exe
 0001:0001ea45       __imp_load_?Reset@TryCatch@v8@@QEAAXXZ 000000018001fa45 f   node:node.exe
 0001:0001ea51       __imp_load_?Message@TryCatch@v8@@QEBA?AV?$Local@VMessage@v8@@@2@XZ 000000018001fa51 f   node:node.exe
 0001:0001ea5d       __imp_load_?HasCaught@TryCatch@v8@@QEBA_NXZ 000000018001fa5d f   node:node.exe
 0001:0001ea69       __imp_load_??1TryCatch@v8@@QEAA@XZ 000000018001fa69 f   node:node.exe
 0001:0001ea75       __imp_load_??0TryCatch@v8@@QEAA@PEAVIsolate@1@@Z 000000018001fa75 f   node:node.exe
 0001:0001ea81       __imp_load_?Escape@EscapableHandleScope@v8@@AEAAPEAPEAVObject@internal@2@PEAPEAV342@@Z 000000018001fa81 f   node:node.exe
 0001:0001ea8d       __imp_load_??0EscapableHandleScope@v8@@QEAA@PEAVIsolate@1@@Z 000000018001fa8d f   node:node.exe
 0001:0001ea99       __imp_load_??1Utf8Value@String@v8@@QEAA@XZ 000000018001fa99 f   node:node.exe
 0001:0001eaa5       __imp_load_??0Utf8Value@String@v8@@QEAA@V?$Local@VValue@v8@@@2@@Z 000000018001faa5 f   node:node.exe
 0001:0001eab1       __imp_load_?NewFromUtf8@String@v8@@SA?AV?$MaybeLocal@VString@v8@@@2@PEAVIsolate@2@PEBDW4NewStringType@2@H@Z 000000018001fab1 f   node:node.exe
 0001:0001eabd       __imp_load_?Length@String@v8@@QEBAHXZ 000000018001fabd f   node:node.exe
 0001:0001eac9       __imp_load_?SlowGetAlignedPointerFromInternalField@Object@v8@@AEAAPEAXH@Z 000000018001fac9 f   node:node.exe
 0001:0001ead5       __imp_load_?SlowGetInternalField@Object@v8@@AEAA?AV?$Local@VValue@v8@@@2@H@Z 000000018001fad5 f   node:node.exe
 0001:0001eae1       __imp_load_?New@Object@v8@@SA?AV?$Local@VObject@v8@@@2@PEAVIsolate@2@@Z 000000018001fae1 f   node:node.exe
 0001:0001eaed       __imp_load_?SetAlignedPointerInInternalField@Object@v8@@QEAAXHPEAX@Z 000000018001faed f   node:node.exe
 0001:0001eaf9       __imp_load_?SetInternalField@Object@v8@@QEAAXHV?$Local@VValue@v8@@@2@@Z 000000018001faf9 f   node:node.exe
 0001:0001eb05       __imp_load_?InternalFieldCount@Object@v8@@QEAAHXZ 000000018001fb05 f   node:node.exe
 0001:0001eb11       __imp_load_?SetAccessor@Object@v8@@QEAA?AV?$Maybe@_N@2@V?$Local@VContext@v8@@@2@V?$Local@VName@v8@@@2@P6AX1AEBV?$PropertyCallbackInfo@VValue@v8@@@2@@ZP6AX1V?$Local@VValue@v8@@@2@AEBV?$PropertyCallbackInfo@X@2@@ZV?$MaybeLocal@VValue@v8@@@2@W4AccessControl@2@W4PropertyAttribute@2@@Z 000000018001fb11 f   node:node.exe
 0001:0001eb1d       __imp_load_?Get@Object@v8@@QEAA?AV?$Local@VValue@v8@@@2@V32@@Z 000000018001fb1d f   node:node.exe
 0001:0001eb29       __imp_load_?Get@Object@v8@@QEAA?AV?$Local@VValue@v8@@@2@I@Z 000000018001fb29 f   node:node.exe
 0001:0001eb35       __imp_load_?Set@Object@v8@@QEAA_NV?$Local@VValue@v8@@@2@0@Z 000000018001fb35 f   node:node.exe
 0001:0001eb41       __imp_load_?Call@Function@v8@@QEAA?AV?$Local@VValue@v8@@@2@V32@HQEAV32@@Z 000000018001fb41 f   node:node.exe
 0001:0001eb4d       __imp_load_?SetInternalFieldCount@ObjectTemplate@v8@@QEAAXH@Z 000000018001fb4d f   node:node.exe
 0001:0001eb59       __imp_load_?NewInstance@ObjectTemplate@v8@@QEAA?AV?$MaybeLocal@VObject@v8@@@2@V?$Local@VContext@v8@@@2@@Z 000000018001fb59 f   node:node.exe
 0001:0001eb65       __imp_load_?New@ObjectTemplate@v8@@SA?AV?$Local@VObjectTemplate@v8@@@2@PEAVIsolate@2@V?$Local@VFunctionTemplate@v8@@@2@@Z 000000018001fb65 f   node:node.exe
 0001:0001eb71       __imp_load_uv_default_loop 000000018001fb71 f   node:node.exe
 0001:0001eb7d       __imp_load_?ToString@Value@v8@@QEBA?AV?$Local@VString@v8@@@2@XZ 000000018001fb7d f   node:node.exe
 0001:0001eb89       __imp_load_?New@Integer@v8@@SA?AV?$Local@VInteger@v8@@@2@PEAVIsolate@2@H@Z 000000018001fb89 f   node:node.exe
 0001:0001eb95       __imp_load_?GetFunction@FunctionTemplate@v8@@QEAA?AV?$MaybeLocal@VFunction@v8@@@2@V?$Local@VContext@v8@@@2@@Z 000000018001fb95 f   node:node.exe
 0001:0001eba1       __imp_load_?SetHandler@ObjectTemplate@v8@@QEAAXAEBUIndexedPropertyHandlerConfiguration@2@@Z 000000018001fba1 f   node:node.exe
 0001:0001ebad       __imp_load_?SetAccessor@ObjectTemplate@v8@@QEAAXV?$Local@VName@v8@@@2@P6AX0AEBV?$PropertyCallbackInfo@VValue@v8@@@2@@ZP6AX0V?$Local@VValue@v8@@@2@AEBV?$PropertyCallbackInfo@X@2@@Z3W4AccessControl@2@W4PropertyAttribute@2@V?$Local@VAccessorSignature@v8@@@2@@Z 000000018001fbad f   node:node.exe
 0001:0001ebb9       __imp_load_?NewInstance@Function@v8@@QEBA?AV?$MaybeLocal@VObject@v8@@@2@V?$Local@VContext@v8@@@2@@Z 000000018001fbb9 f   node:node.exe
 0001:0001ebc5       __imp_load_?MakeCallback@node@@YA?AV?$Local@VValue@v8@@@v8@@PEAVIsolate@3@V?$Local@VObject@v8@@@3@V?$Local@VFunction@v8@@@3@HPEAV23@@Z 000000018001fbc5 f   node:node.exe
 0001:0001ebd1       __imp_load_?GetCurrentEventLoop@node@@YAPEAUuv_loop_s@@PEAVIsolate@v8@@@Z 000000018001fbd1 f   node:node.exe
 0001:0001ebdd       __imp_load_node_module_register 000000018001fbdd f   node:node.exe
 0001:0001ebe9       __imp_load_?New@Uint8Array@v8@@SA?AV?$Local@VUint8Array@v8@@@2@V?$Local@VArrayBuffer@v8@@@2@_K1@Z 000000018001fbe9 f   node:node.exe
 0001:0001ebf5       __imp_load_?ForApi@Private@v8@@SA?AV?$Local@VPrivate@v8@@@2@PEAVIsolate@2@V?$Local@VString@v8@@@2@@Z 000000018001fbf5 f   node:node.exe
 0001:0001ec01       __imp_load_?New@Int8Array@v8@@SA?AV?$Local@VInt8Array@v8@@@2@V?$Local@VArrayBuffer@v8@@@2@_K1@Z 000000018001fc01 f   node:node.exe
 0001:0001ec0d       __imp_load_?New@NumberObject@v8@@SA?AV?$Local@VValue@v8@@@2@PEAVIsolate@2@N@Z 000000018001fc0d f   node:node.exe
 0001:0001ec19       __imp_load_?New@Float32Array@v8@@SA?AV?$Local@VFloat32Array@v8@@@2@V?$Local@VArrayBuffer@v8@@@2@_K1@Z 000000018001fc19 f   node:node.exe
 0001:0001ec25       __imp_load_?GetContents@ArrayBuffer@v8@@QEAA?AVContents@12@XZ 000000018001fc25 f   node:node.exe
 0001:0001ec31       __imp_load_?New@ArrayBuffer@v8@@SA?AV?$Local@VArrayBuffer@v8@@@2@PEAVIsolate@2@_K@Z 000000018001fc31 f   node:node.exe
 0001:0001ec3d       __imp_load_?BooleanValue@Value@v8@@QEBA?AV?$Maybe@_N@2@V?$Local@VContext@v8@@@2@@Z 000000018001fc3d f   node:node.exe
 0001:0001ec49       __imp_load_?ToInteger@Value@v8@@QEBA?AV?$MaybeLocal@VInteger@v8@@@2@V?$Local@VContext@v8@@@2@@Z 000000018001fc49 f   node:node.exe
 0001:0001ec55       __imp_load_?IsUint32@Value@v8@@QEBA_NXZ 000000018001fc55 f   node:node.exe
 0001:0001ec61       __imp_load_?IsInt32@Value@v8@@QEBA_NXZ 000000018001fc61 f   node:node.exe
 0001:0001ec6d       __imp_load_?IsBoolean@Value@v8@@QEBA_NXZ 000000018001fc6d f   node:node.exe
 0001:0001ec79       __imp_load_?New@Float64Array@v8@@SA?AV?$Local@VFloat64Array@v8@@@2@V?$Local@VArrayBuffer@v8@@@2@_K1@Z 000000018001fc79 f   node:node.exe
 0001:0001ec85       __imp_load_?New@Uint16Array@v8@@SA?AV?$Local@VUint16Array@v8@@@2@V?$Local@VArrayBuffer@v8@@@2@_K1@Z 000000018001fc85 f   node:node.exe
 0001:0001ec91       __imp_load_??1Value@String@v8@@QEAA@XZ 000000018001fc91 f   node:node.exe
 0001:0001ec9d       __imp_load_??0Value@String@v8@@QEAA@V?$Local@VValue@v8@@@2@@Z 000000018001fc9d f   node:node.exe
 0001:0001eca9       __imp_load_?NewFromTwoByte@String@v8@@SA?AV?$MaybeLocal@VString@v8@@@2@PEAVIsolate@2@PEBGW4NewStringType@2@H@Z 000000018001fca9 f   node:node.exe
 0001:0001ecb5       __imp_load_?New@Int32Array@v8@@SA?AV?$Local@VInt32Array@v8@@@2@V?$Local@VArrayBuffer@v8@@@2@_K1@Z 000000018001fcb5 f   node:node.exe
 0001:0001ecc1       __imp_load_?New@Number@v8@@SA?AV?$Local@VNumber@v8@@@2@PEAVIsolate@2@N@Z 000000018001fcc1 f   node:node.exe
 0001:0001eccd       __imp_load_?GetPrivate@Object@v8@@QEAA?AV?$MaybeLocal@VValue@v8@@@2@V?$Local@VContext@v8@@@2@V?$Local@VPrivate@v8@@@2@@Z 000000018001fccd f   node:node.exe
 0001:0001ecd9       __imp_load_?SetPrivate@Object@v8@@QEAA?AV?$Maybe@_N@2@V?$Local@VContext@v8@@@2@V?$Local@VPrivate@v8@@@2@V?$Local@VValue@v8@@@2@@Z 000000018001fcd9 f   node:node.exe
 0001:0001ece5       __imp_load_?HasPrivate@Object@v8@@QEAA?AV?$Maybe@_N@2@V?$Local@VContext@v8@@@2@V?$Local@VPrivate@v8@@@2@@Z 000000018001fce5 f   node:node.exe
 0001:0001ecf1       __imp_load_?Set@Object@v8@@QEAA_NIV?$Local@VValue@v8@@@2@@Z 000000018001fcf1 f   node:node.exe
 0001:0001ecfd       __imp_load_?New@Int16Array@v8@@SA?AV?$Local@VInt16Array@v8@@@2@V?$Local@VArrayBuffer@v8@@@2@_K1@Z 000000018001fcfd f   node:node.exe
 0001:0001ed0c       ??0_Init_locks@std@@QEAA@XZ 000000018001fd0c f   libcpmt:xlock.obj
 0001:0001ed58       ??0_Lockit@std@@QEAA@H@Z   000000018001fd58 f   libcpmt:xlock.obj
 0001:0001ed94       ??1_Init_locks@std@@QEAA@XZ 000000018001fd94 f   libcpmt:xlock.obj
 0001:0001edd8       ??1_Lockit@std@@QEAA@XZ    000000018001fdd8 f   libcpmt:xlock.obj
 0001:0001ee0c       ??0exception@std@@QEAA@AEBV01@@Z 000000018001fe0c f i libcpmt:xonce.obj
 0001:0001ee40       ??0runtime_error@std@@QEAA@AEBV01@@Z 000000018001fe40 f i libcpmt:xonce.obj
 0001:0001ee7c       ??_Elogic_error@std@@UEAAPEAXI@Z 000000018001fe7c f i libcpmt:xthrow.obj
 0001:0001ee7c       ??_Ebad_alloc@std@@UEAAPEAXI@Z 000000018001fe7c f i libcpmt:xthrow.obj
 0001:0001ee7c       ??_Elength_error@std@@UEAAPEAXI@Z 000000018001fe7c f i libcpmt:xthrow.obj
 0001:0001ee7c       ??_Ebad_array_new_length@std@@UEAAPEAXI@Z 000000018001fe7c f i LIBCMT:throw_bad_alloc.obj
 0001:0001ee7c       ??_Gexception@std@@UEAAPEAXI@Z 000000018001fe7c f i libcpmt:xonce.obj
 0001:0001ee7c       ??_Gbad_array_new_length@std@@UEAAPEAXI@Z 000000018001fe7c f i LIBCMT:throw_bad_alloc.obj
 0001:0001ee7c       ??_Eexception@std@@UEAAPEAXI@Z 000000018001fe7c f i libcpmt:xonce.obj
 0001:0001ee7c       ??_Gout_of_range@std@@UEAAPEAXI@Z 000000018001fe7c f i libcpmt:xthrow.obj
 0001:0001ee7c       ??_Gbad_exception@std@@UEAAPEAXI@Z 000000018001fe7c f i libvcruntime:frame.obj
 0001:0001ee7c       ??_Ebad_exception@std@@UEAAPEAXI@Z 000000018001fe7c f i libvcruntime:frame.obj
 0001:0001ee7c       ??_Glogic_error@std@@UEAAPEAXI@Z 000000018001fe7c f i libcpmt:xthrow.obj
 0001:0001ee7c       ??_Glength_error@std@@UEAAPEAXI@Z 000000018001fe7c f i libcpmt:xthrow.obj
 0001:0001ee7c       ??_Gbad_alloc@std@@UEAAPEAXI@Z 000000018001fe7c f i libcpmt:xthrow.obj
 0001:0001ee7c       ??_Eout_of_range@std@@UEAAPEAXI@Z 000000018001fe7c f i libcpmt:xthrow.obj
 0001:0001eec0       ?_Execute_once@std@@YAHAEAUonce_flag@1@P6AHPEAX1PEAPEAX@Z1@Z 000000018001fec0 f   libcpmt:xonce.obj
 0001:0001eec8       ?what@exception@std@@UEBAPEBDXZ 000000018001fec8 f i libcpmt:xonce.obj
 0001:0001eedc       ??0bad_alloc@std@@QEAA@AEBV01@@Z 000000018001fedc f i libcpmt:xthrow.obj
 0001:0001ef18       ??0bad_alloc@std@@QEAA@XZ  000000018001ff18 f i libcpmt:xthrow.obj
 0001:0001ef38       ??0length_error@std@@QEAA@AEBV01@@Z 000000018001ff38 f i libcpmt:xthrow.obj
 0001:0001ef74       ??0length_error@std@@QEAA@PEBD@Z 000000018001ff74 f i libcpmt:xthrow.obj
 0001:0001efbc       ??0logic_error@std@@QEAA@AEBV01@@Z 000000018001ffbc f i libcpmt:xthrow.obj
 0001:0001eff8       ??0out_of_range@std@@QEAA@AEBV01@@Z 000000018001fff8 f i libcpmt:xthrow.obj
 0001:0001f034       ??0out_of_range@std@@QEAA@PEBD@Z 0000000180020034 f i libcpmt:xthrow.obj
 0001:0001f07c       ??0runtime_error@std@@QEAA@PEBD@Z 000000018002007c f i libcpmt:xthrow.obj
 0001:0001f0c4       ??1bad_exception@std@@UEAA@XZ 00000001800200c4 f i libvcruntime:frame.obj
 0001:0001f0c4       ??1bad_alloc@std@@UEAA@XZ  00000001800200c4 f i libcpmt:xthrow.obj
 0001:0001f0c4       ??1bad_array_new_length@std@@UEAA@XZ 00000001800200c4 f i LIBCMT:throw_bad_alloc.obj
 0001:0001f0c4       ??1length_error@std@@UEAA@XZ 00000001800200c4 f i libcpmt:xthrow.obj
 0001:0001f0c4       ??1out_of_range@std@@UEAA@XZ 00000001800200c4 f i libcpmt:xthrow.obj
 0001:0001f0d8       ?__scrt_throw_std_bad_alloc@@YAXXZ 00000001800200d8 f   LIBCMT:throw_bad_alloc.obj
 0001:0001f0d8       ?_Xbad_alloc@std@@YAXXZ    00000001800200d8 f   libcpmt:xthrow.obj
 0001:0001f0f8       ?_Xlength_error@std@@YAXPEBD@Z 00000001800200f8 f   libcpmt:xthrow.obj
 0001:0001f11c       ?_Xout_of_range@std@@YAXPEBD@Z 000000018002011c f   libcpmt:xthrow.obj
 0001:0001f140       ?_Xruntime_error@std@@YAXPEBD@Z 0000000180020140 f   libcpmt:xthrow.obj
 0001:0001f164       ??4?$_Yarn@D@std@@QEAAAEAV01@PEBD@Z 0000000180020164 f i libcpmt:locale0.obj
 0001:0001f1dc       ??_E_Locimp@locale@std@@MEAAPEAXI@Z 00000001800201dc f i libcpmt:locale0.obj
 0001:0001f1dc       ??_G_Locimp@locale@std@@MEAAPEAXI@Z 00000001800201dc f i libcpmt:locale0.obj
 0001:0001f248       ?_Facet_Register@std@@YAXPEAV_Facet_base@1@@Z 0000000180020248 f   libcpmt:locale0.obj
 0001:0001f280       ?_Getgloballocale@locale@std@@CAPEAV_Locimp@12@XZ 0000000180020280 f   libcpmt:locale0.obj
 0001:0001f288       ?_Init@locale@std@@CAPEAV_Locimp@12@_N@Z 0000000180020288 f   libcpmt:locale0.obj
 0001:0001f334       ?_Locimp_dtor@_Locimp@locale@std@@CAXPEAV123@@Z 0000000180020334 f   libcpmt:locale0.obj
 0001:0001f3b0       ?_Locinfo_ctor@_Locinfo@std@@SAXPEAV12@PEBD@Z 00000001800203b0 f   libcpmt:locale0.obj
 0001:0001f41c       ?_Locinfo_dtor@_Locinfo@std@@SAXPEAV12@@Z 000000018002041c f   libcpmt:locale0.obj
 0001:0001f438       ?_New_Locimp@_Locimp@locale@std@@CAPEAV123@_N@Z 0000000180020438 f   libcpmt:locale0.obj
 0001:0001f4a8       ?_Setgloballocale@locale@std@@CAXPEAX@Z 00000001800204a8 f   libcpmt:locale0.obj
 0001:0001f4dc       _Deletegloballocale        00000001800204dc f   libcpmt:locale0.obj
 0001:0001f54c       ?_Ios_base_dtor@ios_base@std@@CAXPEAV12@@Z 000000018002054c f   libcpmt:ios.obj
 0001:0001f5c4       ?_Tidy@ios_base@std@@AEAAXXZ 00000001800205c4 f i libcpmt:ios.obj
 0001:0001f650       ?_Syserror_map@std@@YAPEBDH@Z 0000000180020650 f   libcpmt:syserror.obj
 0001:0001f678       _Getctype                  0000000180020678 f   libcpmt:_tolower.obj
 0001:0001f738       _Tolower                   0000000180020738 f   libcpmt:_tolower.obj
 0001:0001f868       _Getcvt                    0000000180020868 f   libcpmt:xwctomb.obj
 0001:0001f900       _Toupper                   0000000180020900 f   libcpmt:_toupper.obj
 0001:0001fa40       _Mtxdst                    0000000180020a40 f   libcpmt:xmtx.obj
 0001:0001fa48       _Mtxinit                   0000000180020a48 f   libcpmt:xmtx.obj
 0001:0001fa58       _Mtxlock                   0000000180020a58 f   libcpmt:xmtx.obj
 0001:0001fa60       _Mtxunlock                 0000000180020a60 f   libcpmt:xmtx.obj
 0001:0001ff38       __crtInitOnceExecuteOnce   0000000180020f38 f   libcpmt:winapisupp.obj
 0001:00020004       __crtInitializeCriticalSectionEx 0000000180021004 f   libcpmt:winapisupp.obj
 0001:00020034       ?_Atexit@@YAXP6AXXZ@Z      0000000180021034 f   libcpmt:iosptrs.obj
 0001:00020070       __crtLCMapStringA          0000000180021070 f   libcpmt:StlLCMapStringA.obj
 0001:00020324       GetTableIndexFromLocaleName 0000000180021324 f   libcpmt:winapinls.obj
 0001:000203b4       __crtDownlevelLocaleNameToLCID 00000001800213b4 f   libcpmt:winapinls.obj
 0001:000203e8       __crtLCMapStringEx         00000001800213e8 f   libcpmt:winapinls.obj
 0001:00020484       __wcsnicmp_ascii           0000000180021484 f   libcpmt:winapinls.obj
 0001:00020500       __security_check_cookie    0000000180021500 f   LIBCMT:amdsecgs.obj
 0001:00020524       ??_V@YAXPEAX@Z             0000000180021524 f   LIBCMT:delete_array.obj
 0001:00020524       ??3@YAXPEAX_K@Z            0000000180021524 f   LIBCMT:delete_scalar_size.obj
 0001:0002052c       ??2@YAPEAX_K@Z             000000018002152c f   LIBCMT:new_scalar.obj
 0001:00020568       __scrt_acquire_startup_lock 0000000180021568 f   LIBCMT:utility.obj
 0001:000205a4       __scrt_dllmain_after_initialize_c 00000001800215a4 f   LIBCMT:utility.obj
 0001:000205d8       __scrt_dllmain_before_initialize_c 00000001800215d8 f   LIBCMT:utility.obj
 0001:000205f0       __scrt_dllmain_crt_thread_attach 00000001800215f0 f   LIBCMT:utility.obj
 0001:00020618       __scrt_dllmain_crt_thread_detach 0000000180021618 f   LIBCMT:utility.obj
 0001:00020630       __scrt_dllmain_exception_filter 0000000180021630 f   LIBCMT:utility.obj
 0001:00020690       __scrt_dllmain_uninitialize_c 0000000180021690 f   LIBCMT:utility.obj
 0001:000206c0       __scrt_dllmain_uninitialize_critical 00000001800216c0 f   LIBCMT:utility.obj
 0001:000206d4       __scrt_initialize_crt      00000001800216d4 f   LIBCMT:utility.obj
 0001:00020720       __scrt_initialize_onexit_tables 0000000180021720 f   LIBCMT:utility.obj
 0001:000207d0       __scrt_is_nonwritable_in_current_image 00000001800217d0 f   LIBCMT:utility.obj
 0001:00020868       __scrt_release_startup_lock 0000000180021868 f   LIBCMT:utility.obj
 0001:0002088c       __scrt_uninitialize_crt    000000018002188c f   LIBCMT:utility.obj
 0001:000208b8       _onexit                    00000001800218b8 f   LIBCMT:utility.obj
 0001:00020908       atexit                     0000000180021908 f   LIBCMT:utility.obj
 0001:00020920       ??_U@YAPEAX_K@Z            0000000180021920 f   LIBCMT:new_array.obj
 0001:00020c48       _DllMainCRTStartup         0000000180021c48 f   LIBCMT:dll_dllmain.obj
 0001:00020c88       __GSHandlerCheck           0000000180021c88 f   LIBCMT:gshandler.obj
 0001:00020ca8       __GSHandlerCheckCommon     0000000180021ca8 f   LIBCMT:gshandler.obj
 0001:00020d04       __GSHandlerCheck_EH        0000000180021d04 f   LIBCMT:gshandlereh.obj
 0001:00020d84       ??_Gtype_info@@UEAAPEAXI@Z 0000000180021d84 f i LIBCMT:std_type_info_static.obj
 0001:00020d84       ??_Etype_info@@UEAAPEAXI@Z 0000000180021d84 f i LIBCMT:std_type_info_static.obj
 0001:00020dc0       __chkstk                   0000000180021dc0 f   LIBCMT:chkstk.obj
 0001:00020dc0       _alloca_probe              0000000180021dc0 f   LIBCMT:chkstk.obj
 0001:00020e14       __raise_securityfailure    0000000180021e14 f   LIBCMT:gs_report.obj
 0001:00020e48       __report_gsfailure         0000000180021e48 f   LIBCMT:gs_report.obj
 0001:00020f1c       __report_rangecheckfailure 0000000180021f1c f   LIBCMT:gs_report.obj
 0001:00020f30       __report_securityfailure   0000000180021f30 f   LIBCMT:gs_report.obj
 0001:000210b0       ??3@YAXPEAX@Z              00000001800220b0 f   LIBCMT:delete_scalar.obj
 0001:000210b8       ??0bad_array_new_length@std@@QEAA@AEBV01@@Z 00000001800220b8 f i LIBCMT:throw_bad_alloc.obj
 0001:000210f4       ??0bad_array_new_length@std@@QEAA@XZ 00000001800220f4 f i LIBCMT:throw_bad_alloc.obj
 0001:00021114       ?__scrt_throw_std_bad_array_new_length@@YAXXZ 0000000180022114 f   LIBCMT:throw_bad_alloc.obj
 0001:00021134       __isa_available_init       0000000180022134 f   LIBCMT:cpu_disp.obj
 0001:000212b0       __scrt_is_ucrt_dll_in_use  00000001800222b0 f   LIBCMT:ucrt_detection.obj
 0001:000212bc       __crt_debugger_hook        00000001800222bc f   LIBCMT:utility_desktop.obj
 0001:000212c4       __scrt_fastfail            00000001800222c4 f   LIBCMT:utility_desktop.obj
 0001:00021410       __security_init_cookie     0000000180022410 f   LIBCMT:gs_support.obj
 0001:000214bc       ?__scrt_initialize_type_info@@YAXXZ 00000001800224bc f   LIBCMT:tncleanup.obj
 0001:000214cc       ?__scrt_uninitialize_type_info@@YAXXZ 00000001800224cc f   LIBCMT:tncleanup.obj
 0001:000214d8       __local_stdio_scanf_options 00000001800224d8 f i LIBCMT:default_local_stdio_options.obj
 0001:000214e0       __scrt_initialize_default_local_stdio_options 00000001800224e0 f   LIBCMT:default_local_stdio_options.obj
 0001:000214fc       __scrt_get_dyn_tls_init_callback 00000001800224fc f   LIBCMT:dyn_tls_init.obj
 0001:00021504       _RTC_Initialize            0000000180022504 f   LIBCMT:initsect.obj
 0001:00021540       _RTC_Terminate             0000000180022540 f   LIBCMT:initsect.obj
 0001:00021580       _purecall                  0000000180022580 f   libvcruntime:purevirt.obj
 0001:000215b0       __std_exception_copy       00000001800225b0 f   libvcruntime:std_exception.obj
 0001:00021640       __std_exception_destroy    0000000180022640 f   libvcruntime:std_exception.obj
 0001:00021668       _CxxThrowException         0000000180022668 f   libvcruntime:throw.obj
 0001:00021728       ??$_CallSETranslator@V__FrameHandler3@@@@YAHPEAUEHExceptionRecord@@PEA_KPEAU_CONTEXT@@PEAU_xDISPATCHER_CONTEXT@@PEBU_s_FuncInfo@@K1@Z 0000000180022728 f i libvcruntime:risctrnsctrl.obj
 0001:0002177c       ?CatchTryBlock@__FrameHandler3@@SAPEBU_s_TryBlockMapEntry@@PEBU_s_FuncInfo@@H@Z 000000018002277c f   libvcruntime:risctrnsctrl.obj
 0001:000217d0       ?ExecutionInCatch@__FrameHandler3@@SA_NPEAU_xDISPATCHER_CONTEXT@@PEBU_s_FuncInfo@@@Z 00000001800227d0 f   libvcruntime:risctrnsctrl.obj
 0001:000217fc       ?FrameUnwindToEmptyState@__FrameHandler3@@SAXPEA_KPEAU_xDISPATCHER_CONTEXT@@PEBU_s_FuncInfo@@@Z 00000001800227fc f   libvcruntime:risctrnsctrl.obj
 0001:00021860       ?GetEstablisherFrame@__FrameHandler3@@SAPEA_KPEA_KPEAU_xDISPATCHER_CONTEXT@@PEBU_s_FuncInfo@@0@Z 0000000180022860 f   libvcruntime:risctrnsctrl.obj
 0001:0002192c       ?GetRangeOfTrysToCheck@__FrameHandler3@@SA?AU?$pair@Viterator@TryBlockMap@__FrameHandler3@@V123@@std@@AEAVTryBlockMap@1@HPEAU_xDISPATCHER_CONTEXT@@PEBU_s_FuncInfo@@H@Z 000000018002292c f   libvcruntime:risctrnsctrl.obj
 0001:00021a6c       ?UnwindNestedFrames@__FrameHandler3@@SAXPEA_KPEAUEHExceptionRecord@@PEAU_CONTEXT@@0PEAXPEBU_s_FuncInfo@@HHPEBU_s_HandlerType@@PEAU_xDISPATCHER_CONTEXT@@E@Z 0000000180022a6c f   libvcruntime:risctrnsctrl.obj
 0001:00021b90       _CreateFrameInfo           0000000180022b90 f   libvcruntime:risctrnsctrl.obj
 0001:00021bcc       _FindAndUnlinkFrame        0000000180022bcc f   libvcruntime:risctrnsctrl.obj
 0001:00021c20       _GetImageBase              0000000180022c20 f   libvcruntime:risctrnsctrl.obj
 0001:00021c34       _GetThrowImageBase         0000000180022c34 f   libvcruntime:risctrnsctrl.obj
 0001:00021c48       _SetImageBase              0000000180022c48 f   libvcruntime:risctrnsctrl.obj
 0001:00021c60       _SetThrowImageBase         0000000180022c60 f   libvcruntime:risctrnsctrl.obj
 0001:00021c78       __CxxFrameHandler3         0000000180022c78 f   libvcruntime:risctrnsctrl.obj
 0001:00021d10       memcpy_repmovs             0000000180022d10 f   libvcruntime:memcpy.obj
 0001:00021d30       memmove                    0000000180022d30 f   libvcruntime:memcpy.obj
 0001:00021d30       memcpy                     0000000180022d30 f   libvcruntime:memcpy.obj
 0001:00022120       memset_repmovs             0000000180023120 f   libvcruntime:memset.obj
 0001:00022140       memset                     0000000180023140 f   libvcruntime:memset.obj
 0001:000222d0       __DestructExceptionObject  00000001800232d0 f   libvcruntime:ehhelpers.obj
 0001:00022344       ?_CallMemberFunction0@@YAXQEAX0@Z 0000000180023344 f i libvcruntime:ehhelpers.obj
 0001:00022348       _IsExceptionObjectToBeDestroyed 0000000180023348 f   libvcruntime:ehhelpers.obj
 0001:00022378       __AdjustPointer            0000000180023378 f   libvcruntime:ehhelpers.obj
 0001:0002239c       __FrameUnwindFilter        000000018002339c f   libvcruntime:ehhelpers.obj
 0001:000223e8       __std_terminate            00000001800233e8 f   libvcruntime:ehhelpers.obj
 0001:00022410       memchr                     0000000180023410 f   libvcruntime:memchr.obj
 0001:00022490       memcmp                     0000000180023490 f   libvcruntime:memcmp.obj
 0001:00022558       __vcrt_initialize          0000000180023558 f   libvcruntime:initialization.obj
 0001:0002258c       __vcrt_thread_attach       000000018002358c f   libvcruntime:initialization.obj
 0001:000225a0       __vcrt_thread_detach       00000001800235a0 f   libvcruntime:initialization.obj
 0001:000225b4       __vcrt_uninitialize        00000001800235b4 f   libvcruntime:initialization.obj
 0001:000225d4       __vcrt_uninitialize_critical 00000001800235d4 f   libvcruntime:initialization.obj
 0001:000225e4       __C_specific_handler       00000001800235e4 f   libvcruntime:riscchandler.obj
 0001:000227f0       __std_type_info_compare    00000001800237f0 f   libvcruntime:std_type_info.obj
 0001:00022818       __std_type_info_destroy_list 0000000180023818 f   libvcruntime:std_type_info.obj
 0001:00022844       __vcrt_initialize_pure_virtual_call_handler 0000000180023844 f   libvcruntime:purevirt_data.obj
 0001:00022854       __vcrt_freefls             0000000180023854 f   libvcruntime:per_thread_data.obj
 0001:00022874       __vcrt_freeptd             0000000180023874 f   libvcruntime:per_thread_data.obj
 0001:000228c4       __vcrt_getptd              00000001800238c4 f   libvcruntime:per_thread_data.obj
 0001:000228e0       __vcrt_getptd_noexit       00000001800238e0 f   libvcruntime:per_thread_data.obj
 0001:000229a0       __vcrt_initialize_ptd      00000001800239a0 f   libvcruntime:per_thread_data.obj
 0001:000229e8       __vcrt_uninitialize_ptd    00000001800239e8 f   libvcruntime:per_thread_data.obj
 0001:00022a0c       ?GetCurrentState@__FrameHandler3@@SAHPEA_KPEAU_xDISPATCHER_CONTEXT@@PEBU_s_FuncInfo@@@Z 0000000180023a0c f   libvcruntime:ehstate.obj
 0001:00022a34       ?GetUnwindTryBlock@__FrameHandler3@@SAHPEA_KPEAU_xDISPATCHER_CONTEXT@@PEBU_s_FuncInfo@@@Z 0000000180023a34 f   libvcruntime:ehstate.obj
 0001:00022a60       ?SetState@__FrameHandler3@@SAXPEA_KPEBU_s_FuncInfo@@H@Z 0000000180023a60 f   libvcruntime:ehstate.obj
 0001:00022a6c       ?SetUnwindTryBlock@__FrameHandler3@@SAXPEA_KPEAU_xDISPATCHER_CONTEXT@@PEBU_s_FuncInfo@@H@Z 0000000180023a6c f   libvcruntime:ehstate.obj
 0001:00022aa8       ?StateFromControlPc@__FrameHandler3@@SAHPEBU_s_FuncInfo@@PEAU_xDISPATCHER_CONTEXT@@@Z 0000000180023aa8 f   libvcruntime:ehstate.obj
 0001:00022ab0       ?StateFromIp@__FrameHandler3@@SAHPEBU_s_FuncInfo@@PEAU_xDISPATCHER_CONTEXT@@_K@Z 0000000180023ab0 f   libvcruntime:ehstate.obj
 0001:0002359c       ??$TypeMatchHelper@V__FrameHandler3@@@@YAHPEBU_s_HandlerType@@PEBU_s_CatchableType@@PEBU_s_ThrowInfo@@@Z 000000018002459c f i libvcruntime:frame.obj
 0001:000236e0       ??$__InternalCxxFrameHandler@V__FrameHandler3@@@@YA?AW4_EXCEPTION_DISPOSITION@@PEAUEHExceptionRecord@@PEA_KPEAU_CONTEXT@@PEAU_xDISPATCHER_CONTEXT@@PEBU_s_FuncInfo@@H1E@Z 00000001800246e0 f i libvcruntime:frame.obj
 0001:00023928       ??0bad_exception@std@@QEAA@AEBV01@@Z 0000000180024928 f i libvcruntime:frame.obj
 0001:00023964       ??0bad_exception@std@@QEAA@XZ 0000000180024964 f i libvcruntime:frame.obj
 0001:00023984       ?CxxCallCatchBlock@__FrameHandler3@@SAPEAXPEAU_EXCEPTION_RECORD@@@Z 0000000180024984 f   libvcruntime:frame.obj
 0001:00023bf8       ?FrameUnwindToState@__FrameHandler3@@SAXPEA_KPEAU_xDISPATCHER_CONTEXT@@PEBU_s_FuncInfo@@H@Z 0000000180024bf8 f   libvcruntime:frame.obj
 0001:00023d84       ?GetHandlerSearchState@__FrameHandler3@@SAHPEA_KPEAU_xDISPATCHER_CONTEXT@@PEBU_s_FuncInfo@@@Z 0000000180024d84 f i libvcruntime:frame.obj
 0001:00023f94       ?_CallMemberFunction1@@YAXQEAX00@Z 0000000180024f94 f i libvcruntime:frame.obj
 0001:00023fa0       ?_CallMemberFunction2@@YAXQEAX00H@Z 0000000180024fa0 f i libvcruntime:frame.obj
 0001:00023fb0       __vcrt_initialize_locks    0000000180024fb0 f   libvcruntime:locks.obj
 0001:00023ff8       __vcrt_uninitialize_locks  0000000180024ff8 f   libvcruntime:locks.obj
 0001:00024208       __vcrt_FlsAlloc            0000000180025208 f   libvcruntime:winapi_downlevel.obj
 0001:00024250       __vcrt_FlsFree             0000000180025250 f   libvcruntime:winapi_downlevel.obj
 0001:00024298       __vcrt_FlsGetValue         0000000180025298 f   libvcruntime:winapi_downlevel.obj
 0001:000242e0       __vcrt_FlsSetValue         00000001800252e0 f   libvcruntime:winapi_downlevel.obj
 0001:00024334       __vcrt_InitializeCriticalSectionEx 0000000180025334 f   libvcruntime:winapi_downlevel.obj
 0001:00024398       __vcrt_initialize_winapi_thunks 0000000180025398 f   libvcruntime:winapi_downlevel.obj
 0001:000243c8       __vcrt_uninitialize_winapi_thunks 00000001800253c8 f   libvcruntime:winapi_downlevel.obj
 0001:00024420       _NLG_Notify                0000000180025420 f   libvcruntime:notify.obj
 0001:00024440       __NLG_Dispatch2            0000000180025440 f   libvcruntime:notify.obj
 0001:00024450       __NLG_Return2              0000000180025450 f   libvcruntime:notify.obj
 0001:00024454       __except_validate_context_record 0000000180025454 f   libvcruntime:jbcxrval.obj
 0001:000244a0       _CallSettingFrame          00000001800254a0 f   libvcruntime:handlers.obj
 0001:000244f0       _CallSettingFrameEncoded   00000001800254f0 f   libvcruntime:handlers.obj
 0001:00024538       abort                      0000000180025538 f   libucrt:abort.obj
 0001:00024590       calloc                     0000000180025590 f   libucrt:calloc.obj
 0001:00024598       __acrt_initialize_stdio    0000000180025598 f   libucrt:_file.obj
 0001:000246b8       __acrt_iob_func            00000001800256b8 f   libucrt:_file.obj
 0001:000246cc       __acrt_uninitialize_stdio  00000001800256cc f   libucrt:_file.obj
 0001:00024728       _lock_file                 0000000180025728 f   libucrt:_file.obj
 0001:00024734       _unlock_file               0000000180025734 f   libucrt:_file.obj
 0001:00024740       __acrt_call_reportfault    0000000180025740 f   libucrt:invalid_parameter.obj
 0001:0002489c       __acrt_initialize_invalid_parameter_handler 000000018002589c f   libucrt:invalid_parameter.obj
 0001:000248a4       _invalid_parameter         00000001800258a4 f   libucrt:invalid_parameter.obj
 0001:00024954       _invalid_parameter_noinfo  0000000180025954 f   libucrt:invalid_parameter.obj
 0001:00024974       _invalid_parameter_noinfo_noreturn 0000000180025974 f   libucrt:invalid_parameter.obj
 0001:000249a4       _invoke_watson             00000001800259a4 f   libucrt:invalid_parameter.obj
 0001:00024a90       strcspn                    0000000180025a90 f   libucrt:strcspn.obj
 0001:00025274       ??$ensure_buffer_is_big_enough@D@formatting_buffer@__crt_stdio_output@@QEAA_N_K@Z 0000000180026274 f i libucrt:output.obj
 0001:0002531c       ??$ensure_buffer_is_big_enough@_W@formatting_buffer@__crt_stdio_output@@QEAA_N_K@Z 000000018002631c f i libucrt:output.obj
 0001:000253c8       ??$is_wide_character_specifier@_W@__crt_stdio_output@@YA_N_K_WW4length_modifier@0@@Z 00000001800263c8 f i libucrt:output.obj
 0001:00025408       ??$type_case_integer_parse_into_buffer@I@?$output_processor@DV?$stream_output_adapter@D@__crt_stdio_output@@V?$standard_base@DV?$stream_output_adapter@D@__crt_stdio_output@@@2@@__crt_stdio_output@@AEAAXII_N@Z 0000000180026408 f i libucrt:output.obj
 0001:00025408       ??$type_case_integer_parse_into_buffer@I@?$output_processor@DV?$string_output_adapter@D@__crt_stdio_output@@V?$format_validation_base@DV?$string_output_adapter@D@__crt_stdio_output@@@2@@__crt_stdio_output@@AEAAXII_N@Z 0000000180026408 f i libucrt:output.obj
 0001:00025498       ??$type_case_integer_parse_into_buffer@I@?$output_processor@_WV?$stream_output_adapter@_W@__crt_stdio_output@@V?$standard_base@_WV?$stream_output_adapter@_W@__crt_stdio_output@@@2@@__crt_stdio_output@@AEAAXII_N@Z 0000000180026498 f i libucrt:output.obj
 0001:00025498       ??$type_case_integer_parse_into_buffer@I@?$output_processor@_WV?$string_output_adapter@_W@__crt_stdio_output@@V?$standard_base@_WV?$string_output_adapter@_W@__crt_stdio_output@@@2@@__crt_stdio_output@@AEAAXII_N@Z 0000000180026498 f i libucrt:output.obj
 0001:0002553c       ??$type_case_integer_parse_into_buffer@_K@?$output_processor@DV?$string_output_adapter@D@__crt_stdio_output@@V?$format_validation_base@DV?$string_output_adapter@D@__crt_stdio_output@@@2@@__crt_stdio_output@@AEAAX_KI_N@Z 000000018002653c f i libucrt:output.obj
 0001:0002553c       ??$type_case_integer_parse_into_buffer@_K@?$output_processor@DV?$stream_output_adapter@D@__crt_stdio_output@@V?$standard_base@DV?$stream_output_adapter@D@__crt_stdio_output@@@2@@__crt_stdio_output@@AEAAX_KI_N@Z 000000018002653c f i libucrt:output.obj
 0001:000255d0       ??$type_case_integer_parse_into_buffer@_K@?$output_processor@_WV?$stream_output_adapter@_W@__crt_stdio_output@@V?$standard_base@_WV?$stream_output_adapter@_W@__crt_stdio_output@@@2@@__crt_stdio_output@@AEAAX_KI_N@Z 00000001800265d0 f i libucrt:output.obj
 0001:000255d0       ??$type_case_integer_parse_into_buffer@_K@?$output_processor@_WV?$string_output_adapter@_W@__crt_stdio_output@@V?$standard_base@_WV?$string_output_adapter@_W@__crt_stdio_output@@@2@@__crt_stdio_output@@AEAAX_KI_N@Z 00000001800265d0 f i libucrt:output.obj
 0001:00025674       ??$write_multiple_characters@V?$stream_output_adapter@D@__crt_stdio_output@@D@__crt_stdio_output@@YAXAEBV?$stream_output_adapter@D@0@DHQEAH@Z 0000000180026674 f i libucrt:output.obj
 0001:00025700       ??$write_multiple_characters@V?$stream_output_adapter@_W@__crt_stdio_output@@D@__crt_stdio_output@@YAXAEBV?$stream_output_adapter@_W@0@DHQEAH@Z 0000000180026700 f i libucrt:output.obj
 0001:00025794       ??$write_multiple_characters@V?$string_output_adapter@D@__crt_stdio_output@@D@__crt_stdio_output@@YAXAEBV?$string_output_adapter@D@0@DHQEAH@Z 0000000180026794 f i libucrt:output.obj
 0001:0002580c       ??$write_multiple_characters@V?$string_output_adapter@_W@__crt_stdio_output@@D@__crt_stdio_output@@YAXAEBV?$string_output_adapter@_W@0@DHQEAH@Z 000000018002680c f i libucrt:output.obj
 0001:00025888       ??0_LocaleUpdate@@QEAA@QEAU__crt_locale_pointers@@@Z 0000000180026888 f i libucrt:output.obj
 0001:00025924       ??1_LocaleUpdate@@QEAA@XZ  0000000180026924 f i libucrt:output.obj
 0001:00025b9c       ?crop_zeroes@__crt_stdio_output@@YAXPEADQEAU__crt_locale_pointers@@@Z 0000000180026b9c f i libucrt:output.obj
 0001:00025c08       ?force_decimal_point@__crt_stdio_output@@YAXPEADQEAU__crt_locale_pointers@@@Z 0000000180026c08 f i libucrt:output.obj
 0001:00025c78       ?parse_int_from_format_string@?$output_processor@DV?$stream_output_adapter@D@__crt_stdio_output@@V?$standard_base@DV?$stream_output_adapter@D@__crt_stdio_output@@@2@@__crt_stdio_output@@AEAA_NQEAH@Z 0000000180026c78 f i libucrt:output.obj
 0001:00025c78       ?parse_int_from_format_string@?$output_processor@DV?$string_output_adapter@D@__crt_stdio_output@@V?$format_validation_base@DV?$string_output_adapter@D@__crt_stdio_output@@@2@@__crt_stdio_output@@AEAA_NQEAH@Z 0000000180026c78 f i libucrt:output.obj
 0001:00025d1c       ?parse_int_from_format_string@?$output_processor@_WV?$string_output_adapter@_W@__crt_stdio_output@@V?$standard_base@_WV?$string_output_adapter@_W@__crt_stdio_output@@@2@@__crt_stdio_output@@AEAA_NQEAH@Z 0000000180026d1c f i libucrt:output.obj
 0001:00025d1c       ?parse_int_from_format_string@?$output_processor@_WV?$stream_output_adapter@_W@__crt_stdio_output@@V?$standard_base@_WV?$stream_output_adapter@_W@__crt_stdio_output@@@2@@__crt_stdio_output@@AEAA_NQEAH@Z 0000000180026d1c f i libucrt:output.obj
 0001:00025dc0       ?process@?$output_processor@DV?$stream_output_adapter@D@__crt_stdio_output@@V?$standard_base@DV?$stream_output_adapter@D@__crt_stdio_output@@@2@@__crt_stdio_output@@QEAAHXZ 0000000180026dc0 f i libucrt:output.obj
 0001:00025fd8       ?process@?$output_processor@DV?$string_output_adapter@D@__crt_stdio_output@@V?$format_validation_base@DV?$string_output_adapter@D@__crt_stdio_output@@@2@@__crt_stdio_output@@QEAAHXZ 0000000180026fd8 f i libucrt:output.obj
 0001:000261f0       ?process@?$output_processor@_WV?$stream_output_adapter@_W@__crt_stdio_output@@V?$standard_base@_WV?$stream_output_adapter@_W@__crt_stdio_output@@@2@@__crt_stdio_output@@QEAAHXZ 00000001800271f0 f i libucrt:output.obj
 0001:0002645c       ?process@?$output_processor@_WV?$string_output_adapter@_W@__crt_stdio_output@@V?$standard_base@_WV?$string_output_adapter@_W@__crt_stdio_output@@@2@@__crt_stdio_output@@QEAAHXZ 000000018002745c f i libucrt:output.obj
 0001:000266d8       ?state_case_normal@?$output_processor@DV?$stream_output_adapter@D@__crt_stdio_output@@V?$standard_base@DV?$stream_output_adapter@D@__crt_stdio_output@@@2@@__crt_stdio_output@@AEAA_NXZ 00000001800276d8 f i libucrt:output.obj
 0001:00026748       ?state_case_normal@?$output_processor@DV?$string_output_adapter@D@__crt_stdio_output@@V?$format_validation_base@DV?$string_output_adapter@D@__crt_stdio_output@@@2@@__crt_stdio_output@@AEAA_NXZ 0000000180027748 f i libucrt:output.obj
 0001:000267bc       ?state_case_normal_tchar@?$output_processor@DV?$stream_output_adapter@D@__crt_stdio_output@@V?$standard_base@DV?$stream_output_adapter@D@__crt_stdio_output@@@2@@__crt_stdio_output@@AEAA_ND@Z 00000001800277bc f i libucrt:output.obj
 0001:00026860       ?state_case_normal_tchar@?$output_processor@DV?$string_output_adapter@D@__crt_stdio_output@@V?$format_validation_base@DV?$string_output_adapter@D@__crt_stdio_output@@@2@@__crt_stdio_output@@AEAA_ND@Z 0000000180027860 f i libucrt:output.obj
 0001:00026908       ?state_case_size@?$output_processor@DV?$stream_output_adapter@D@__crt_stdio_output@@V?$standard_base@DV?$stream_output_adapter@D@__crt_stdio_output@@@2@@__crt_stdio_output@@AEAA_NXZ 0000000180027908 f i libucrt:output.obj
 0001:00026a7c       ?state_case_size@?$output_processor@DV?$string_output_adapter@D@__crt_stdio_output@@V?$format_validation_base@DV?$string_output_adapter@D@__crt_stdio_output@@@2@@__crt_stdio_output@@AEAA_NXZ 0000000180027a7c f i libucrt:output.obj
 0001:00026bf0       ?state_case_size@?$output_processor@_WV?$stream_output_adapter@_W@__crt_stdio_output@@V?$standard_base@_WV?$stream_output_adapter@_W@__crt_stdio_output@@@2@@__crt_stdio_output@@AEAA_NXZ 0000000180027bf0 f i libucrt:output.obj
 0001:00026d88       ?state_case_size@?$output_processor@_WV?$string_output_adapter@_W@__crt_stdio_output@@V?$standard_base@_WV?$string_output_adapter@_W@__crt_stdio_output@@@2@@__crt_stdio_output@@AEAA_NXZ 0000000180027d88 f i libucrt:output.obj
 0001:00026f20       ?state_case_type@?$output_processor@DV?$stream_output_adapter@D@__crt_stdio_output@@V?$standard_base@DV?$stream_output_adapter@D@__crt_stdio_output@@@2@@__crt_stdio_output@@AEAA_NXZ 0000000180027f20 f i libucrt:output.obj
 0001:000271a4       ?state_case_type@?$output_processor@DV?$string_output_adapter@D@__crt_stdio_output@@V?$format_validation_base@DV?$string_output_adapter@D@__crt_stdio_output@@@2@@__crt_stdio_output@@AEAA_NXZ 00000001800281a4 f i libucrt:output.obj
 0001:0002740c       ?state_case_type@?$output_processor@_WV?$stream_output_adapter@_W@__crt_stdio_output@@V?$standard_base@_WV?$stream_output_adapter@_W@__crt_stdio_output@@@2@@__crt_stdio_output@@AEAA_NXZ 000000018002840c f i libucrt:output.obj
 0001:000276ec       ?state_case_type@?$output_processor@_WV?$string_output_adapter@_W@__crt_stdio_output@@V?$standard_base@_WV?$string_output_adapter@_W@__crt_stdio_output@@@2@@__crt_stdio_output@@AEAA_NXZ 00000001800286ec f i libucrt:output.obj
 0001:000279b8       ?type_case_Z@?$output_processor@DV?$stream_output_adapter@D@__crt_stdio_output@@V?$standard_base@DV?$stream_output_adapter@D@__crt_stdio_output@@@2@@__crt_stdio_output@@AEAA_NXZ 00000001800289b8 f i libucrt:output.obj
 0001:000279b8       ?type_case_Z@?$output_processor@DV?$string_output_adapter@D@__crt_stdio_output@@V?$format_validation_base@DV?$string_output_adapter@D@__crt_stdio_output@@@2@@__crt_stdio_output@@AEAA_NXZ 00000001800289b8 f i libucrt:output.obj
 0001:00027a30       ?type_case_Z@?$output_processor@_WV?$stream_output_adapter@_W@__crt_stdio_output@@V?$standard_base@_WV?$stream_output_adapter@_W@__crt_stdio_output@@@2@@__crt_stdio_output@@AEAA_NXZ 0000000180028a30 f i libucrt:output.obj
 0001:00027a30       ?type_case_Z@?$output_processor@_WV?$string_output_adapter@_W@__crt_stdio_output@@V?$standard_base@_WV?$string_output_adapter@_W@__crt_stdio_output@@@2@@__crt_stdio_output@@AEAA_NXZ 0000000180028a30 f i libucrt:output.obj
 0001:00027aac       ?type_case_a@?$output_processor@DV?$stream_output_adapter@D@__crt_stdio_output@@V?$standard_base@DV?$stream_output_adapter@D@__crt_stdio_output@@@2@@__crt_stdio_output@@AEAA_NXZ 0000000180028aac f i libucrt:output.obj
 0001:00027aac       ?type_case_a@?$output_processor@DV?$string_output_adapter@D@__crt_stdio_output@@V?$format_validation_base@DV?$string_output_adapter@D@__crt_stdio_output@@@2@@__crt_stdio_output@@AEAA_NXZ 0000000180028aac f i libucrt:output.obj
 0001:00027c68       ?type_case_a@?$output_processor@_WV?$stream_output_adapter@_W@__crt_stdio_output@@V?$standard_base@_WV?$stream_output_adapter@_W@__crt_stdio_output@@@2@@__crt_stdio_output@@AEAA_NXZ 0000000180028c68 f i libucrt:output.obj
 0001:00027c68       ?type_case_a@?$output_processor@_WV?$string_output_adapter@_W@__crt_stdio_output@@V?$standard_base@_WV?$string_output_adapter@_W@__crt_stdio_output@@@2@@__crt_stdio_output@@AEAA_NXZ 0000000180028c68 f i libucrt:output.obj
 0001:00027e48       ?type_case_c_tchar@?$output_processor@DV?$stream_output_adapter@D@__crt_stdio_output@@V?$standard_base@DV?$stream_output_adapter@D@__crt_stdio_output@@@2@@__crt_stdio_output@@AEAA_ND@Z 0000000180028e48 f i libucrt:output.obj
 0001:00027e48       ?type_case_c_tchar@?$output_processor@DV?$string_output_adapter@D@__crt_stdio_output@@V?$format_validation_base@DV?$string_output_adapter@D@__crt_stdio_output@@@2@@__crt_stdio_output@@AEAA_ND@Z 0000000180028e48 f i libucrt:output.obj
 0001:00027f04       ?type_case_c_tchar@?$output_processor@_WV?$string_output_adapter@_W@__crt_stdio_output@@V?$standard_base@_WV?$string_output_adapter@_W@__crt_stdio_output@@@2@@__crt_stdio_output@@AEAA_N_W@Z 0000000180028f04 f i libucrt:output.obj
 0001:00027f04       ?type_case_c_tchar@?$output_processor@_WV?$stream_output_adapter@_W@__crt_stdio_output@@V?$standard_base@_WV?$stream_output_adapter@_W@__crt_stdio_output@@@2@@__crt_stdio_output@@AEAA_N_W@Z 0000000180028f04 f i libucrt:output.obj
 0001:00027fac       ?type_case_integer@?$output_processor@DV?$string_output_adapter@D@__crt_stdio_output@@V?$format_validation_base@DV?$string_output_adapter@D@__crt_stdio_output@@@2@@__crt_stdio_output@@AEAA_NI_N@Z 0000000180028fac f i libucrt:output.obj
 0001:00027fac       ?type_case_integer@?$output_processor@DV?$stream_output_adapter@D@__crt_stdio_output@@V?$standard_base@DV?$stream_output_adapter@D@__crt_stdio_output@@@2@@__crt_stdio_output@@AEAA_NI_N@Z 0000000180028fac f i libucrt:output.obj
 0001:00028174       ?type_case_integer@?$output_processor@_WV?$string_output_adapter@_W@__crt_stdio_output@@V?$standard_base@_WV?$string_output_adapter@_W@__crt_stdio_output@@@2@@__crt_stdio_output@@AEAA_NI_N@Z 0000000180029174 f i libucrt:output.obj
 0001:00028174       ?type_case_integer@?$output_processor@_WV?$stream_output_adapter@_W@__crt_stdio_output@@V?$standard_base@_WV?$stream_output_adapter@_W@__crt_stdio_output@@@2@@__crt_stdio_output@@AEAA_NI_N@Z 0000000180029174 f i libucrt:output.obj
 0001:00028340       ?type_case_n@?$output_processor@DV?$stream_output_adapter@D@__crt_stdio_output@@V?$standard_base@DV?$stream_output_adapter@D@__crt_stdio_output@@@2@@__crt_stdio_output@@AEAA_NXZ 0000000180029340 f i libucrt:output.obj
 0001:00028340       ?type_case_n@?$output_processor@_WV?$stream_output_adapter@_W@__crt_stdio_output@@V?$standard_base@_WV?$stream_output_adapter@_W@__crt_stdio_output@@@2@@__crt_stdio_output@@AEAA_NXZ 0000000180029340 f i libucrt:output.obj
 0001:00028340       ?type_case_n@?$output_processor@_WV?$string_output_adapter@_W@__crt_stdio_output@@V?$standard_base@_WV?$string_output_adapter@_W@__crt_stdio_output@@@2@@__crt_stdio_output@@AEAA_NXZ 0000000180029340 f i libucrt:output.obj
 0001:00028340       ?type_case_n@?$output_processor@DV?$string_output_adapter@D@__crt_stdio_output@@V?$format_validation_base@DV?$string_output_adapter@D@__crt_stdio_output@@@2@@__crt_stdio_output@@AEAA_NXZ 0000000180029340 f i libucrt:output.obj
 0001:0002841c       ?type_case_s@?$output_processor@DV?$stream_output_adapter@D@__crt_stdio_output@@V?$standard_base@DV?$stream_output_adapter@D@__crt_stdio_output@@@2@@__crt_stdio_output@@AEAA_NXZ 000000018002941c f i libucrt:output.obj
 0001:0002841c       ?type_case_s@?$output_processor@DV?$string_output_adapter@D@__crt_stdio_output@@V?$format_validation_base@DV?$string_output_adapter@D@__crt_stdio_output@@@2@@__crt_stdio_output@@AEAA_NXZ 000000018002941c f i libucrt:output.obj
 0001:000284b4       ?type_case_s@?$output_processor@_WV?$stream_output_adapter@_W@__crt_stdio_output@@V?$standard_base@_WV?$stream_output_adapter@_W@__crt_stdio_output@@@2@@__crt_stdio_output@@AEAA_NXZ 00000001800294b4 f i libucrt:output.obj
 0001:000284b4       ?type_case_s@?$output_processor@_WV?$string_output_adapter@_W@__crt_stdio_output@@V?$standard_base@_WV?$string_output_adapter@_W@__crt_stdio_output@@@2@@__crt_stdio_output@@AEAA_NXZ 00000001800294b4 f i libucrt:output.obj
 0001:0002857c       ?validate_stream_is_ansi_if_required@?$__acrt_stdio_char_traits@D@@SA_NQEAU_iobuf@@@Z 000000018002957c f i libucrt:output.obj
 0001:00028618       ?write_stored_string_tchar@?$output_processor@DV?$stream_output_adapter@D@__crt_stdio_output@@V?$standard_base@DV?$stream_output_adapter@D@__crt_stdio_output@@@2@@__crt_stdio_output@@AEAA_ND@Z 0000000180029618 f i libucrt:output.obj
 0001:0002873c       ?write_stored_string_tchar@?$output_processor@DV?$string_output_adapter@D@__crt_stdio_output@@V?$format_validation_base@DV?$string_output_adapter@D@__crt_stdio_output@@@2@@__crt_stdio_output@@AEAA_ND@Z 000000018002973c f i libucrt:output.obj
 0001:00028814       ?write_stored_string_tchar@?$output_processor@_WV?$stream_output_adapter@_W@__crt_stdio_output@@V?$standard_base@_WV?$stream_output_adapter@_W@__crt_stdio_output@@@2@@__crt_stdio_output@@AEAA_N_W@Z 0000000180029814 f i libucrt:output.obj
 0001:0002891c       ?write_stored_string_tchar@?$output_processor@_WV?$string_output_adapter@_W@__crt_stdio_output@@V?$standard_base@_WV?$string_output_adapter@_W@__crt_stdio_output@@@2@@__crt_stdio_output@@AEAA_N_W@Z 000000018002991c f i libucrt:output.obj
 0001:00028a08       ?write_string@?$string_output_adapter@D@__crt_stdio_output@@QEBAXQEBDHQEAHAEAV__crt_deferred_errno_cache@@@Z 0000000180029a08 f i libucrt:output.obj
 0001:00028aac       ?write_string@?$string_output_adapter@_W@__crt_stdio_output@@QEBAXQEB_WHQEAHAEAV__crt_deferred_errno_cache@@@Z 0000000180029aac f i libucrt:output.obj
 0001:00028b54       ?write_string_impl@?$output_adapter_common@DV?$stream_output_adapter@D@__crt_stdio_output@@@__crt_stdio_output@@IEBAXQEBDHQEAHAEAV__crt_deferred_errno_cache@@@Z 0000000180029b54 f i libucrt:output.obj
 0001:00028c4c       ?write_string_impl@?$output_adapter_common@_WV?$stream_output_adapter@_W@__crt_stdio_output@@@__crt_stdio_output@@IEBAXQEB_WHQEAHAEAV__crt_deferred_errno_cache@@@Z 0000000180029c4c f i libucrt:output.obj
 0001:00028d50       __stdio_common_vfprintf    0000000180029d50 f   libucrt:output.obj
 0001:00028ddc       __stdio_common_vfwprintf   0000000180029ddc f   libucrt:output.obj
 0001:00028e68       __stdio_common_vsprintf_s  0000000180029e68 f   libucrt:output.obj
 0001:00028ecc       __stdio_common_vswprintf   0000000180029ecc f   libucrt:output.obj
 0001:00028ed4       localeconv                 0000000180029ed4 f   libucrt:localeconv.obj
 0001:00028f08       free                       0000000180029f08 f   libucrt:free.obj
 0001:00028f1c       frexp                      0000000180029f1c f   libucrt:frexp.obj
 0001:0002972c       ??$ftprintf@PEAU_iobuf@@PEB_WAEBQEB_WAEBQEB_WAEBI@?$__crt_char_traits@_W@@SAH$$QEAPEAU_iobuf@@$$QEAPEB_WAEBQEB_W2AEBI@Z 000000018002a72c f i libucrt:assert.obj
 0001:00029754       _wassert                   000000018002a754 f   libucrt:assert.obj
 0001:000297c8       fwprintf                   000000018002a7c8 f i libucrt:assert.obj
 0001:0002980c       swprintf                   000000018002a80c f i libucrt:assert.obj
 0001:00029860       __ascii_stricmp            000000018002a860 f   libucrt:stricmp.obj
 0001:000298a0       _stricmp                   000000018002a8a0 f   libucrt:stricmp.obj
 0001:000298e8       _stricmp_l                 000000018002a8e8 f   libucrt:stricmp.obj
 0001:0002999c       __acrt_initialize_locks    000000018002a99c f   libucrt:locks.obj
 0001:000299e4       __acrt_lock                000000018002a9e4 f   libucrt:locks.obj
 0001:00029a00       __acrt_uninitialize_locks  000000018002aa00 f   libucrt:locks.obj
 0001:00029a38       __acrt_unlock              000000018002aa38 f   libucrt:locks.obj
 0001:00029a54       _lock_locales              000000018002aa54 f   libucrt:locks.obj
 0001:00029a70       _unlock_locales            000000018002aa70 f   libucrt:locks.obj
 0001:00029a80       terminate                  000000018002aa80 f   libucrt:terminate.obj
 0001:00029aa0       malloc                     000000018002aaa0 f   libucrt:malloc.obj
 0001:00029d88       setlocale                  000000018002ad88 f   libucrt:setlocale.obj
 0001:00029dd4       __pctype_func              000000018002add4 f   libucrt:ctype.obj
 0001:00029e04       isdigit                    000000018002ae04 f i libucrt:_ctype.obj
 0001:00029e98       islower                    000000018002ae98 f i libucrt:_ctype.obj
 0001:00029f2c       isupper                    000000018002af2c f i libucrt:_ctype.obj
 0001:00029fc0       _wcsdup                    000000018002afc0 f   libucrt:wcsdup.obj
 0001:0002a044       ___lc_codepage_func        000000018002b044 f   libucrt:initctype.obj
 0001:0002a074       ___lc_locale_name_func     000000018002b074 f   libucrt:initctype.obj
 0001:0002a0a8       ___mb_cur_max_func         000000018002b0a8 f   libucrt:initctype.obj
 0001:0002a0d8       __acrt_locale_initialize_ctype 000000018002b0d8 f   libucrt:initctype.obj
 0001:0002a728       __acrt_errno_from_os_error 000000018002b728 f   libucrt:errno.obj
 0001:0002a770       __acrt_errno_map_os_error  000000018002b770 f   libucrt:errno.obj
 0001:0002a7c0       __doserrno                 000000018002b7c0 f   libucrt:errno.obj
 0001:0002a7e0       _errno                     000000018002b7e0 f   libucrt:errno.obj
 0001:0002a800       ?divide@__crt_strtox@@YA_KAEAUbig_integer@1@AEBU21@@Z 000000018002b800 f i libucrt:strtod.obj
 0001:0002acc0       pow                        000000018002bcc0 f   libucrt:pow.obj
 0001:0002c360       powf                       000000018002d360 f   libucrt:powf.obj
 0001:0002d228       __strncnt                  000000018002e228 f   libucrt:strncnt.obj
 0001:0002d240       ??$__acrt_mbs_to_wcs_cp@U__crt_win32_buffer_internal_dynamic_resizing@@@@YAHQEBDAEAV?$__crt_win32_buffer@_WU__crt_win32_buffer_internal_dynamic_resizing@@@@I@Z 000000018002e240 f i libucrt:strftime.obj
 0001:0002d3b8       ??$__acrt_wcs_to_mbs_cp@U__crt_win32_buffer_no_resizing@@@@YAHQEB_WAEAV?$__crt_win32_buffer@DU__crt_win32_buffer_no_resizing@@@@I@Z 000000018002e3b8 f i libucrt:strftime.obj
 0001:0002d52c       _tolower_l                 000000018002e52c f   libucrt:tolower_toupper.obj
 0001:0002d66c       tolower                    000000018002e66c f   libucrt:tolower_toupper.obj
 0001:0002d698       wcscpy_s                   000000018002e698 f   libucrt:wcscpy_s.obj
 0001:0002d700       strnlen                    000000018002e700 f   libucrt:strnlen.obj
 0001:0002d850       wcsnlen                    000000018002e850 f   libucrt:strnlen.obj
 0001:0002da28       __acrt_initialize_new_handler 000000018002ea28 f   libucrt:new_handler.obj
 0001:0002da30       _callnewh                  000000018002ea30 f   libucrt:new_handler.obj
 0001:0002da60       _query_new_handler         000000018002ea60 f   libucrt:new_handler.obj
 0001:0002da94       _seh_filter_dll            000000018002ea94 f   libucrt:exception_filter.obj
 0001:0002daa8       _seh_filter_exe            000000018002eaa8 f   libucrt:exception_filter.obj
 0001:0002de98       __acrt_initialize_thread_local_exit_callback 000000018002ee98 f   libucrt:exit.obj
 0001:0002dea0       _cexit                     000000018002eea0 f   libucrt:exit.obj
 0001:0002deb0       _exit                      000000018002eeb0 f   libucrt:exit.obj
 0001:0002debc       _is_c_termination_complete 000000018002eebc f   libucrt:exit.obj
 0001:0002e088       __acrt_allocate_buffer_for_argv 000000018002f088 f   libucrt:argv_parsing.obj
 0001:0002e0e8       _configure_narrow_argv     000000018002f0e8 f   libucrt:argv_parsing.obj
 0001:0002e460       __dcrt_uninitialize_environments_nolock 000000018002f460 f   libucrt:environment_initialization.obj
 0001:0002e498       _initialize_narrow_environment 000000018002f498 f   libucrt:environment_initialization.obj
 0001:0002e7e0       _crt_atexit                000000018002f7e0 f   libucrt:onexit.obj
 0001:0002e7f0       _execute_onexit_table      000000018002f7f0 f   libucrt:onexit.obj
 0001:0002e82c       _initialize_onexit_table   000000018002f82c f   libucrt:onexit.obj
 0001:0002e854       _register_onexit_function  000000018002f854 f   libucrt:onexit.obj
 0001:0002e8d4       __acrt_uninitialize_command_line 000000018002f8d4 f   libucrt:argv_data.obj
 0001:0002e9cc       __acrt_initialize          000000018002f9cc f   libucrt:initialization.obj
 0001:0002e9e0       __acrt_thread_attach       000000018002f9e0 f   libucrt:initialization.obj
 0001:0002e9f4       __acrt_thread_detach       000000018002f9f4 f   libucrt:initialization.obj
 0001:0002ea04       __acrt_uninitialize        000000018002fa04 f   libucrt:initialization.obj
 0001:0002ea3c       __acrt_uninitialize_critical 000000018002fa3c f   libucrt:initialization.obj
 0001:0002ea4c       _initterm                  000000018002fa4c f   libucrt:initterm.obj
 0001:0002eab0       _initterm_e                000000018002fab0 f   libucrt:initterm.obj
 0001:0002eaf0       _strdup                    000000018002faf0 f   libucrt:strdup.obj
 0001:0002eaf0       strdup                     000000018002faf0 f   libucrt:strdup.obj
 0001:0002eb68       strcpy_s                   000000018002fb68 f   libucrt:strcpy_s.obj
 0001:0002ebc8       wcsncmp                    000000018002fbc8 f   libucrt:wcsncmp.obj
 0001:0002ebf4       ??$parse_integer@KV?$c_string_character_source@D@__crt_strtox@@@__crt_strtox@@YAKQEAU__crt_locale_pointers@@V?$c_string_character_source@D@0@H_N@Z 000000018002fbf4 f i libucrt:atox.obj
 0001:0002ef30       ??$parse_integer@KV?$c_string_character_source@_W@__crt_strtox@@@__crt_strtox@@YAKQEAU__crt_locale_pointers@@V?$c_string_character_source@_W@0@H_N@Z 000000018002ff30 f i libucrt:atox.obj
 0001:0002f5e4       _wtol                      00000001800305e4 f   libucrt:atox.obj
 0001:0002f620       strncmp                    0000000180030620 f   libucrt:strncmp.obj
 0001:0002f6e8       __acrt_get_sigabrt_handler 00000001800306e8 f   libucrt:signal.obj
 0001:0002f718       __acrt_initialize_signal_handlers 0000000180030718 f   libucrt:signal.obj
 0001:0002f738       raise                      0000000180030738 f   libucrt:signal.obj
 0001:0002f9a4       _calloc_base               00000001800309a4 f   libucrt:calloc_base.obj
 0001:0002fa1c       _free_base                 0000000180030a1c f   libucrt:free_base.obj
 0001:0002fcd8       __acrt_AppPolicyGetProcessTerminationMethodInternal 0000000180030cd8 f   libucrt:winapi_thunks.obj
 0001:0002fd28       __acrt_AppPolicyGetShowDeveloperDiagnosticInternal 0000000180030d28 f   libucrt:winapi_thunks.obj
 0001:0002fd78       __acrt_AppPolicyGetWindowingModelInternal 0000000180030d78 f   libucrt:winapi_thunks.obj
 0001:0002fdc8       __acrt_AreFileApisANSI     0000000180030dc8 f   libucrt:winapi_thunks.obj
 0001:0002fe04       __acrt_EnumSystemLocalesEx 0000000180030e04 f   libucrt:winapi_thunks.obj
 0001:0002fe9c       __acrt_FlsAlloc            0000000180030e9c f   libucrt:winapi_thunks.obj
 0001:0002fee4       __acrt_FlsFree             0000000180030ee4 f   libucrt:winapi_thunks.obj
 0001:0002ff2c       __acrt_FlsGetValue         0000000180030f2c f   libucrt:winapi_thunks.obj
 0001:0002ff74       __acrt_FlsSetValue         0000000180030f74 f   libucrt:winapi_thunks.obj
 0001:0002ffc8       __acrt_GetLocaleInfoEx     0000000180030fc8 f   libucrt:winapi_thunks.obj
 0001:0003004c       __acrt_GetUserDefaultLocaleName 000000018003104c f   libucrt:winapi_thunks.obj
 0001:000300b0       __acrt_InitializeCriticalSectionEx 00000001800310b0 f   libucrt:winapi_thunks.obj
 0001:00030114       __acrt_IsValidLocaleName   0000000180031114 f   libucrt:winapi_thunks.obj
 0001:0003016c       __acrt_LCIDToLocaleName    000000018003116c f   libucrt:winapi_thunks.obj
 0001:000301dc       __acrt_LCMapStringEx       00000001800311dc f   libucrt:winapi_thunks.obj
 0001:000302b8       __acrt_LocaleNameToLCID    00000001800312b8 f   libucrt:winapi_thunks.obj
 0001:00030308       __acrt_MessageBoxW         0000000180031308 f   libucrt:winapi_thunks.obj
 0001:0003037c       __acrt_can_show_message_box 000000018003137c f   libucrt:winapi_thunks.obj
 0001:000303ec       __acrt_can_use_vista_locale_apis 00000001800313ec f   libucrt:winapi_thunks.obj
 0001:0003041c       __acrt_eagerly_load_locale_apis 000000018003141c f   libucrt:winapi_thunks.obj
 0001:00030578       __acrt_get_parent_window   0000000180031578 f   libucrt:winapi_thunks.obj
 0001:000305f0       __acrt_initialize_winapi_thunks 00000001800315f0 f   libucrt:winapi_thunks.obj
 0001:00030624       __acrt_is_interactive      0000000180031624 f   libucrt:winapi_thunks.obj
 0001:000306ec       __acrt_uninitialize_winapi_thunks 00000001800316ec f   libucrt:winapi_thunks.obj
 0001:00030730       _fcloseall                 0000000180031730 f   libucrt:closeall.obj
 0001:00030a00       __acrt_stdio_flush_nolock  0000000180031a00 f   libucrt:fflush.obj
 0001:00030a7c       _fflush_nolock             0000000180031a7c f   libucrt:fflush.obj
 0001:00030ac8       _flushall                  0000000180031ac8 f   libucrt:fflush.obj
 0001:00030ad0       fflush                     0000000180031ad0 f   libucrt:fflush.obj
 0001:00030b38       __acrt_stdio_free_buffer_nolock 0000000180031b38 f   libucrt:_freebuf.obj
 0001:00030d74       __acrt_initialize_lowio    0000000180031d74 f   libucrt:ioinit.obj
 0001:00030db0       __acrt_uninitialize_lowio  0000000180031db0 f   libucrt:ioinit.obj
 0001:00031168       __acrt_freeptd             0000000180032168 f   libucrt:per_thread_data.obj
 0001:000311ac       __acrt_getptd              00000001800321ac f   libucrt:per_thread_data.obj
 0001:00031280       __acrt_getptd_head         0000000180032280 f   libucrt:per_thread_data.obj
 0001:00031328       __acrt_getptd_noexit       0000000180032328 f   libucrt:per_thread_data.obj
 0001:000313f4       __acrt_initialize_ptd      00000001800323f4 f   libucrt:per_thread_data.obj
 0001:00031430       __acrt_uninitialize_ptd    0000000180032430 f   libucrt:per_thread_data.obj
 0001:00031454       _malloc_base               0000000180032454 f   libucrt:malloc_base.obj
 0001:000314b4       strtol                     00000001800324b4 f   libucrt:strtox.obj
 0001:000314e0       wcstol                     00000001800324e0 f   libucrt:strtox.obj
 0001:0003150c       _mbtowc_l                  000000018003250c f   libucrt:mbtowc.obj
 0001:00031688       mbtowc                     0000000180032688 f   libucrt:mbtowc.obj
 0001:00031690       _wctomb_s_l                0000000180032690 f   libucrt:wctomb.obj
 0001:00031830       wctomb_s                   0000000180032830 f   libucrt:wctomb.obj
 0001:00031844       __acrt_update_locale_info  0000000180032844 f   libucrt:locale_update.obj
 0001:00031878       __acrt_update_multibyte_info 0000000180032878 f   libucrt:locale_update.obj
 0001:00032280       __acrt_fp_format           0000000180033280 f   libucrt:cvt.obj
 0001:00032508       _fputwc_nolock             0000000180033508 f   libucrt:fputwc.obj
 0001:00032684       _fileno                    0000000180033684 f   libucrt:fileno.obj
 0001:000326ac       _fputc_nolock              00000001800336ac f   libucrt:fputc.obj
 0001:000326c4       _get_printf_count_output   00000001800336c4 f   libucrt:printf_count_output.obj
 0001:000326dc       __acrt_stdio_begin_temporary_buffering_nolock 00000001800336dc f   libucrt:_sftbuf.obj
 0001:000327ac       __acrt_stdio_end_temporary_buffering_nolock 00000001800337ac f   libucrt:_sftbuf.obj
 0001:00032a50       __acrt_copy_locale_name    0000000180033a50 f   libucrt:wsetlocale.obj
 0001:00032ad4       __acrt_set_locale_changed  0000000180033ad4 f   libucrt:wsetlocale.obj
 0001:00032ae0       __acrt_uninitialize_locale 0000000180033ae0 f   libucrt:wsetlocale.obj
 0001:00032b10       __lc_lctowcs               0000000180033b10 f   libucrt:wsetlocale.obj
 0001:00032bb4       __lc_wcstolc               0000000180033bb4 f   libucrt:wsetlocale.obj
 0001:00032df0       _expandlocale              0000000180033df0 f   libucrt:wsetlocale.obj
 0001:000331d4       _wcscats                   00000001800341d4 f   libucrt:wsetlocale.obj
 0001:0003323c       _wsetlocale                000000018003423c f   libucrt:wsetlocale.obj
 0001:00033ab4       _dsign                     0000000180034ab4 f   libucrt:nan.obj
 0001:00033acc       _errcode                   0000000180034acc f   libucrt:fpexcept.obj
 0001:00033b10       _except1                   0000000180034b10 f   libucrt:fpexcept.obj
 0001:00033c04       _handle_exc                0000000180034c04 f   libucrt:fpexcept.obj
 0001:00033e6c       _raise_exc                 0000000180034e6c f   libucrt:fpexcept.obj
 0001:00033e94       _raise_exc_ex              0000000180034e94 f   libucrt:fpexcept.obj
 0001:000341a4       _raise_excf                00000001800351a4 f   libucrt:fpexcept.obj
 0001:000341d0       _set_errno_from_matherr    00000001800351d0 f   libucrt:fpexcept.obj
 0001:00034200       _umatherr                  0000000180035200 f   libucrt:fpexcept.obj
 0001:000342d4       _decomp                    00000001800352d4 f   libucrt:util.obj
 0001:0003440c       _sptype                    000000018003540c f   libucrt:util.obj
 0001:00034480       _clrfp                     0000000180035480 f   libucrt:fpctrl.obj
 0001:000344a0       _ctrlfp                    00000001800354a0 f   libucrt:fpctrl.obj
 0001:0003451c       _set_statfp                000000018003551c f   libucrt:fpctrl.obj
 0001:0003453c       _statfp                    000000018003553c f   libucrt:fpctrl.obj
 0001:00034550       _query_app_type            0000000180035550 f   libucrt:report_runtime_error.obj
 0001:00034698       _itow_s                    0000000180035698 f   libucrt:xtoa.obj
 0001:000346b8       _set_error_mode            00000001800356b8 f   libucrt:set_error_mode.obj
 0001:000346f8       wcscat_s                   00000001800356f8 f   libucrt:wcscat_s.obj
 0001:00034778       wcsncat_s                  0000000180035778 f   libucrt:wcsncat_s.obj
 0001:00034878       __acrt_GetModuleFileNameA  0000000180035878 f   libucrt:getmodulefilenamea.obj
 0001:00034998       __acrt_show_wide_message_box 0000000180035998 f   libucrt:crtmbox.obj
 0001:00034b5c       setvbuf                    0000000180035b5c f   libucrt:setvbuf.obj
 0001:00034dfc       _mbstowcs_s_l              0000000180035dfc f   libucrt:mbstowcs.obj
 0001:00034f30       mbstowcs_s                 0000000180035f30 f   libucrt:mbstowcs.obj
 0001:000352b8       _wcstombs_s_l              00000001800362b8 f   libucrt:wcstombs.obj
 0001:000353a4       _isctype_l                 00000001800363a4 f   libucrt:isctype.obj
 0001:00035630       __acrt_GetLocaleInfoA      0000000180036630 f   libucrt:getlocaleinfoa.obj
 0001:000357f8       __acrt_GetStringTypeA      00000001800367f8 f   libucrt:getstringtypea.obj
 0001:00035ca0       __acrt_LCMapStringA        0000000180036ca0 f   libucrt:lcmapstringa.obj
 0001:00035d38       _realloc_base              0000000180036d38 f   libucrt:realloc_base.obj
 0001:00035db4       iswctype                   0000000180036db4 f   libucrt:iswctype.obj
 0001:00035e30       __acrt_initialize_fma3     0000000180036e30 f   libucrt:fma3_available.obj
 0001:00035ea0       _pow_special               0000000180036ea0 f   libucrt:pow_special.obj
 0001:00035fc4       _powf_special              0000000180036fc4 f   libucrt:pow_special.obj
 0001:00036150       __acrt_MultiByteToWideChar 0000000180037150 f   libucrt:multibytetowidechar.obj
 0001:000361ac       __acrt_WideCharToMultiByte 00000001800371ac f   libucrt:widechartomultibyte.obj
 0001:00036244       _wcsicmp                   0000000180037244 f   libucrt:wcsicmp.obj
 0001:000362dc       _wcsicmp_l                 00000001800372dc f   libucrt:wcsicmp.obj
 0001:000363dc       __acrt_initialize_timeset  00000001800373dc f   libucrt:timeset.obj
 0001:00036420       _isleadbyte_l              0000000180037420 f i libucrt:_wctype.obj
 0001:0003646c       __acrt_get_developer_information_policy 000000018003746c f   libucrt:win_policies.obj
 0001:000364c0       __acrt_get_process_end_policy 00000001800374c0 f   libucrt:win_policies.obj
 0001:000364fc       __acrt_get_windowing_model_policy 00000001800374fc f   libucrt:win_policies.obj
 0001:0003657c       ??$__acrt_wcs_to_mbs_cp@U__crt_win32_buffer_internal_dynamic_resizing@@@@YAHQEB_WAEAV?$__crt_win32_buffer@DU__crt_win32_buffer_internal_dynamic_resizing@@@@I@Z 000000018003757c f i libucrt:argv_wildcards.obj
 0001:00036dac       __acrt_expand_narrow_argv_wildcards 0000000180037dac f   libucrt:argv_wildcards.obj
 0001:000374e0       __acrt_initialize_multibyte 00000001800384e0 f   libucrt:mbctype.obj
 0001:00037540       __acrt_update_thread_multibyte_data 0000000180038540 f   libucrt:mbctype.obj
 0001:0003755c       _setmbcp_nolock            000000018003855c f   libucrt:mbctype.obj
 0001:00037890       _ismbblead                 0000000180038890 f   libucrt:ismbbyte.obj
 0001:000378a4       __acrt_initialize_command_line 00000001800388a4 f   libucrt:argv_data.obj
 0001:000378cc       __dcrt_get_narrow_environment_from_os 00000001800388cc f   libucrt:get_environment_from_os.obj
 0001:000379d0       _recalloc_base             00000001800389d0 f   libucrt:recalloc.obj
 0001:00037a68       __acrt_initialize_heap     0000000180038a68 f   libucrt:heap_handle.obj
 0001:00037a84       __acrt_uninitialize_heap   0000000180038a84 f   libucrt:heap_handle.obj
 0001:00037a90       __acrt_execute_initializers 0000000180038a90 f   libucrt:shared_initialization.obj
 0001:00037b10       __acrt_execute_uninitializers 0000000180038b10 f   libucrt:shared_initialization.obj
 0001:00037b4c       __acrt_has_user_matherr    0000000180038b4c f   libucrt:matherr.obj
 0001:00037b6c       __acrt_initialize_user_matherr 0000000180038b6c f   libucrt:matherr.obj
 0001:00037b74       __acrt_invoke_user_matherr 0000000180038b74 f   libucrt:matherr.obj
 0001:00037ba4       _query_new_mode            0000000180038ba4 f   libucrt:new_mode.obj
 0001:00037c94       __acrt_DownlevelLCIDToLocaleName 0000000180038c94 f   libucrt:lcidtoname_downlevel.obj
 0001:00037d88       __acrt_DownlevelLocaleNameToLCID 0000000180038d88 f   libucrt:lcidtoname_downlevel.obj
 0001:00037dbc       _fclose_nolock             0000000180038dbc f   libucrt:fclose.obj
 0001:00037e40       fclose                     0000000180038e40 f   libucrt:fclose.obj
 0001:00037f30       _commit                    0000000180038f30 f   libucrt:commit.obj
 0001:00038830       _write                     0000000180039830 f   libucrt:write.obj
 0001:0003891c       _write_nolock              000000018003991c f   libucrt:write.obj
 0001:00038bf8       __acrt_lowio_create_handle_array 0000000180039bf8 f   libucrt:osfinfo.obj
 0001:00038ca0       __acrt_lowio_destroy_handle_array 0000000180039ca0 f   libucrt:osfinfo.obj
 0001:00038cf0       __acrt_lowio_ensure_fh_exists 0000000180039cf0 f   libucrt:osfinfo.obj
 0001:00038d98       __acrt_lowio_lock_fh       0000000180039d98 f   libucrt:osfinfo.obj
 0001:00038dc0       __acrt_lowio_unlock_fh     0000000180039dc0 f   libucrt:osfinfo.obj
 0001:00038de8       _free_osfhnd               0000000180039de8 f   libucrt:osfinfo.obj
 0001:00038ea4       _get_osfhandle             0000000180039ea4 f   libucrt:osfinfo.obj
 0001:00038f1c       __acrt_add_locale_ref      0000000180039f1c f   libucrt:locale_refcounting.obj
 0001:00038fa8       __acrt_free_locale         0000000180039fa8 f   libucrt:locale_refcounting.obj
 0001:00039120       __acrt_locale_add_lc_time_reference 000000018003a120 f   libucrt:locale_refcounting.obj
 0001:00039148       __acrt_locale_free_lc_time_if_unreferenced 000000018003a148 f   libucrt:locale_refcounting.obj
 0001:00039180       __acrt_locale_release_lc_time_reference 000000018003a180 f   libucrt:locale_refcounting.obj
 0001:000391a8       __acrt_release_locale_ref  000000018003a1a8 f   libucrt:locale_refcounting.obj
 0001:00039250       __acrt_update_thread_locale_data 000000018003a250 f   libucrt:locale_refcounting.obj
 0001:000392c0       _updatetlocinfoEx_nolock   000000018003a2c0 f   libucrt:locale_refcounting.obj
 0001:00039328       ?__mbrtowc_utf8@__crt_mbstring@@YA_KPEA_WPEBD_KPEAU_Mbstatet@@@Z 000000018003a328 f   libucrt:mbrtowc.obj
 0001:00039364       ?__mbsrtowcs_utf8@__crt_mbstring@@YA_KPEA_WPEAPEBD_KPEAU_Mbstatet@@@Z 000000018003a364 f   libucrt:mbrtowc.obj
 0001:000394dc       ?__c32rtomb_utf8@__crt_mbstring@@YA_KPEAD_UPEAU_Mbstatet@@@Z 000000018003a4dc f   libucrt:c32rtomb.obj
 0001:00039594       c32rtomb                   000000018003a594 f   libucrt:c32rtomb.obj
 0001:0003959c       __acrt_fp_strflt_to_string 000000018003a59c f   libucrt:_fptostr.obj
 0001:00039680       __acrt_fltout              000000018003a680 f   libucrt:cfout.obj
 0001:0003aaf8       __acrt_stdio_flush_and_write_narrow_nolock 000000018003baf8 f   libucrt:_flsbuf.obj
 0001:0003abe4       __acrt_stdio_flush_and_write_wide_nolock 000000018003bbe4 f   libucrt:_flsbuf.obj
 0001:0003acd0       _isatty                    000000018003bcd0 f   libucrt:isatty.obj
 0001:0003ad30       __acrt_locale_free_monetary 000000018003bd30 f   libucrt:initmon.obj
 0001:0003ae3c       __acrt_locale_initialize_monetary 000000018003be3c f   libucrt:initmon.obj
 0001:0003b370       __acrt_locale_free_numeric 000000018003c370 f   libucrt:initnum.obj
 0001:0003b3dc       __acrt_locale_initialize_numeric 000000018003c3dc f   libucrt:initnum.obj
 0001:0003ba5c       __acrt_locale_free_time    000000018003ca5c f   libucrt:inittime.obj
 0001:0003bb64       __acrt_locale_initialize_time 000000018003cb64 f   libucrt:inittime.obj
 0001:0003bc00       wcsncpy_s                  000000018003cc00 f   libucrt:wcsncpy_s.obj
 0001:0003bce4       wcscspn                    000000018003cce4 f   libucrt:wcscspn.obj
 0001:0003bd24       wcspbrk                    000000018003cd24 f   libucrt:wcspbrk.obj
 0001:0003c50c       __acrt_get_qualified_locale 000000018003d50c f   libucrt:get_qualified_locale.obj
 0001:0003cf40       __acrt_get_qualified_locale_downlevel 000000018003df40 f   libucrt:getqloc_downlevel.obj
 0001:0003d1d0       _get_fpsr                  000000018003e1d0 f   libucrt:fpsr.obj
 0001:0003d1e0       _set_fpsr                  000000018003e1e0 f   libucrt:fpsr.obj
 0001:0003d1ea       _fclrf                     000000018003e1ea f   libucrt:fpsr.obj
 0001:0003d1fe       _frnd                      000000018003e1fe f   libucrt:fpsr.obj
 0001:0003d220       ?__wcsrtombs_utf8@__crt_mbstring@@YA_KPEADPEAPEB_W_KPEAU_Mbstatet@@@Z 000000018003e220 f   libucrt:wcrtomb.obj
 0001:0003d33c       strncpy_s                  000000018003e33c f   libucrt:strncpy_s.obj
 0001:0003d410       __acrt_GetStringTypeW      000000018003e410 f   libucrt:getstringtypew.obj
 0001:0003d418       __acrt_fenv_get_control    000000018003e418 f   libucrt:_fenvutils.obj
 0001:0003d50c       __acrt_fenv_get_status     000000018003e50c f   libucrt:_fenvutils.obj
 0001:0003d560       __acrt_fenv_set_control    000000018003e560 f   libucrt:_fenvutils.obj
 0001:0003d6a8       __acrt_fenv_set_status     000000018003e6a8 f   libucrt:_fenvutils.obj
 0001:0003d850       _handle_error              000000018003e850 f   libucrt:libm_error.obj
 0001:0003d978       _handle_errorf             000000018003e978 f   libucrt:libm_error.obj
 0001:0003daac       _handle_nan                000000018003eaac f   libucrt:libm_error.obj
 0001:0003dac8       _handle_nanf               000000018003eac8 f   libucrt:libm_error.obj
 0001:0003dad8       _towlower_l                000000018003ead8 f   libucrt:towlower.obj
 0001:0003dba0       qsort                      000000018003eba0 f   libucrt:qsort.obj
 0001:0003e000       strpbrk                    000000018003f000 f   libucrt:strpbrk.obj
 0001:0003e3e0       _mbsdec                    000000018003f3e0 f   libucrt:mbsdec.obj
 0001:0003e3e8       _mbsdec_l                  000000018003f3e8 f   libucrt:mbsdec.obj
 0001:0003e494       _msize_base                000000018003f494 f   libucrt:msize.obj
 0001:0003e544       _close                     000000018003f544 f   libucrt:close.obj
 0001:0003e5e8       _close_nolock              000000018003f5e8 f   libucrt:close.obj
 0001:0003e6a8       ?__acrt_stdio_free_stream@@YAXV__crt_stdio_stream@@@Z 000000018003f6a8 f   libucrt:stream.obj
 0001:0003e850       _lseeki64                  000000018003f850 f   libucrt:lseek.obj
 0001:0003e858       _lseeki64_nolock           000000018003f858 f   libucrt:lseek.obj
 0001:0003e860       _putwch_nolock             000000018003f860 f   libucrt:putwch.obj
 0001:0003e89c       ?__mbrtoc32_utf8@__crt_mbstring@@YA_KPEA_UPEBD_KPEAU_Mbstatet@@@Z 000000018003f89c f   libucrt:mbrtoc32.obj
 0001:0003ea78       fegetenv                   000000018003fa78 f   libucrt:fegetenv.obj
 0001:0003ea98       fesetenv                   000000018003fa98 f   libucrt:fesetenv.obj
 0001:0003eae8       feholdexcept               000000018003fae8 f   libucrt:feholdexcept.obj
 0001:0003eb38       ceil                       000000018003fb38 f   libucrt:ceil.obj
 0001:0003ec00       log10                      000000018003fc00 f   libucrt:log10.obj
 0001:0003f1ac       __acrt_stdio_allocate_buffer_nolock 00000001800401ac f   libucrt:_getbuf.obj
 0001:0003f214       _wcsnicmp                  0000000180040214 f   libucrt:wcsnicmp.obj
 0001:0003f2c0       _wcsnicmp_l                00000001800402c0 f   libucrt:wcsnicmp.obj
 0001:0003f3e8       wcscmp                     00000001800403e8 f   libucrt:wcscmp.obj
 0001:0003f420       ?__c16rtomb_utf8@__crt_mbstring@@YA_KPEAD_SPEAU_Mbstatet@@@Z 0000000180040420 f   libucrt:c16rtomb.obj
 0001:0003f4c8       __acrt_LCMapStringW        00000001800404c8 f   libucrt:lcmapstringw.obj
 0001:0003f550       __dcrt_lowio_ensure_console_output_initialized 0000000180040550 f   libucrt:initcon.obj
 0001:0003f5a4       __dcrt_terminate_console_output 00000001800405a4 f   libucrt:initcon.obj
 0001:0003f5c0       __dcrt_write_console       00000001800405c0 f   libucrt:initcon.obj
 0001:0003f680       _clearfp                   0000000180040680 f   libucrt:ieee.obj
 0001:0003f6f0       _log10_special             00000001800406f0 f   libucrt:log_special.obj
 0001:0003f7a6       IsProcessorFeaturePresent  00000001800407a6 f   kernel32:KERNEL32.dll
 0001:0003f7ac       ?DloadAcquireSectionWriteAccess@@YAXXZ 00000001800407ac f i DelayImp:delayhlp.obj
 0001:0003f858       ?DloadGetSRWLockFunctionPointers@@YAEXZ 0000000180040858 f i DelayImp:delayhlp.obj
 0001:0003f8f4       ?DloadMakePermanentImageCommit@@YAXPEAX_K@Z 00000001800408f4 f i DelayImp:delayhlp.obj
 0001:0003f98c       ?DloadObtainSection@@YAPEAXPEAK0@Z 000000018004098c f i DelayImp:delayhlp.obj
 0001:0003fa28       ?DloadProtectSection@@YAXKPEAK@Z 0000000180040a28 f i DelayImp:delayhlp.obj
 0001:0003fab8       ?DloadReleaseSectionWriteAccess@@YAXXZ 0000000180040ab8 f i DelayImp:delayhlp.obj
 0001:0003fb4c       __delayLoadHelper2         0000000180040b4c f   DelayImp:delayhlp.obj
 0001:0003fe10       _FindPESection             0000000180040e10 f   LIBCMT:pesect.obj
 0001:0003fe60       _IsNonwritableInCurrentImage 0000000180040e60 f   LIBCMT:pesect.obj
 0001:0003feb0       _ValidateImageBase         0000000180040eb0 f   LIBCMT:pesect.obj
 0001:0003fee0       strrchr                    0000000180040ee0 f   libvcruntime:strrchr.obj
 0001:00040010       wcschr                     0000000180041010 f   libvcruntime:wcschr.obj
 0001:000400a0       strcmp                     00000001800410a0 f   libucrt:strcmp.obj
 0001:00040120       _guard_dispatch_icall_nop  0000000180041120 f   LIBCMT:guard_dispatch.obj
 0002:00000000       __imp_GetCurrentThreadId   0000000180042000     kernel32:KERNEL32.dll
 0002:00000008       __imp_Sleep                0000000180042008     kernel32:KERNEL32.dll
 0002:00000010       __imp_GetModuleHandleA     0000000180042010     kernel32:KERNEL32.dll
 0002:00000018       __imp_LoadLibraryExA       0000000180042018     kernel32:KERNEL32.dll
 0002:00000020       __imp_VirtualQuery         0000000180042020     kernel32:KERNEL32.dll
 0002:00000028       __imp_VirtualProtect       0000000180042028     kernel32:KERNEL32.dll
 0002:00000030       __imp_GetLastError         0000000180042030     kernel32:KERNEL32.dll
 0002:00000038       __imp_WideCharToMultiByte  0000000180042038     kernel32:KERNEL32.dll
 0002:00000040       __imp_EnterCriticalSection 0000000180042040     kernel32:KERNEL32.dll
 0002:00000048       __imp_LeaveCriticalSection 0000000180042048     kernel32:KERNEL32.dll
 0002:00000050       __imp_DeleteCriticalSection 0000000180042050     kernel32:KERNEL32.dll
 0002:00000058       __imp_SetLastError         0000000180042058     kernel32:KERNEL32.dll
 0002:00000060       __imp_InitializeCriticalSectionAndSpinCount 0000000180042060     kernel32:KERNEL32.dll
 0002:00000068       __imp_SwitchToThread       0000000180042068     kernel32:KERNEL32.dll
 0002:00000070       __imp_TlsAlloc             0000000180042070     kernel32:KERNEL32.dll
 0002:00000078       __imp_TlsGetValue          0000000180042078     kernel32:KERNEL32.dll
 0002:00000080       __imp_TlsSetValue          0000000180042080     kernel32:KERNEL32.dll
 0002:00000088       __imp_TlsFree              0000000180042088     kernel32:KERNEL32.dll
 0002:00000090       __imp_GetSystemTimeAsFileTime 0000000180042090     kernel32:KERNEL32.dll
 0002:00000098       __imp_GetModuleHandleW     0000000180042098     kernel32:KERNEL32.dll
 0002:000000a0       __imp_GetProcAddress       00000001800420a0     kernel32:KERNEL32.dll
 0002:000000a8       __imp_EncodePointer        00000001800420a8     kernel32:KERNEL32.dll
 0002:000000b0       __imp_DecodePointer        00000001800420b0     kernel32:KERNEL32.dll
 0002:000000b8       __imp_MultiByteToWideChar  00000001800420b8     kernel32:KERNEL32.dll
 0002:000000c0       __imp_LCMapStringW         00000001800420c0     kernel32:KERNEL32.dll
 0002:000000c8       __imp_GetLocaleInfoW       00000001800420c8     kernel32:KERNEL32.dll
 0002:000000d0       __imp_GetStringTypeW       00000001800420d0     kernel32:KERNEL32.dll
 0002:000000d8       __imp_GetCPInfo            00000001800420d8     kernel32:KERNEL32.dll
 0002:000000e0       __imp_RtlCaptureContext    00000001800420e0     kernel32:KERNEL32.dll
 0002:000000e8       __imp_RtlLookupFunctionEntry 00000001800420e8     kernel32:KERNEL32.dll
 0002:000000f0       __imp_RtlVirtualUnwind     00000001800420f0     kernel32:KERNEL32.dll
 0002:000000f8       __imp_UnhandledExceptionFilter 00000001800420f8     kernel32:KERNEL32.dll
 0002:00000100       __imp_SetUnhandledExceptionFilter 0000000180042100     kernel32:KERNEL32.dll
 0002:00000108       __imp_GetCurrentProcess    0000000180042108     kernel32:KERNEL32.dll
 0002:00000110       __imp_TerminateProcess     0000000180042110     kernel32:KERNEL32.dll
 0002:00000118       __imp_IsProcessorFeaturePresent 0000000180042118     kernel32:KERNEL32.dll
 0002:00000120       __imp_IsDebuggerPresent    0000000180042120     kernel32:KERNEL32.dll
 0002:00000128       __imp_GetStartupInfoW      0000000180042128     kernel32:KERNEL32.dll
 0002:00000130       __imp_QueryPerformanceCounter 0000000180042130     kernel32:KERNEL32.dll
 0002:00000138       __imp_GetCurrentProcessId  0000000180042138     kernel32:KERNEL32.dll
 0002:00000140       __imp_InitializeSListHead  0000000180042140     kernel32:KERNEL32.dll
 0002:00000148       __imp_RtlPcToFileHeader    0000000180042148     kernel32:KERNEL32.dll
 0002:00000150       __imp_RaiseException       0000000180042150     kernel32:KERNEL32.dll
 0002:00000158       __imp_RtlUnwindEx          0000000180042158     kernel32:KERNEL32.dll
 0002:00000160       __imp_InterlockedFlushSList 0000000180042160     kernel32:KERNEL32.dll
 0002:00000168       __imp_FreeLibrary          0000000180042168     kernel32:KERNEL32.dll
 0002:00000170       __imp_LoadLibraryExW       0000000180042170     kernel32:KERNEL32.dll
 0002:00000178       __imp_GetStdHandle         0000000180042178     kernel32:KERNEL32.dll
 0002:00000180       __imp_GetFileType          0000000180042180     kernel32:KERNEL32.dll
 0002:00000188       __imp_GetModuleFileNameW   0000000180042188     kernel32:KERNEL32.dll
 0002:00000190       __imp_GetModuleHandleExW   0000000180042190     kernel32:KERNEL32.dll
 0002:00000198       __imp_WriteConsoleW        0000000180042198     kernel32:KERNEL32.dll
 0002:000001a0       __imp_ExitProcess          00000001800421a0     kernel32:KERNEL32.dll
 0002:000001a8       __imp_HeapAlloc            00000001800421a8     kernel32:KERNEL32.dll
 0002:000001b0       __imp_HeapFree             00000001800421b0     kernel32:KERNEL32.dll
 0002:000001b8       __imp_IsValidLocale        00000001800421b8     kernel32:KERNEL32.dll
 0002:000001c0       __imp_GetUserDefaultLCID   00000001800421c0     kernel32:KERNEL32.dll
 0002:000001c8       __imp_EnumSystemLocalesW   00000001800421c8     kernel32:KERNEL32.dll
 0002:000001d0       __imp_WriteFile            00000001800421d0     kernel32:KERNEL32.dll
 0002:000001d8       __imp_OutputDebugStringW   00000001800421d8     kernel32:KERNEL32.dll
 0002:000001e0       __imp_HeapReAlloc          00000001800421e0     kernel32:KERNEL32.dll
 0002:000001e8       __imp_FindClose            00000001800421e8     kernel32:KERNEL32.dll
 0002:000001f0       __imp_FindFirstFileExW     00000001800421f0     kernel32:KERNEL32.dll
 0002:000001f8       __imp_FindNextFileW        00000001800421f8     kernel32:KERNEL32.dll
 0002:00000200       __imp_IsValidCodePage      0000000180042200     kernel32:KERNEL32.dll
 0002:00000208       __imp_GetACP               0000000180042208     kernel32:KERNEL32.dll
 0002:00000210       __imp_GetOEMCP             0000000180042210     kernel32:KERNEL32.dll
 0002:00000218       __imp_GetCommandLineA      0000000180042218     kernel32:KERNEL32.dll
 0002:00000220       __imp_GetCommandLineW      0000000180042220     kernel32:KERNEL32.dll
 0002:00000228       __imp_GetEnvironmentStringsW 0000000180042228     kernel32:KERNEL32.dll
 0002:00000230       __imp_FreeEnvironmentStringsW 0000000180042230     kernel32:KERNEL32.dll
 0002:00000238       __imp_GetProcessHeap       0000000180042238     kernel32:KERNEL32.dll
 0002:00000240       __imp_FlushFileBuffers     0000000180042240     kernel32:KERNEL32.dll
 0002:00000248       __imp_GetConsoleCP         0000000180042248     kernel32:KERNEL32.dll
 0002:00000250       __imp_GetConsoleMode       0000000180042250     kernel32:KERNEL32.dll
 0002:00000258       __imp_SetStdHandle         0000000180042258     kernel32:KERNEL32.dll
 0002:00000260       __imp_GetFileSizeEx        0000000180042260     kernel32:KERNEL32.dll
 0002:00000268       __imp_SetFilePointerEx     0000000180042268     kernel32:KERNEL32.dll
 0002:00000270       __imp_HeapSize             0000000180042270     kernel32:KERNEL32.dll
 0002:00000278       __imp_CloseHandle          0000000180042278     kernel32:KERNEL32.dll
 0002:00000280       __imp_CreateFileW          0000000180042280     kernel32:KERNEL32.dll
 0002:00000288       __imp_GetSystemInfo        0000000180042288     kernel32:KERNEL32.dll
 0002:00000290       \177KERNEL32_NULL_THUNK_DATA 0000000180042290     kernel32:KERNEL32.dll
 0002:00000298       __imp_JNI_CreateJavaVM     0000000180042298     jvm:jvm.dll
 0002:000002a0       \177jvm_NULL_THUNK_DATA    00000001800422a0     jvm:jvm.dll
 0002:000002a8       __guard_check_icall_fptr   00000001800422a8     LIBCMT:guard_support.obj
 0002:000002b0       __guard_dispatch_icall_fptr 00000001800422b0     LIBCMT:guard_support.obj
 0002:000002b8       __xc_a                     00000001800422b8     LIBCMT:initializers.obj
 0002:00000340       _register_nodejavabridge_bindings_ 0000000180042340     nodeJavaBridge.obj
 0002:00000348       __xc_z                     0000000180042348     LIBCMT:initializers.obj
 0002:00000350       __xi_a                     0000000180042350     LIBCMT:initializers.obj
 0002:00000360       __acrt_stdio_initializer   0000000180042360     libucrt:stdio_initializer.obj
 0002:00000368       __acrt_tran_fma3_initializer 0000000180042368     libucrt:fma3_initializer.obj
 0002:00000370       __acrt_timeset_initializer 0000000180042370     libucrt:timeset_initializer.obj
 0002:00000378       __acrt_multibyte_initializer 0000000180042378     libucrt:multibyte_initializer.obj
 0002:00000380       __xi_z                     0000000180042380     LIBCMT:initializers.obj
 0002:00000388       __xp_a                     0000000180042388     LIBCMT:initializers.obj
 0002:00000390       __acrt_locale_terminator   0000000180042390     libucrt:locale_initializer.obj
 0002:00000398       __dcrt_console_output_terminator 0000000180042398     libucrt:console_output_initializer.obj
 0002:000003a0       __acrt_stdio_terminator    00000001800423a0     libucrt:stdio_initializer.obj
 0002:000003a8       __xp_z                     00000001800423a8     LIBCMT:initializers.obj
 0002:000003b0       __xt_a                     00000001800423b0     LIBCMT:initializers.obj
 0002:000003b8       __xt_z                     00000001800423b8     LIBCMT:initializers.obj
 0002:000003c0       __sz_node_exe              00000001800423c0     node:node.exe
 0002:000003d8       ??_7exception@std@@6B@     00000001800423d8     libcpmt:xonce.obj
 0002:000003e8       ??_C@_0BC@EOODALEL@Unknown?5exception@ 00000001800423e8     libcpmt:xonce.obj
 0002:00000408       ??_7runtime_error@std@@6B@ 0000000180042408     libcpmt:xonce.obj
 0002:00000420       ??_7_System_error@std@@6B@ 0000000180042420     libcpmt:xonce.obj
 0002:00000430       ??_C@_0O@BFJCFAAK@unknown?5error@ 0000000180042430     libcpmt:xonce.obj
 0002:00000448       ??_7bad_alloc@std@@6B@     0000000180042448     libcpmt:xthrow.obj
 0002:00000458       ??_C@_0P@GHFPNOJB@bad?5allocation@ 0000000180042458     libcpmt:xthrow.obj
 0002:00000470       ??_7logic_error@std@@6B@   0000000180042470     libcpmt:xthrow.obj
 0002:00000488       ??_7length_error@std@@6B@  0000000180042488     libcpmt:xthrow.obj
 0002:000004a0       ??_7out_of_range@std@@6B@  00000001800424a0     libcpmt:xthrow.obj
 0002:00000508       ??_7_Facet_base@std@@6B@   0000000180042508     libcpmt:locale0.obj
 0002:00000528       ??_7_Locimp@locale@std@@6B@ 0000000180042528     libcpmt:locale0.obj
 0002:00000540       ??_C@_01NBENCBCI@?$CK@     0000000180042540     libcpmt:locale0.obj
 0002:00000544       ??_C@_01GFHCPBMG@C@        0000000180042544     libcpmt:locale0.obj
 0002:00000548       ?_BADOFF@std@@3_JB         0000000180042548     libcpmt:ios.obj
 0002:00000cd0       ??_C@_0BN@LKKBCCDB@address?5family?5not?5supported@ 0000000180042cd0     libcpmt:syserror.obj
 0002:00000cf0       ??_C@_0P@LDMLAFHI@address?5in?5use@ 0000000180042cf0     libcpmt:syserror.obj
 0002:00000d00       ??_C@_0BG@DHPCNBJB@address?5not?5available@ 0000000180042d00     libcpmt:syserror.obj
 0002:00000d18       ??_C@_0BC@DFIBIBIL@already?5connected@ 0000000180042d18     libcpmt:syserror.obj
 0002:00000d30       ??_C@_0BH@CAKOHOMI@argument?5list?5too?5long@ 0000000180042d30     libcpmt:syserror.obj
 0002:00000d48       ??_C@_0BH@CGIMPKIM@argument?5out?5of?5domain@ 0000000180042d48     libcpmt:syserror.obj
 0002:00000d60       ??_C@_0M@KGHGGJGL@bad?5address@ 0000000180042d60     libcpmt:syserror.obj
 0002:00000d70       ??_C@_0BE@MPJPGCEO@bad?5file?5descriptor@ 0000000180042d70     libcpmt:syserror.obj
 0002:00000d88       ??_C@_0M@PMMIEFCP@bad?5message@ 0000000180042d88     libcpmt:syserror.obj
 0002:00000d98       ??_C@_0M@KPHOFDBE@broken?5pipe@ 0000000180042d98     libcpmt:syserror.obj
 0002:00000da8       ??_C@_0BD@MGNDDEGM@connection?5aborted@ 0000000180042da8     libcpmt:syserror.obj
 0002:00000dc0       ??_C@_0BP@KAIHPOGN@connection?5already?5in?5progress@ 0000000180042dc0     libcpmt:syserror.obj
 0002:00000de0       ??_C@_0BD@PJLIIJEL@connection?5refused@ 0000000180042de0     libcpmt:syserror.obj
 0002:00000df8       ??_C@_0BB@IECNJNOI@connection?5reset@ 0000000180042df8     libcpmt:syserror.obj
 0002:00000e10       ??_C@_0BC@PPHBOELF@cross?5device?5link@ 0000000180042e10     libcpmt:syserror.obj
 0002:00000e28       ??_C@_0BN@KDMIFEIP@destination?5address?5required@ 0000000180042e28     libcpmt:syserror.obj
 0002:00000e48       ??_C@_0BI@NGCEHDD@device?5or?5resource?5busy@ 0000000180042e48     libcpmt:syserror.obj
 0002:00000e60       ??_C@_0BE@JIDOCPHM@directory?5not?5empty@ 0000000180042e60     libcpmt:syserror.obj
 0002:00000e78       ??_C@_0BI@BNCLIGPB@executable?5format?5error@ 0000000180042e78     libcpmt:syserror.obj
 0002:00000e90       ??_C@_0M@MIDIAGJP@file?5exists@ 0000000180042e90     libcpmt:syserror.obj
 0002:00000ea0       ??_C@_0P@DNAJLBJK@file?5too?5large@ 0000000180042ea0     libcpmt:syserror.obj
 0002:00000eb0       ??_C@_0BC@EJHOMAAK@filename?5too?5long@ 0000000180042eb0     libcpmt:syserror.obj
 0002:00000ec8       ??_C@_0BH@KEFGLDAF@function?5not?5supported@ 0000000180042ec8     libcpmt:syserror.obj
 0002:00000ee0       ??_C@_0BB@DHFDFGDM@host?5unreachable@ 0000000180042ee0     libcpmt:syserror.obj
 0002:00000ef8       ??_C@_0BD@JPHBMONG@identifier?5removed@ 0000000180042ef8     libcpmt:syserror.obj
 0002:00000f10       ??_C@_0BG@CDNPAGJK@illegal?5byte?5sequence@ 0000000180042f10     libcpmt:syserror.obj
 0002:00000f28       ??_C@_0CD@BNPLBMNA@inappropriate?5io?5control?5operat@ 0000000180042f28     libcpmt:syserror.obj
 0002:00000f50       ??_C@_0M@EGEKIIMP@interrupted@ 0000000180042f50     libcpmt:syserror.obj
 0002:00000f60       ??_C@_0BB@FCMFBGOM@invalid?5argument@ 0000000180042f60     libcpmt:syserror.obj
 0002:00000f78       ??_C@_0N@OHAFKDEK@invalid?5seek@ 0000000180042f78     libcpmt:syserror.obj
 0002:00000f88       ??_C@_08GLNPIFBN@io?5error@ 0000000180042f88     libcpmt:syserror.obj
 0002:00000f98       ??_C@_0P@FLLDBIDK@is?5a?5directory@ 0000000180042f98     libcpmt:syserror.obj
 0002:00000fa8       ??_C@_0N@IFLPBIOP@message?5size@ 0000000180042fa8     libcpmt:syserror.obj
 0002:00000fb8       ??_C@_0N@KIIEAAIO@network?5down@ 0000000180042fb8     libcpmt:syserror.obj
 0002:00000fc8       ??_C@_0O@FNPDBHEE@network?5reset@ 0000000180042fc8     libcpmt:syserror.obj
 0002:00000fd8       ??_C@_0BE@IFNCKGE@network?5unreachable@ 0000000180042fd8     libcpmt:syserror.obj
 0002:00000ff0       ??_C@_0BA@PFFCAOFK@no?5buffer?5space@ 0000000180042ff0     libcpmt:syserror.obj
 0002:00001000       ??_C@_0BB@IEPBLJHK@no?5child?5process@ 0000000180043000     libcpmt:syserror.obj
 0002:00001018       ??_C@_07PLECNNKG@no?5link@ 0000000180043018     libcpmt:syserror.obj
 0002:00001020       ??_C@_0BC@NJECKMKE@no?5lock?5available@ 0000000180043020     libcpmt:syserror.obj
 0002:00001038       ??_C@_0BF@PBGGPKKE@no?5message?5available@ 0000000180043038     libcpmt:syserror.obj
 0002:00001050       ??_C@_0L@EDOLMPAK@no?5message@ 0000000180043050     libcpmt:syserror.obj
 0002:00001060       ??_C@_0BD@EAMBFIDF@no?5protocol?5option@ 0000000180043060     libcpmt:syserror.obj
 0002:00001078       ??_C@_0BD@IJDJKDEA@no?5space?5on?5device@ 0000000180043078     libcpmt:syserror.obj
 0002:00001090       ??_C@_0BE@MKFDAFMP@no?5stream?5resources@ 0000000180043090     libcpmt:syserror.obj
 0002:000010a8       ??_C@_0BK@IMCPHCBI@no?5such?5device?5or?5address@ 00000001800430a8     libcpmt:syserror.obj
 0002:000010c8       ??_C@_0P@FDINDDOK@no?5such?5device@ 00000001800430c8     libcpmt:syserror.obj
 0002:000010d8       ??_C@_0BK@NDOCBPGE@no?5such?5file?5or?5directory@ 00000001800430d8     libcpmt:syserror.obj
 0002:000010f8       ??_C@_0BA@ENLPPKBN@no?5such?5process@ 00000001800430f8     libcpmt:syserror.obj
 0002:00001108       ??_C@_0BA@DOCPFFJG@not?5a?5directory@ 0000000180043108     libcpmt:syserror.obj
 0002:00001118       ??_C@_0N@POEIPGGF@not?5a?5socket@ 0000000180043118     libcpmt:syserror.obj
 0002:00001128       ??_C@_0N@LGAPMMPI@not?5a?5stream@ 0000000180043128     libcpmt:syserror.obj
 0002:00001138       ??_C@_0O@GLMIBBEG@not?5connected@ 0000000180043138     libcpmt:syserror.obj
 0002:00001148       ??_C@_0BC@ENOOLCNF@not?5enough?5memory@ 0000000180043148     libcpmt:syserror.obj
 0002:00001160       ??_C@_0O@NHEDABJP@not?5supported@ 0000000180043160     libcpmt:syserror.obj
 0002:00001170       ??_C@_0BD@MOLBPMEA@operation?5canceled@ 0000000180043170     libcpmt:syserror.obj
 0002:00001188       ??_C@_0BG@KDKHOPCO@operation?5in?5progress@ 0000000180043188     libcpmt:syserror.obj
 0002:000011a0       ??_C@_0BI@OHIEJAAB@operation?5not?5permitted@ 00000001800431a0     libcpmt:syserror.obj
 0002:000011b8       ??_C@_0BI@LNEGIFLN@operation?5not?5supported@ 00000001800431b8     libcpmt:syserror.obj
 0002:000011d0       ??_C@_0BG@OEMDKMEE@operation?5would?5block@ 00000001800431d0     libcpmt:syserror.obj
 0002:000011e8       ??_C@_0L@BLPOFLNJ@owner?5dead@ 00000001800431e8     libcpmt:syserror.obj
 0002:000011f8       ??_C@_0BC@CIJDGCDI@permission?5denied@ 00000001800431f8     libcpmt:syserror.obj
 0002:00001210       ??_C@_0P@FNPOCJBE@protocol?5error@ 0000000180043210     libcpmt:syserror.obj
 0002:00001220       ??_C@_0BH@JPPPLHJB@protocol?5not?5supported@ 0000000180043220     libcpmt:syserror.obj
 0002:00001238       ??_C@_0BG@EICBIHDP@read?5only?5file?5system@ 0000000180043238     libcpmt:syserror.obj
 0002:00001250       ??_C@_0BO@BJBOMOEJ@resource?5deadlock?5would?5occur@ 0000000180043250     libcpmt:syserror.obj
 0002:00001270       ??_C@_0BP@LKNGHENJ@resource?5unavailable?5try?5again@ 0000000180043270     libcpmt:syserror.obj
 0002:00001290       ??_C@_0BE@GOIPJJHG@result?5out?5of?5range@ 0000000180043290     libcpmt:syserror.obj
 0002:000012a8       ??_C@_0BG@MPLKFPAE@state?5not?5recoverable@ 00000001800432a8     libcpmt:syserror.obj
 0002:000012c0       ??_C@_0P@DIIFGFCG@stream?5timeout@ 00000001800432c0     libcpmt:syserror.obj
 0002:000012d0       ??_C@_0P@IPFDMIFL@text?5file?5busy@ 00000001800432d0     libcpmt:syserror.obj
 0002:000012e0       ??_C@_09KJPPMAOI@timed?5out@ 00000001800432e0     libcpmt:syserror.obj
 0002:000012f0       ??_C@_0BO@HACHBEKI@too?5many?5files?5open?5in?5system@ 00000001800432f0     libcpmt:syserror.obj
 0002:00001310       ??_C@_0BE@GHAFMPAH@too?5many?5files?5open@ 0000000180043310     libcpmt:syserror.obj
 0002:00001328       ??_C@_0P@HCOMKFCC@too?5many?5links@ 0000000180043328     libcpmt:syserror.obj
 0002:00001338       ??_C@_0BO@EFGOJEF@too?5many?5symbolic?5link?5levels@ 0000000180043338     libcpmt:syserror.obj
 0002:00001358       ??_C@_0BA@KGKGOOJA@value?5too?5large@ 0000000180043358     libcpmt:syserror.obj
 0002:00001368       ??_C@_0BE@MIEJDDNH@wrong?5protocol?5type@ 0000000180043368     libcpmt:syserror.obj
 0002:00001380       ??_C@_1BK@MGMFAEKH@?$AAk?$AAe?$AAr?$AAn?$AAe?$AAl?$AA3?$AA2?$AA?4?$AAd?$AAl?$AAl@ 0000000180043380     libcpmt:winapisupp.obj
 0002:000013a0       ??_C@_08KNHFBNJ@FlsAlloc@  00000001800433a0     libcpmt:winapisupp.obj
 0002:000013b0       ??_C@_07PEJMOBNF@FlsFree@  00000001800433b0     libcpmt:winapisupp.obj
 0002:000013b8       ??_C@_0M@GDNOONDI@FlsGetValue@ 00000001800433b8     libcpmt:winapisupp.obj
 0002:000013c8       ??_C@_0M@JCPCPOEF@FlsSetValue@ 00000001800433c8     libcpmt:winapisupp.obj
 0002:000013d8       ??_C@_0BM@HCFOFFN@InitializeCriticalSectionEx@ 00000001800433d8     libcpmt:winapisupp.obj
 0002:000013f8       ??_C@_0BE@GPLMMCMH@InitOnceExecuteOnce@ 00000001800433f8     libcpmt:winapisupp.obj
 0002:00001410       ??_C@_0P@DLHPPCNH@CreateEventExW@ 0000000180043410     libcpmt:winapisupp.obj
 0002:00001420       ??_C@_0BB@MEFPJLHN@CreateSemaphoreW@ 0000000180043420     libcpmt:winapisupp.obj
 0002:00001438       ??_C@_0BD@KIEEOEEH@CreateSemaphoreExW@ 0000000180043438     libcpmt:winapisupp.obj
 0002:00001450       ??_C@_0BG@OGFAJCKC@CreateThreadpoolTimer@ 0000000180043450     libcpmt:winapisupp.obj
 0002:00001468       ??_C@_0BD@LPLEMMDI@SetThreadpoolTimer@ 0000000180043468     libcpmt:winapisupp.obj
 0002:00001480       ??_C@_0CA@FMNJENH@WaitForThreadpoolTimerCallbacks@ 0000000180043480     libcpmt:winapisupp.obj
 0002:000014a0       ??_C@_0BF@DCFCCNOC@CloseThreadpoolTimer@ 00000001800434a0     libcpmt:winapisupp.obj
 0002:000014b8       ??_C@_0BF@FLABGKKM@CreateThreadpoolWait@ 00000001800434b8     libcpmt:winapisupp.obj
 0002:000014d0       ??_C@_0BC@MGCOHNA@SetThreadpoolWait@ 00000001800434d0     libcpmt:winapisupp.obj
 0002:000014e8       ??_C@_0BE@OCIOMIMP@CloseThreadpoolWait@ 00000001800434e8     libcpmt:winapisupp.obj
 0002:00001500       ??_C@_0BJ@LKGHFHBO@FlushProcessWriteBuffers@ 0000000180043500     libcpmt:winapisupp.obj
 0002:00001520       ??_C@_0BP@KALKKPMO@FreeLibraryWhenCallbackReturns@ 0000000180043520     libcpmt:winapisupp.obj
 0002:00001540       ??_C@_0BK@DFNBACLA@GetCurrentProcessorNumber@ 0000000180043540     libcpmt:winapisupp.obj
 0002:00001560       ??_C@_0BE@FKKLLFLM@CreateSymbolicLinkW@ 0000000180043560     libcpmt:winapisupp.obj
 0002:00001578       ??_C@_0BE@JOGNEJCI@GetCurrentPackageId@ 0000000180043578     libcpmt:winapisupp.obj
 0002:00001590       ??_C@_0P@CDHHOHKP@GetTickCount64@ 0000000180043590     libcpmt:winapisupp.obj
 0002:000015a0       ??_C@_0BN@NEEHBBPO@GetFileInformationByHandleEx@ 00000001800435a0     libcpmt:winapisupp.obj
 0002:000015c0       ??_C@_0BL@KBBHGKCM@SetFileInformationByHandle@ 00000001800435c0     libcpmt:winapisupp.obj
 0002:000015e0       ??_C@_0BP@FPNJPEJC@GetSystemTimePreciseAsFileTime@ 00000001800435e0     libcpmt:winapisupp.obj
 0002:00001600       ??_C@_0BM@HLJJNPAH@InitializeConditionVariable@ 0000000180043600     libcpmt:winapisupp.obj
 0002:00001620       ??_C@_0BG@BFNILBLN@WakeConditionVariable@ 0000000180043620     libcpmt:winapisupp.obj
 0002:00001638       ??_C@_0BJ@PGPPEPCC@WakeAllConditionVariable@ 0000000180043638     libcpmt:winapisupp.obj
 0002:00001658       ??_C@_0BJ@JEBJOJFJ@SleepConditionVariableCS@ 0000000180043658     libcpmt:winapisupp.obj
 0002:00001678       ??_C@_0BC@MMLHEBPB@InitializeSRWLock@ 0000000180043678     libcpmt:winapisupp.obj
 0002:00001690       ??_C@_0BI@OMNLIJDB@AcquireSRWLockExclusive@ 0000000180043690     libcpmt:winapisupp.obj
 0002:000016a8       ??_C@_0BL@OGHFEMNA@TryAcquireSRWLockExclusive@ 00000001800436a8     libcpmt:winapisupp.obj
 0002:000016c8       ??_C@_0BI@HMIEPCNJ@ReleaseSRWLockExclusive@ 00000001800436c8     libcpmt:winapisupp.obj
 0002:000016e0       ??_C@_0BK@LGACAGIC@SleepConditionVariableSRW@ 00000001800436e0     libcpmt:winapisupp.obj
 0002:00001700       ??_C@_0BF@GGPHFPJA@CreateThreadpoolWork@ 0000000180043700     libcpmt:winapisupp.obj
 0002:00001718       ??_C@_0BF@NHDAIMMO@SubmitThreadpoolWork@ 0000000180043718     libcpmt:winapisupp.obj
 0002:00001730       ??_C@_0BE@NPHIPNPD@CloseThreadpoolWork@ 0000000180043730     libcpmt:winapisupp.obj
 0002:00001748       ??_C@_0BA@IHGNDAEB@CompareStringEx@ 0000000180043748     libcpmt:winapisupp.obj
 0002:00001758       ??_C@_0BA@ONOKGCMP@GetLocaleInfoEx@ 0000000180043758     libcpmt:winapisupp.obj
 0002:00001768       ??_C@_0O@KKBNKAPF@LCMapStringEx@ 0000000180043768     libcpmt:winapisupp.obj
 0002:00001780       ??_7?$ctype@D@std@@6B@     0000000180043780     libcpmt:locale.obj
 0002:000017e0       ??_7?$num_put@DV?$ostreambuf_iterator@DU?$char_traits@D@std@@@std@@@std@@6B@ 00000001800437e0     libcpmt:locale.obj
 0002:00001840       ??_7?$numpunct@D@std@@6B@  0000000180043840     libcpmt:locale.obj
 0002:000018a8       ??_C@_11LOCGONAA@@         00000001800438a8     libcpmt:wlocale.obj
 0002:000018ac       ??_C@_01JOAMLHOP@?9@       00000001800438ac     libcpmt:wlocale.obj
 0002:000018b0       __xmm@80000000000000008000000000000000 00000001800438b0     libcpmt:wlocale.obj
 0002:000035e0       ??_C@_15EMKDOKLE@?$AAa?$AAr@ 00000001800455e0     libcpmt:winapinls.obj
 0002:000035e8       ??_C@_15KNPADPLH@?$AAb?$AAg@ 00000001800455e8     libcpmt:winapinls.obj
 0002:000035f0       ??_C@_15EDMHLDMO@?$AAc?$AAa@ 00000001800455f0     libcpmt:winapinls.obj
 0002:000035f8       ??_C@_1O@BPEAJADD@?$AAz?$AAh?$AA?9?$AAC?$AAH?$AAS@ 00000001800455f8     libcpmt:winapinls.obj
 0002:00003608       ??_C@_15LJNHCMNK@?$AAc?$AAs@ 0000000180045608     libcpmt:winapinls.obj
 0002:00003610       ??_C@_15FOMCIDHG@?$AAd?$AAa@ 0000000180045610     libcpmt:winapinls.obj
 0002:00003618       ??_C@_15NBKABECB@?$AAd?$AAe@ 0000000180045618     libcpmt:winapinls.obj
 0002:00003620       ??_C@_15GHPEIIAO@?$AAe?$AAl@ 0000000180045620     libcpmt:winapinls.obj
 0002:00003628       ??_C@_15MNPNEAIF@?$AAe?$AAn@ 0000000180045628     libcpmt:winapinls.obj
 0002:00003630       ??_C@_15GPIOMPMH@?$AAe?$AAs@ 0000000180045630     libcpmt:winapinls.obj
 0002:00003638       ??_C@_15NGLOAKJC@?$AAf?$AAi@ 0000000180045638     libcpmt:winapinls.obj
 0002:00003640       ??_C@_15FBKGNKAM@?$AAf?$AAr@ 0000000180045640     libcpmt:winapinls.obj
 0002:00003648       ??_C@_15KGGCNEFK@?$AAh?$AAe@ 0000000180045648     libcpmt:winapinls.obj
 0002:00003650       ??_C@_15PGHLIDMF@?$AAh?$AAu@ 0000000180045650     libcpmt:winapinls.obj
 0002:00003658       ??_C@_15BIEMAPLM@?$AAi?$AAs@ 0000000180045658     libcpmt:winapinls.obj
 0002:00003660       ??_C@_15IFJLDHAF@?$AAi?$AAt@ 0000000180045660     libcpmt:winapinls.obj
 0002:00003668       ??_C@_15GEMIOCAG@?$AAj?$AAa@ 0000000180045668     libcpmt:winapinls.obj
 0002:00003670       ??_C@_15EPELEGJA@?$AAk?$AAo@ 0000000180045670     libcpmt:winapinls.obj
 0002:00003678       ??_C@_15NDDHIMN@?$AAn?$AAl@ 0000000180045678     libcpmt:winapinls.obj
 0002:00003680       ??_C@_15BPIGNHCD@?$AAn?$AAo@ 0000000180045680     libcpmt:winapinls.obj
 0002:00003688       ??_C@_15DEOPBLCG@?$AAp?$AAl@ 0000000180045688     libcpmt:winapinls.obj
 0002:00003690       ??_C@_15KBECGEFG@?$AAp?$AAt@ 0000000180045690     libcpmt:winapinls.obj
 0002:00003698       ??_C@_15GLJCBFMD@?$AAr?$AAo@ 0000000180045698     libcpmt:winapinls.obj
 0002:000036a0       ??_C@_15FEDGKCDI@?$AAr?$AAu@ 00000001800456a0     libcpmt:winapinls.obj
 0002:000036a8       ??_C@_15GLKMLLHM@?$AAh?$AAr@ 00000001800456a8     libcpmt:winapinls.obj
 0002:000036b0       ??_C@_15CPKMFBDB@?$AAs?$AAk@ 00000001800456b0     libcpmt:winapinls.obj
 0002:000036b8       ??_C@_15BAAIOGMK@?$AAs?$AAq@ 00000001800456b8     libcpmt:winapinls.obj
 0002:000036c0       ??_C@_15INNPNOHD@?$AAs?$AAv@ 00000001800456c0     libcpmt:winapinls.obj
 0002:000036c8       ??_C@_15CABMMOGH@?$AAt?$AAh@ 00000001800456c8     libcpmt:winapinls.obj
 0002:000036d0       ??_C@_15BPLIHJJM@?$AAt?$AAr@ 00000001800456d0     libcpmt:winapinls.obj
 0002:000036d8       ??_C@_15NEOEKKDJ@?$AAu?$AAr@ 00000001800456d8     libcpmt:winapinls.obj
 0002:000036e0       ??_C@_15NFICGAJK@?$AAi?$AAd@ 00000001800456e0     libcpmt:winapinls.obj
 0002:000036e8       ??_C@_15PJPFLCCM@?$AAu?$AAk@ 00000001800456e8     libcpmt:winapinls.obj
 0002:000036f0       ??_C@_15HPJPHDM@?$AAb?$AAe@ 00000001800456f0     libcpmt:winapinls.obj
 0002:000036f8       ??_C@_15LCHLGJII@?$AAs?$AAl@ 00000001800456f8     libcpmt:winapinls.obj
 0002:00003700       ??_C@_15PCFJPHHO@?$AAe?$AAt@ 0000000180045700     libcpmt:winapinls.obj
 0002:00003708       ??_C@_15HPFPGODN@?$AAl?$AAv@ 0000000180045708     libcpmt:winapinls.obj
 0002:00003710       ??_C@_15NFFGKGLG@?$AAl?$AAt@ 0000000180045710     libcpmt:winapinls.obj
 0002:00003718       ??_C@_15BDAKCCHN@?$AAf?$AAa@ 0000000180045718     libcpmt:winapinls.obj
 0002:00003720       ??_C@_15NFGIAIAJ@?$AAv?$AAi@ 0000000180045720     libcpmt:winapinls.obj
 0002:00003728       ??_C@_15LMKNDMHN@?$AAh?$AAy@ 0000000180045728     libcpmt:winapinls.obj
 0002:00003730       ??_C@_15IJBHMCFL@?$AAa?$AAz@ 0000000180045730     libcpmt:winapinls.obj
 0002:00003738       ??_C@_15EKOFJABL@?$AAe?$AAu@ 0000000180045738     libcpmt:winapinls.obj
 0002:00003740       ??_C@_15BGHADCNK@?$AAm?$AAk@ 0000000180045740     libcpmt:winapinls.obj
 0002:00003748       ??_C@_15JDNICKHM@?$AAa?$AAf@ 0000000180045748     libcpmt:winapinls.obj
 0002:00003750       ??_C@_15KPJEDBKD@?$AAk?$AAa@ 0000000180045750     libcpmt:winapinls.obj
 0002:00003758       ??_C@_15PDNFFFEO@?$AAf?$AAo@ 0000000180045758     libcpmt:winapinls.obj
 0002:00003760       ??_C@_15OMLEGLOC@?$AAh?$AAi@ 0000000180045760     libcpmt:winapinls.obj
 0002:00003768       ??_C@_15IDNNENKK@?$AAm?$AAs@ 0000000180045768     libcpmt:winapinls.obj
 0002:00003770       ??_C@_15MACJNBMH@?$AAk?$AAk@ 0000000180045770     libcpmt:winapinls.obj
 0002:00003778       ??_C@_15DKDJEOND@?$AAk?$AAy@ 0000000180045778     libcpmt:winapinls.obj
 0002:00003780       ??_C@_15DFGDLJBG@?$AAs?$AAw@ 0000000180045780     libcpmt:winapinls.obj
 0002:00003788       ??_C@_15BBFAICNG@?$AAu?$AAz@ 0000000180045788     libcpmt:winapinls.obj
 0002:00003790       ??_C@_15DKNDCGEA@?$AAt?$AAt@ 0000000180045790     libcpmt:winapinls.obj
 0002:00003798       ??_C@_15MGIFMDPL@?$AAp?$AAa@ 0000000180045798     libcpmt:winapinls.obj
 0002:000037a0       ??_C@_15HCNDBBA@?$AAg?$AAu@ 00000001800457a0     libcpmt:winapinls.obj
 0002:000037a8       ??_C@_15FNBEIBON@?$AAt?$AAa@ 00000001800457a8     libcpmt:winapinls.obj
 0002:000037b0       ??_C@_15NCHGBGLK@?$AAt?$AAe@ 00000001800457b0     libcpmt:winapinls.obj
 0002:000037b8       ??_C@_15PHPHCBPF@?$AAk?$AAn@ 00000001800457b8     libcpmt:winapinls.obj
 0002:000037c0       ??_C@_15DLGBCKMP@?$AAm?$AAr@ 00000001800457c0     libcpmt:winapinls.obj
 0002:000037c8       ??_C@_15EABBLBFF@?$AAs?$AAa@ 00000001800457c8     libcpmt:winapinls.obj
 0002:000037d0       ??_C@_15CBKOMCOI@?$AAm?$AAn@ 00000001800457d0     libcpmt:winapinls.obj
 0002:000037d8       ??_C@_15CKDMCJAF@?$AAg?$AAl@ 00000001800457d8     libcpmt:winapinls.obj
 0002:000037e0       ??_C@_17CNJFBPG@?$AAk?$AAo?$AAk@ 00000001800457e0     libcpmt:winapinls.obj
 0002:000037e8       ??_C@_17FFBJICPL@?$AAs?$AAy?$AAr@ 00000001800457e8     libcpmt:winapinls.obj
 0002:000037f0       ??_C@_17KPNDCPAF@?$AAd?$AAi?$AAv@ 00000001800457f0     libcpmt:winapinls.obj
 0002:000037f8       ??_C@_1M@OKAHONE@?$AAa?$AAr?$AA?9?$AAS?$AAA@ 00000001800457f8     libcpmt:winapinls.obj
 0002:00003808       ??_C@_1M@FFFIGIGK@?$AAb?$AAg?$AA?9?$AAB?$AAG@ 0000000180045808     libcpmt:winapinls.obj
 0002:00003818       ??_C@_1M@BJNKEDC@?$AAc?$AAa?$AA?9?$AAE?$AAS@ 0000000180045818     libcpmt:winapinls.obj
 0002:00003828       ??_C@_1M@CLNBBOPM@?$AAz?$AAh?$AA?9?$AAT?$AAW@ 0000000180045828     libcpmt:winapinls.obj
 0002:00003838       ??_C@_1M@IJJHFJHA@?$AAc?$AAs?$AA?9?$AAC?$AAZ@ 0000000180045838     libcpmt:winapinls.obj
 0002:00003848       ??_C@_1M@CLPEOBGI@?$AAd?$AAa?$AA?9?$AAD?$AAK@ 0000000180045848     libcpmt:winapinls.obj
 0002:00003858       ??_C@_1M@MCMADGCB@?$AAd?$AAe?$AA?9?$AAD?$AAE@ 0000000180045858     libcpmt:winapinls.obj
 0002:00003868       ??_C@_1M@OOCKEMAM@?$AAe?$AAl?$AA?9?$AAG?$AAR@ 0000000180045868     libcpmt:winapinls.obj
 0002:00003878       ??_C@_1M@BMHNFIME@?$AAe?$AAn?$AA?9?$AAU?$AAS@ 0000000180045878     libcpmt:winapinls.obj
 0002:00003888       ??_C@_1M@DDNJFGID@?$AAf?$AAi?$AA?9?$AAF?$AAI@ 0000000180045888     libcpmt:winapinls.obj
 0002:00003898       ??_C@_1M@GLIPPMAC@?$AAf?$AAr?$AA?9?$AAF?$AAR@ 0000000180045898     libcpmt:winapinls.obj
 0002:000038a8       ??_C@_1M@GFMCHPE@?$AAh?$AAe?$AA?9?$AAI?$AAL@ 00000001800458a8     libcpmt:winapinls.obj
 0002:000038b8       ??_C@_1M@MHLPGNKM@?$AAh?$AAu?$AA?9?$AAH?$AAU@ 00000001800458b8     libcpmt:winapinls.obj
 0002:000038c8       ??_C@_1M@LPDDNNPN@?$AAi?$AAs?$AA?9?$AAI?$AAS@ 00000001800458c8     libcpmt:winapinls.obj
 0002:000038d8       ??_C@_1M@MADIPODN@?$AAi?$AAt?$AA?9?$AAI?$AAT@ 00000001800458d8     libcpmt:winapinls.obj
 0002:000038e8       ??_C@_1M@HPNHIDJI@?$AAj?$AAa?$AA?9?$AAJ?$AAP@ 00000001800458e8     libcpmt:winapinls.obj
 0002:000038f8       ??_C@_1M@JLOOOEGK@?$AAk?$AAo?$AA?9?$AAK?$AAR@ 00000001800458f8     libcpmt:winapinls.obj
 0002:00003908       ??_C@_1M@IHBJJGG@?$AAn?$AAl?$AA?9?$AAN?$AAL@ 0000000180045908     libcpmt:winapinls.obj
 0002:00003918       ??_C@_1M@EANAGDL@?$AAn?$AAb?$AA?9?$AAN?$AAO@ 0000000180045918     libcpmt:winapinls.obj
 0002:00003928       ??_C@_1M@NEIEMEGP@?$AAp?$AAl?$AA?9?$AAP?$AAL@ 0000000180045928     libcpmt:winapinls.obj
 0002:00003938       ??_C@_1M@BOCFIGEP@?$AAp?$AAt?$AA?9?$AAB?$AAR@ 0000000180045938     libcpmt:winapinls.obj
 0002:00003948       ??_C@_1M@IMPFOPBG@?$AAr?$AAo?$AA?9?$AAR?$AAO@ 0000000180045948     libcpmt:winapinls.obj
 0002:00003958       ??_C@_1M@IDNNEJMM@?$AAr?$AAu?$AA?9?$AAR?$AAU@ 0000000180045958     libcpmt:winapinls.obj
 0002:00003968       ??_C@_1M@LILEEOGM@?$AAh?$AAr?$AA?9?$AAH?$AAR@ 0000000180045968     libcpmt:winapinls.obj
 0002:00003978       ??_C@_1M@FKIFEHPB@?$AAs?$AAk?$AA?9?$AAS?$AAK@ 0000000180045978     libcpmt:winapinls.obj
 0002:00003988       ??_C@_1M@LJMAMNPJ@?$AAs?$AAq?$AA?9?$AAA?$AAL@ 0000000180045988     libcpmt:winapinls.obj
 0002:00003998       ??_C@_1M@GIAKDKJK@?$AAs?$AAv?$AA?9?$AAS?$AAE@ 0000000180045998     libcpmt:winapinls.obj
 0002:000039a8       ??_C@_1M@MKJKIKCL@?$AAt?$AAh?$AA?9?$AAT?$AAH@ 00000001800459a8     libcpmt:winapinls.obj
 0002:000039b8       ??_C@_1M@MFLCCMPB@?$AAt?$AAr?$AA?9?$AAT?$AAR@ 00000001800459b8     libcpmt:winapinls.obj
 0002:000039c8       ??_C@_1M@OIJHDKJN@?$AAu?$AAr?$AA?9?$AAP?$AAK@ 00000001800459c8     libcpmt:winapinls.obj
 0002:000039d8       ??_C@_1M@LHIPCIEK@?$AAi?$AAd?$AA?9?$AAI?$AAD@ 00000001800459d8     libcpmt:winapinls.obj
 0002:000039e8       ??_C@_1M@MFMOBGI@?$AAu?$AAk?$AA?9?$AAU?$AAA@ 00000001800459e8     libcpmt:winapinls.obj
 0002:000039f8       ??_C@_1M@OBGLJIPL@?$AAb?$AAe?$AA?9?$AAB?$AAY@ 00000001800459f8     libcpmt:winapinls.obj
 0002:00003a08       ??_C@_1M@BCFAJEAD@?$AAs?$AAl?$AA?9?$AAS?$AAI@ 0000000180045a08     libcpmt:winapinls.obj
 0002:00003a18       ??_C@_1M@FKFFEDDN@?$AAe?$AAt?$AA?9?$AAE?$AAE@ 0000000180045a18     libcpmt:winapinls.obj
 0002:00003a28       ??_C@_1M@KGKKAACI@?$AAl?$AAv?$AA?9?$AAL?$AAV@ 0000000180045a28     libcpmt:winapinls.obj
 0002:00003a38       ??_C@_1M@IFGBIJO@?$AAl?$AAt?$AA?9?$AAL?$AAT@ 0000000180045a38     libcpmt:winapinls.obj
 0002:00003a48       ??_C@_1M@FGEAHEDM@?$AAf?$AAa?$AA?9?$AAI?$AAR@ 0000000180045a48     libcpmt:winapinls.obj
 0002:00003a58       ??_C@_1M@KBMAIBFN@?$AAv?$AAi?$AA?9?$AAV?$AAN@ 0000000180045a58     libcpmt:winapinls.obj
 0002:00003a68       ??_C@_1M@GPCBKDJK@?$AAh?$AAy?$AA?9?$AAA?$AAM@ 0000000180045a68     libcpmt:winapinls.obj
 0002:00003a78       ??_C@_1BG@BECMDDJB@?$AAa?$AAz?$AA?9?$AAA?$AAZ?$AA?9?$AAL?$AAa?$AAt?$AAn@ 0000000180045a78     libcpmt:winapinls.obj
 0002:00003a90       ??_C@_1M@MAOFCAEA@?$AAe?$AAu?$AA?9?$AAE?$AAS@ 0000000180045a90     libcpmt:winapinls.obj
 0002:00003aa0       ??_C@_1M@IGHABKPI@?$AAm?$AAk?$AA?9?$AAM?$AAK@ 0000000180045aa0     libcpmt:winapinls.obj
 0002:00003ab0       ??_C@_1M@IAIGNEJG@?$AAt?$AAn?$AA?9?$AAZ?$AAA@ 0000000180045ab0     libcpmt:winapinls.obj
 0002:00003ac0       ??_C@_1M@IIJCOJFA@?$AAx?$AAh?$AA?9?$AAZ?$AAA@ 0000000180045ac0     libcpmt:winapinls.obj
 0002:00003ad0       ??_C@_1M@LGPJHNJH@?$AAz?$AAu?$AA?9?$AAZ?$AAA@ 0000000180045ad0     libcpmt:winapinls.obj
 0002:00003ae0       ??_C@_1M@HOKAOIO@?$AAa?$AAf?$AA?9?$AAZ?$AAA@ 0000000180045ae0     libcpmt:winapinls.obj
 0002:00003af0       ??_C@_1M@DPCLHLIE@?$AAk?$AAa?$AA?9?$AAG?$AAE@ 0000000180045af0     libcpmt:winapinls.obj
 0002:00003b00       ??_C@_1M@BLKMHJBI@?$AAf?$AAo?$AA?9?$AAF?$AAO@ 0000000180045b00     libcpmt:winapinls.obj
 0002:00003b10       ??_C@_1M@LGGJAPPB@?$AAh?$AAi?$AA?9?$AAI?$AAN@ 0000000180045b10     libcpmt:winapinls.obj
 0002:00003b20       ??_C@_1M@FIKPIHFE@?$AAm?$AAt?$AA?9?$AAM?$AAT@ 0000000180045b20     libcpmt:winapinls.obj
 0002:00003b30       ??_C@_1M@HEGGPBFA@?$AAs?$AAe?$AA?9?$AAN?$AAO@ 0000000180045b30     libcpmt:winapinls.obj
 0002:00003b40       ??_C@_1M@EIBJEEPA@?$AAm?$AAs?$AA?9?$AAM?$AAY@ 0000000180045b40     libcpmt:winapinls.obj
 0002:00003b50       ??_C@_1M@FHLBGMPP@?$AAk?$AAk?$AA?9?$AAK?$AAZ@ 0000000180045b50     libcpmt:winapinls.obj
 0002:00003b60       ??_C@_1M@NGJJLCGI@?$AAk?$AAy?$AA?9?$AAK?$AAG@ 0000000180045b60     libcpmt:winapinls.obj
 0002:00003b70       ??_C@_1M@GIENNBFC@?$AAs?$AAw?$AA?9?$AAK?$AAE@ 0000000180045b70     libcpmt:winapinls.obj
 0002:00003b80       ??_C@_1BG@NDGMJIMJ@?$AAu?$AAz?$AA?9?$AAU?$AAZ?$AA?9?$AAL?$AAa?$AAt?$AAn@ 0000000180045b80     libcpmt:winapinls.obj
 0002:00003b98       ??_C@_1M@IDCCIHBC@?$AAt?$AAt?$AA?9?$AAR?$AAU@ 0000000180045b98     libcpmt:winapinls.obj
 0002:00003ba8       ??_C@_1M@LOICPMOJ@?$AAb?$AAn?$AA?9?$AAI?$AAN@ 0000000180045ba8     libcpmt:winapinls.obj
 0002:00003bb8       ??_C@_1M@KPKKNEAH@?$AAp?$AAa?$AA?9?$AAI?$AAN@ 0000000180045bb8     libcpmt:winapinls.obj
 0002:00003bc8       ??_C@_1M@PJGPPBOG@?$AAg?$AAu?$AA?9?$AAI?$AAN@ 0000000180045bc8     libcpmt:winapinls.obj
 0002:00003bd8       ??_C@_1M@KMKMOPHI@?$AAt?$AAa?$AA?9?$AAI?$AAN@ 0000000180045bd8     libcpmt:winapinls.obj
 0002:00003be8       ??_C@_1M@KFEHEPAC@?$AAt?$AAe?$AA?9?$AAI?$AAN@ 0000000180045be8     libcpmt:winapinls.obj
 0002:00003bf8       ??_C@_1M@CDCLMGHI@?$AAk?$AAn?$AA?9?$AAI?$AAN@ 0000000180045bf8     libcpmt:winapinls.obj
 0002:00003c08       ??_C@_1M@MIODLDKF@?$AAm?$AAl?$AA?9?$AAI?$AAN@ 0000000180045c08     libcpmt:winapinls.obj
 0002:00003c18       ??_C@_1M@PBIEACPO@?$AAm?$AAr?$AA?9?$AAI?$AAN@ 0000000180045c18     libcpmt:winapinls.obj
 0002:00003c28       ??_C@_1M@NIDEAGPH@?$AAs?$AAa?$AA?9?$AAI?$AAN@ 0000000180045c28     libcpmt:winapinls.obj
 0002:00003c38       ??_C@_1M@FHIHCBIO@?$AAm?$AAn?$AA?9?$AAM?$AAN@ 0000000180045c38     libcpmt:winapinls.obj
 0002:00003c48       ??_C@_1M@JAIJPENP@?$AAc?$AAy?$AA?9?$AAG?$AAB@ 0000000180045c48     libcpmt:winapinls.obj
 0002:00003c58       ??_C@_1M@PHGFBEPN@?$AAg?$AAl?$AA?9?$AAE?$AAS@ 0000000180045c58     libcpmt:winapinls.obj
 0002:00003c68       ??_C@_1O@KPIPDNCP@?$AAk?$AAo?$AAk?$AA?9?$AAI?$AAN@ 0000000180045c68     libcpmt:winapinls.obj
 0002:00003c78       ??_C@_1O@KNHJLDJA@?$AAs?$AAy?$AAr?$AA?9?$AAS?$AAY@ 0000000180045c78     libcpmt:winapinls.obj
 0002:00003c88       ??_C@_1O@MKEKBLAH@?$AAd?$AAi?$AAv?$AA?9?$AAM?$AAV@ 0000000180045c88     libcpmt:winapinls.obj
 0002:00003c98       ??_C@_1O@OHDCKDDF@?$AAq?$AAu?$AAz?$AA?9?$AAB?$AAO@ 0000000180045c98     libcpmt:winapinls.obj
 0002:00003ca8       ??_C@_1M@LEPJNLFD@?$AAn?$AAs?$AA?9?$AAZ?$AAA@ 0000000180045ca8     libcpmt:winapinls.obj
 0002:00003cb8       ??_C@_1M@OMLEIIJB@?$AAm?$AAi?$AA?9?$AAN?$AAZ@ 0000000180045cb8     libcpmt:winapinls.obj
 0002:00003cc8       ??_C@_1M@PMPEAILG@?$AAa?$AAr?$AA?9?$AAI?$AAQ@ 0000000180045cc8     libcpmt:winapinls.obj
 0002:00003cd8       ??_C@_1M@BIBDDEMK@?$AAz?$AAh?$AA?9?$AAC?$AAN@ 0000000180045cd8     libcpmt:winapinls.obj
 0002:00003ce8       ??_C@_1M@CNKPNOEE@?$AAd?$AAe?$AA?9?$AAC?$AAH@ 0000000180045ce8     libcpmt:winapinls.obj
 0002:00003cf8       ??_C@_1M@LKMGMLKO@?$AAe?$AAn?$AA?9?$AAG?$AAB@ 0000000180045cf8     libcpmt:winapinls.obj
 0002:00003d08       ??_C@_1M@PGKJFFGL@?$AAe?$AAs?$AA?9?$AAM?$AAX@ 0000000180045d08     libcpmt:winapinls.obj
 0002:00003d18       ??_C@_1M@DNNANBDC@?$AAf?$AAr?$AA?9?$AAB?$AAE@ 0000000180045d18     libcpmt:winapinls.obj
 0002:00003d28       ??_C@_1M@HLGMDFHM@?$AAi?$AAt?$AA?9?$AAC?$AAH@ 0000000180045d28     libcpmt:winapinls.obj
 0002:00003d38       ??_C@_1M@CLLBGJH@?$AAn?$AAl?$AA?9?$AAB?$AAE@ 0000000180045d38     libcpmt:winapinls.obj
 0002:00003d48       ??_C@_1M@BODBOGLF@?$AAn?$AAn?$AA?9?$AAN?$AAO@ 0000000180045d48     libcpmt:winapinls.obj
 0002:00003d58       ??_C@_1M@HFFAHKAD@?$AAp?$AAt?$AA?9?$AAP?$AAT@ 0000000180045d58     libcpmt:winapinls.obj
 0002:00003d68       ??_C@_1BG@LNOAKHIE@?$AAs?$AAr?$AA?9?$AAS?$AAP?$AA?9?$AAL?$AAa?$AAt?$AAn@ 0000000180045d68     libcpmt:winapinls.obj
 0002:00003d80       ??_C@_1M@HBMHBGAK@?$AAs?$AAv?$AA?9?$AAF?$AAI@ 0000000180045d80     libcpmt:winapinls.obj
 0002:00003d90       ??_C@_1BG@DGCJGJBE@?$AAa?$AAz?$AA?9?$AAA?$AAZ?$AA?9?$AAC?$AAy?$AAr?$AAl@ 0000000180045d90     libcpmt:winapinls.obj
 0002:00003da8       ??_C@_1M@KEJDAAHB@?$AAs?$AAe?$AA?9?$AAS?$AAE@ 0000000180045da8     libcpmt:winapinls.obj
 0002:00003db8       ??_C@_1M@HEIBJJAD@?$AAm?$AAs?$AA?9?$AAB?$AAN@ 0000000180045db8     libcpmt:winapinls.obj
 0002:00003dc8       ??_C@_1BG@PBGJMCEM@?$AAu?$AAz?$AA?9?$AAU?$AAZ?$AA?9?$AAC?$AAy?$AAr?$AAl@ 0000000180045dc8     libcpmt:winapinls.obj
 0002:00003de0       ??_C@_1O@LAOBCMDF@?$AAq?$AAu?$AAz?$AA?9?$AAE?$AAC@ 0000000180045de0     libcpmt:winapinls.obj
 0002:00003df0       ??_C@_1M@POEEMAIO@?$AAa?$AAr?$AA?9?$AAE?$AAG@ 0000000180045df0     libcpmt:winapinls.obj
 0002:00003e00       ??_C@_1M@EFAKDEDL@?$AAz?$AAh?$AA?9?$AAH?$AAK@ 0000000180045e00     libcpmt:winapinls.obj
 0002:00003e10       ??_C@_1M@HKKIJHGI@?$AAd?$AAe?$AA?9?$AAA?$AAT@ 0000000180045e10     libcpmt:winapinls.obj
 0002:00003e20       ??_C@_1M@KBFBEHJF@?$AAe?$AAn?$AA?9?$AAA?$AAU@ 0000000180045e20     libcpmt:winapinls.obj
 0002:00003e30       ??_C@_1M@MNPLFAAH@?$AAe?$AAs?$AA?9?$AAE?$AAS@ 0000000180045e30     libcpmt:winapinls.obj
 0002:00003e40       ??_C@_1M@HJOOJFMA@?$AAf?$AAr?$AA?9?$AAC?$AAA@ 0000000180045e40     libcpmt:winapinls.obj
 0002:00003e50       ??_C@_1BG@JPOFPNAB@?$AAs?$AAr?$AA?9?$AAS?$AAP?$AA?9?$AAC?$AAy?$AAr?$AAl@ 0000000180045e50     libcpmt:winapinls.obj
 0002:00003e68       ??_C@_1M@LNFOCMOB@?$AAs?$AAe?$AA?9?$AAF?$AAI@ 0000000180045e68     libcpmt:winapinls.obj
 0002:00003e78       ??_C@_1O@MGJBOAMB@?$AAq?$AAu?$AAz?$AA?9?$AAP?$AAE@ 0000000180045e78     libcpmt:winapinls.obj
 0002:00003e88       ??_C@_1M@GJINLBOK@?$AAa?$AAr?$AA?9?$AAL?$AAY@ 0000000180045e88     libcpmt:winapinls.obj
 0002:00003e98       ??_C@_1M@GGMNHJNL@?$AAz?$AAh?$AA?9?$AAS?$AAG@ 0000000180045e98     libcpmt:winapinls.obj
 0002:00003ea8       ??_C@_1M@HOIKODND@?$AAd?$AAe?$AA?9?$AAL?$AAU@ 0000000180045ea8     libcpmt:winapinls.obj
 0002:00003eb8       ??_C@_1M@DDOCCGFG@?$AAe?$AAn?$AA?9?$AAC?$AAA@ 0000000180045eb8     libcpmt:winapinls.obj
 0002:00003ec8       ??_C@_1M@BNOEMJLF@?$AAe?$AAs?$AA?9?$AAG?$AAT@ 0000000180045ec8     libcpmt:winapinls.obj
 0002:00003ed8       ??_C@_1M@EOGNKEK@?$AAf?$AAr?$AA?9?$AAC?$AAH@ 0000000180045ed8     libcpmt:winapinls.obj
 0002:00003ee8       ??_C@_1M@FLIDJFHL@?$AAh?$AAr?$AA?9?$AAB?$AAA@ 0000000180045ee8     libcpmt:winapinls.obj
 0002:00003ef8       ??_C@_1O@FMCELNAJ@?$AAs?$AAm?$AAj?$AA?9?$AAN?$AAO@ 0000000180045ef8     libcpmt:winapinls.obj
 0002:00003f08       ??_C@_1M@JHGLJMGJ@?$AAa?$AAr?$AA?9?$AAD?$AAZ@ 0000000180045f08     libcpmt:winapinls.obj
 0002:00003f18       ??_C@_1M@JKKFDCNP@?$AAz?$AAh?$AA?9?$AAM?$AAO@ 0000000180045f18     libcpmt:winapinls.obj
 0002:00003f28       ??_C@_1M@GEEFALPE@?$AAd?$AAe?$AA?9?$AAL?$AAI@ 0000000180045f28     libcpmt:winapinls.obj
 0002:00003f38       ??_C@_1M@IGEOFBG@?$AAe?$AAn?$AA?9?$AAN?$AAZ@ 0000000180045f38     libcpmt:winapinls.obj
 0002:00003f48       ??_C@_1M@KDBONEHP@?$AAe?$AAs?$AA?9?$AAC?$AAR@ 0000000180045f48     libcpmt:winapinls.obj
 0002:00003f58       ??_C@_1M@FHMDOHNN@?$AAf?$AAr?$AA?9?$AAL?$AAU@ 0000000180045f58     libcpmt:winapinls.obj
 0002:00003f68       ??_C@_1BG@NFKKMAFG@?$AAb?$AAs?$AA?9?$AAB?$AAA?$AA?9?$AAL?$AAa?$AAt?$AAn@ 0000000180045f68     libcpmt:winapinls.obj
 0002:00003f80       ??_C@_1O@IMNBEMCI@?$AAs?$AAm?$AAj?$AA?9?$AAS?$AAE@ 0000000180045f80     libcpmt:winapinls.obj
 0002:00003f90       ??_C@_1M@DHHMBNDP@?$AAa?$AAr?$AA?9?$AAM?$AAA@ 0000000180045f90     libcpmt:winapinls.obj
 0002:00003fa0       ??_C@_1M@BNBLJCGH@?$AAe?$AAn?$AA?9?$AAI?$AAE@ 0000000180045fa0     libcpmt:winapinls.obj
 0002:00003fb0       ??_C@_1M@GEPAFMDL@?$AAe?$AAs?$AA?9?$AAP?$AAA@ 0000000180045fb0     libcpmt:winapinls.obj
 0002:00003fc0       ??_C@_1M@OJONDMDL@?$AAf?$AAr?$AA?9?$AAM?$AAC@ 0000000180045fc0     libcpmt:winapinls.obj
 0002:00003fd0       ??_C@_1BG@OBCNFJB@?$AAs?$AAr?$AA?9?$AAB?$AAA?$AA?9?$AAL?$AAa?$AAt?$AAn@ 0000000180045fd0     libcpmt:winapinls.obj
 0002:00003fe8       ??_C@_1O@KEMEEGPO@?$AAs?$AAm?$AAa?$AA?9?$AAN?$AAO@ 0000000180045fe8     libcpmt:winapinls.obj
 0002:00003ff8       ??_C@_1M@ELMGFODK@?$AAa?$AAr?$AA?9?$AAT?$AAN@ 0000000180045ff8     libcpmt:winapinls.obj
 0002:00004008       ??_C@_1M@BHDLHFAF@?$AAe?$AAn?$AA?9?$AAZ?$AAA@ 0000000180046008     libcpmt:winapinls.obj
 0002:00004018       ??_C@_1M@BMGIGLIF@?$AAe?$AAs?$AA?9?$AAD?$AAO@ 0000000180046018     libcpmt:winapinls.obj
 0002:00004028       ??_C@_1BG@CMBHIPBE@?$AAs?$AAr?$AA?9?$AAB?$AAA?$AA?9?$AAC?$AAy?$AAr?$AAl@ 0000000180046028     libcpmt:winapinls.obj
 0002:00004040       ??_C@_1O@HEDBLHNP@?$AAs?$AAm?$AAa?$AA?9?$AAS?$AAE@ 0000000180046040     libcpmt:winapinls.obj
 0002:00004050       ??_C@_1M@DAGCADIM@?$AAa?$AAr?$AA?9?$AAO?$AAM@ 0000000180046050     libcpmt:winapinls.obj
 0002:00004060       ??_C@_1M@FODLMICG@?$AAe?$AAn?$AA?9?$AAJ?$AAM@ 0000000180046060     libcpmt:winapinls.obj
 0002:00004070       ??_C@_1M@DNMLCIHB@?$AAe?$AAs?$AA?9?$AAV?$AAE@ 0000000180046070     libcpmt:winapinls.obj
 0002:00004080       ??_C@_1O@EOKHMKJK@?$AAs?$AAm?$AAs?$AA?9?$AAF?$AAI@ 0000000180046080     libcpmt:winapinls.obj
 0002:00004090       ??_C@_1M@CAFJMKOF@?$AAa?$AAr?$AA?9?$AAY?$AAE@ 0000000180046090     libcpmt:winapinls.obj
 0002:000040a0       ??_C@_1M@CBFHIJLI@?$AAe?$AAn?$AA?9?$AAC?$AAB@ 00000001800460a0     libcpmt:winapinls.obj
 0002:000040b0       ??_C@_1M@BGNFLDN@?$AAe?$AAs?$AA?9?$AAC?$AAO@ 00000001800460b0     libcpmt:winapinls.obj
 0002:000040c0       ??_C@_1O@JMPHMAMC@?$AAs?$AAm?$AAn?$AA?9?$AAF?$AAI@ 00000001800460c0     libcpmt:winapinls.obj
 0002:000040d0       ??_C@_1M@JLANABKE@?$AAa?$AAr?$AA?9?$AAS?$AAY@ 00000001800460d0     libcpmt:winapinls.obj
 0002:000040e0       ??_C@_1M@HPKGCFGN@?$AAe?$AAn?$AA?9?$AAB?$AAZ@ 00000001800460e0     libcpmt:winapinls.obj
 0002:000040f0       ??_C@_1M@OLJCMLGM@?$AAe?$AAs?$AA?9?$AAP?$AAE@ 00000001800460f0     libcpmt:winapinls.obj
 0002:00004100       ??_C@_1M@MKKGFKLE@?$AAa?$AAr?$AA?9?$AAJ?$AAO@ 0000000180046100     libcpmt:winapinls.obj
 0002:00004110       ??_C@_1M@EKPGLDNI@?$AAe?$AAn?$AA?9?$AAT?$AAT@ 0000000180046110     libcpmt:winapinls.obj
 0002:00004120       ??_C@_1M@OONGHFHE@?$AAe?$AAs?$AA?9?$AAA?$AAR@ 0000000180046120     libcpmt:winapinls.obj
 0002:00004130       ??_C@_1M@OOJFGBHE@?$AAa?$AAr?$AA?9?$AAL?$AAB@ 0000000180046130     libcpmt:winapinls.obj
 0002:00004140       ??_C@_1M@GCEJHNEG@?$AAe?$AAn?$AA?9?$AAZ?$AAW@ 0000000180046140     libcpmt:winapinls.obj
 0002:00004150       ??_C@_1M@JNOCAHJI@?$AAe?$AAs?$AA?9?$AAE?$AAC@ 0000000180046150     libcpmt:winapinls.obj
 0002:00004160       ??_C@_1M@JEFHPGGB@?$AAa?$AAr?$AA?9?$AAK?$AAW@ 0000000180046160     libcpmt:winapinls.obj
 0002:00004170       ??_C@_1M@MLKIBJOJ@?$AAe?$AAn?$AA?9?$AAP?$AAH@ 0000000180046170     libcpmt:winapinls.obj
 0002:00004180       ??_C@_1M@BDNIPEND@?$AAe?$AAs?$AA?9?$AAC?$AAL@ 0000000180046180     libcpmt:winapinls.obj
 0002:00004190       ??_C@_1M@MPNMEKBD@?$AAa?$AAr?$AA?9?$AAA?$AAE@ 0000000180046190     libcpmt:winapinls.obj
 0002:000041a0       ??_C@_1M@KBJALCPI@?$AAe?$AAs?$AA?9?$AAU?$AAY@ 00000001800461a0     libcpmt:winapinls.obj
 0002:000041b0       ??_C@_1M@LLCCOAGA@?$AAa?$AAr?$AA?9?$AAB?$AAH@ 00000001800461b0     libcpmt:winapinls.obj
 0002:000041c0       ??_C@_1M@PBFNCDEL@?$AAe?$AAs?$AA?9?$AAP?$AAY@ 00000001800461c0     libcpmt:winapinls.obj
 0002:000041d0       ??_C@_1M@EDGINPNP@?$AAa?$AAr?$AA?9?$AAQ?$AAA@ 00000001800461d0     libcpmt:winapinls.obj
 0002:000041e0       ??_C@_1M@MKDBIIJI@?$AAe?$AAs?$AA?9?$AAB?$AAO@ 00000001800461e0     libcpmt:winapinls.obj
 0002:000041f0       ??_C@_1M@CPKKEBLD@?$AAe?$AAs?$AA?9?$AAS?$AAV@ 00000001800461f0     libcpmt:winapinls.obj
 0002:00004200       ??_C@_1M@NDBGMMJL@?$AAe?$AAs?$AA?9?$AAH?$AAN@ 0000000180046200     libcpmt:winapinls.obj
 0002:00004210       ??_C@_1M@JIJIBHDP@?$AAe?$AAs?$AA?9?$AAN?$AAI@ 0000000180046210     libcpmt:winapinls.obj
 0002:00004220       ??_C@_1M@CGFMKEEK@?$AAe?$AAs?$AA?9?$AAP?$AAR@ 0000000180046220     libcpmt:winapinls.obj
 0002:00004230       ??_C@_1O@ICJHKIIK@?$AAz?$AAh?$AA?9?$AAC?$AAH?$AAT@ 0000000180046230     libcpmt:winapinls.obj
 0002:00004240       ??_C@_15CLNEJCE@?$AAs?$AAr@ 0000000180046240     libcpmt:winapinls.obj
 0002:00004248       ??_C@_1M@KAHEKEIG@?$AAa?$AAf?$AA?9?$AAz?$AAa@ 0000000180046248     libcpmt:winapinls.obj
 0002:00004258       ??_C@_1M@GIECOABL@?$AAa?$AAr?$AA?9?$AAa?$AAe@ 0000000180046258     libcpmt:winapinls.obj
 0002:00004268       ??_C@_1M@BMLMEKGI@?$AAa?$AAr?$AA?9?$AAb?$AAh@ 0000000180046268     libcpmt:winapinls.obj
 0002:00004278       ??_C@_1M@DAPFDGGB@?$AAa?$AAr?$AA?9?$AAd?$AAz@ 0000000180046278     libcpmt:winapinls.obj
 0002:00004288       ??_C@_1M@FJNKGKIG@?$AAa?$AAr?$AA?9?$AAe?$AAg@ 0000000180046288     libcpmt:winapinls.obj
 0002:00004298       ??_C@_1M@FLGKKCLO@?$AAa?$AAr?$AA?9?$AAi?$AAq@ 0000000180046298     libcpmt:winapinls.obj
 0002:000042a8       ??_C@_1M@GNDIPALM@?$AAa?$AAr?$AA?9?$AAj?$AAo@ 00000001800462a8     libcpmt:winapinls.obj
 0002:000042b8       ??_C@_1M@DDMJFMGJ@?$AAa?$AAr?$AA?9?$AAk?$AAw@ 00000001800462b8     libcpmt:winapinls.obj
 0002:000042c8       ??_C@_1M@EJALMLHM@?$AAa?$AAr?$AA?9?$AAl?$AAb@ 00000001800462c8     libcpmt:winapinls.obj
 0002:000042d8       ??_C@_1M@MOBDBLOC@?$AAa?$AAr?$AA?9?$AAl?$AAy@ 00000001800462d8     libcpmt:winapinls.obj
 0002:000042e8       ??_C@_1M@JAOCLHDH@?$AAa?$AAr?$AA?9?$AAm?$AAa@ 00000001800462e8     libcpmt:winapinls.obj
 0002:000042f8       ??_C@_1M@JHPMKJIE@?$AAa?$AAr?$AA?9?$AAo?$AAm@ 00000001800462f8     libcpmt:winapinls.obj
 0002:00004308       ??_C@_1M@OEPGHFNH@?$AAa?$AAr?$AA?9?$AAq?$AAa@ 0000000180046308     libcpmt:winapinls.obj
 0002:00004318       ??_C@_1M@KJDONENM@?$AAa?$AAr?$AA?9?$AAs?$AAa@ 0000000180046318     libcpmt:winapinls.obj
 0002:00004328       ??_C@_1M@DMJDKLKM@?$AAa?$AAr?$AA?9?$AAs?$AAy@ 0000000180046328     libcpmt:winapinls.obj
 0002:00004338       ??_C@_1M@OMFIPEDC@?$AAa?$AAr?$AA?9?$AAt?$AAn@ 0000000180046338     libcpmt:winapinls.obj
 0002:00004348       ??_C@_1M@IHMHGAON@?$AAa?$AAr?$AA?9?$AAy?$AAe@ 0000000180046348     libcpmt:winapinls.obj
 0002:00004358       ??_C@_1BG@KDCPGJGB@?$AAa?$AAz?$AA?9?$AAa?$AAz?$AA?9?$AAc?$AAy?$AAr?$AAl@ 0000000180046358     libcpmt:winapinls.obj
 0002:00004370       ??_C@_1BG@IBCKDDOE@?$AAa?$AAz?$AA?9?$AAa?$AAz?$AA?9?$AAl?$AAa?$AAt?$AAn@ 0000000180046370     libcpmt:winapinls.obj
 0002:00004388       ??_C@_1M@EGPFDCPD@?$AAb?$AAe?$AA?9?$AAb?$AAy@ 0000000180046388     libcpmt:winapinls.obj
 0002:00004398       ??_C@_1M@PCMGMCGC@?$AAb?$AAg?$AA?9?$AAb?$AAg@ 0000000180046398     libcpmt:winapinls.obj
 0002:000043a8       ??_C@_1M@BJBMFGOB@?$AAb?$AAn?$AA?9?$AAi?$AAn@ 00000001800463a8     libcpmt:winapinls.obj
 0002:000043b8       ??_C@_1BG@EAKMMACD@?$AAb?$AAs?$AA?9?$AAb?$AAa?$AA?9?$AAl?$AAa?$AAt?$AAn@ 00000001800463b8     libcpmt:winapinls.obj
 0002:000043d0       ??_C@_1M@KGADAODK@?$AAc?$AAa?$AA?9?$AAe?$AAs@ 00000001800463d0     libcpmt:winapinls.obj
 0002:000043e0       ??_C@_1M@COAJPDHI@?$AAc?$AAs?$AA?9?$AAc?$AAz@ 00000001800463e0     libcpmt:winapinls.obj
 0002:000043f0       ??_C@_1M@DHBHFONH@?$AAc?$AAy?$AA?9?$AAg?$AAb@ 00000001800463f0     libcpmt:winapinls.obj
 0002:00004400       ??_C@_1M@IMGKELGA@?$AAd?$AAa?$AA?9?$AAd?$AAk@ 0000000180046400     libcpmt:winapinls.obj
 0002:00004410       ??_C@_1M@NNDGDNGA@?$AAd?$AAe?$AA?9?$AAa?$AAt@ 0000000180046410     libcpmt:winapinls.obj
 0002:00004420       ??_C@_1M@IKDBHEEM@?$AAd?$AAe?$AA?9?$AAc?$AAh@ 0000000180046420     libcpmt:winapinls.obj
 0002:00004430       ??_C@_1M@GFFOJMCJ@?$AAd?$AAe?$AA?9?$AAd?$AAe@ 0000000180046430     libcpmt:winapinls.obj
 0002:00004440       ??_C@_1M@MDNLKBPM@?$AAd?$AAe?$AA?9?$AAl?$AAi@ 0000000180046440     libcpmt:winapinls.obj
 0002:00004450       ??_C@_1M@NJBEEJNL@?$AAd?$AAe?$AA?9?$AAl?$AAu@ 0000000180046450     libcpmt:winapinls.obj
 0002:00004460       ??_C@_1O@GNNELBAP@?$AAd?$AAi?$AAv?$AA?9?$AAm?$AAv@ 0000000180046460     libcpmt:winapinls.obj
 0002:00004470       ??_C@_1M@EJLEOGAE@?$AAe?$AAl?$AA?9?$AAg?$AAr@ 0000000180046470     libcpmt:winapinls.obj
 0002:00004480       ??_C@_1M@GMPONJN@?$AAe?$AAn?$AA?9?$AAa?$AAu@ 0000000180046480     libcpmt:winapinls.obj
 0002:00004490       ??_C@_1M@NIDIIPGF@?$AAe?$AAn?$AA?9?$AAb?$AAz@ 0000000180046490     libcpmt:winapinls.obj
 0002:000044a0       ??_C@_1M@JEHMIMFO@?$AAe?$AAn?$AA?9?$AAc?$AAa@ 00000001800464a0     libcpmt:winapinls.obj
 0002:000044b0       ??_C@_1M@IGMJCDLA@?$AAe?$AAn?$AA?9?$AAc?$AAb@ 00000001800464b0     libcpmt:winapinls.obj
 0002:000044c0       ??_C@_1M@BNFIGBKG@?$AAe?$AAn?$AA?9?$AAg?$AAb@ 00000001800464c0     libcpmt:winapinls.obj
 0002:000044d0       ??_C@_1M@LKIFDIGP@?$AAe?$AAn?$AA?9?$AAi?$AAe@ 00000001800464d0     libcpmt:winapinls.obj
 0002:000044e0       ??_C@_1M@PJKFGCCO@?$AAe?$AAn?$AA?9?$AAj?$AAm@ 00000001800464e0     libcpmt:winapinls.obj
 0002:000044f0       ??_C@_1M@KPPKEPBO@?$AAe?$AAn?$AA?9?$AAn?$AAz@ 00000001800464f0     libcpmt:winapinls.obj
 0002:00004500       ??_C@_1M@GMDGLDOB@?$AAe?$AAn?$AA?9?$AAp?$AAh@ 0000000180046500     libcpmt:winapinls.obj
 0002:00004510       ??_C@_1M@ONGIBJNA@?$AAe?$AAn?$AA?9?$AAt?$AAt@ 0000000180046510     libcpmt:winapinls.obj
 0002:00004520       ??_C@_1M@LLODPCMM@?$AAe?$AAn?$AA?9?$AAu?$AAs@ 0000000180046520     libcpmt:winapinls.obj
 0002:00004530       ??_C@_1M@LAKFNPAN@?$AAe?$AAn?$AA?9?$AAz?$AAa@ 0000000180046530     libcpmt:winapinls.obj
 0002:00004540       ??_C@_1M@MFNHNHEO@?$AAe?$AAn?$AA?9?$AAz?$AAw@ 0000000180046540     libcpmt:winapinls.obj
 0002:00004550       ??_C@_1M@EJEINPHM@?$AAe?$AAs?$AA?9?$AAa?$AAr@ 0000000180046550     libcpmt:winapinls.obj
 0002:00004560       ??_C@_1M@GNKPCCJA@?$AAe?$AAs?$AA?9?$AAb?$AAo@ 0000000180046560     libcpmt:winapinls.obj
 0002:00004570       ??_C@_1M@LEEGFONL@?$AAe?$AAs?$AA?9?$AAc?$AAl@ 0000000180046570     libcpmt:winapinls.obj
 0002:00004580       ??_C@_1M@KGPDPBDF@?$AAe?$AAs?$AA?9?$AAc?$AAo@ 0000000180046580     libcpmt:winapinls.obj
 0002:00004590       ??_C@_1M@EIAHOHH@?$AAe?$AAs?$AA?9?$AAc?$AAr@ 0000000180046590     libcpmt:winapinls.obj
 0002:000045a0       ??_C@_1M@LLPGMBIN@?$AAe?$AAs?$AA?9?$AAd?$AAo@ 00000001800465a0     libcpmt:winapinls.obj
 0002:000045b0       ??_C@_1M@DKHMKNJA@?$AAe?$AAs?$AA?9?$AAe?$AAc@ 00000001800465b0     libcpmt:winapinls.obj
 0002:000045c0       ??_C@_1M@GKGFPKAP@?$AAe?$AAs?$AA?9?$AAe?$AAs@ 00000001800465c0     libcpmt:winapinls.obj
 0002:000045d0       ??_C@_1M@LKHKGDLN@?$AAe?$AAs?$AA?9?$AAg?$AAt@ 00000001800465d0     libcpmt:winapinls.obj
 0002:000045e0       ??_C@_1M@HEIIGGJD@?$AAe?$AAs?$AA?9?$AAh?$AAn@ 00000001800465e0     libcpmt:winapinls.obj
 0002:000045f0       ??_C@_1M@FBDHPPGD@?$AAe?$AAs?$AA?9?$AAm?$AAx@ 00000001800465f0     libcpmt:winapinls.obj
 0002:00004600       ??_C@_1M@DPAGLNDH@?$AAe?$AAs?$AA?9?$AAn?$AAi@ 0000000180046600     libcpmt:winapinls.obj
 0002:00004610       ??_C@_1M@MDGOPGDD@?$AAe?$AAs?$AA?9?$AAp?$AAa@ 0000000180046610     libcpmt:winapinls.obj
 0002:00004620       ??_C@_1M@EMAMGBGE@?$AAe?$AAs?$AA?9?$AAp?$AAe@ 0000000180046620     libcpmt:winapinls.obj
 0002:00004630       ??_C@_1M@IBMCAOEC@?$AAe?$AAs?$AA?9?$AAp?$AAr@ 0000000180046630     libcpmt:winapinls.obj
 0002:00004640       ??_C@_1M@FGMDIJED@?$AAe?$AAs?$AA?9?$AAp?$AAy@ 0000000180046640     libcpmt:winapinls.obj
 0002:00004650       ??_C@_1M@IIDEOLLL@?$AAe?$AAs?$AA?9?$AAs?$AAv@ 0000000180046650     libcpmt:winapinls.obj
 0002:00004660       ??_C@_1M@GAOBIPA@?$AAe?$AAs?$AA?9?$AAu?$AAy@ 0000000180046660     libcpmt:winapinls.obj
 0002:00004670       ??_C@_1M@JKFFICHJ@?$AAe?$AAs?$AA?9?$AAv?$AAe@ 0000000180046670     libcpmt:winapinls.obj
 0002:00004680       ??_C@_1M@PNMLOJDF@?$AAe?$AAt?$AA?9?$AAe?$AAe@ 0000000180046680     libcpmt:winapinls.obj
 0002:00004690       ??_C@_1M@GHHLIKEI@?$AAe?$AAu?$AA?9?$AAe?$AAs@ 0000000180046690     libcpmt:winapinls.obj
 0002:000046a0       ??_C@_1M@PBNONODE@?$AAf?$AAa?$AA?9?$AAi?$AAr@ 00000001800466a0     libcpmt:winapinls.obj
 0002:000046b0       ??_C@_1M@JEEHPMIL@?$AAf?$AAi?$AA?9?$AAf?$AAi@ 00000001800466b0     libcpmt:winapinls.obj
 0002:000046c0       ??_C@_1M@LMDCNDBA@?$AAf?$AAo?$AA?9?$AAf?$AAo@ 00000001800466c0     libcpmt:winapinls.obj
 0002:000046d0       ??_C@_1M@JKEOHLDK@?$AAf?$AAr?$AA?9?$AAb?$AAe@ 00000001800466d0     libcpmt:winapinls.obj
 0002:000046e0       ??_C@_1M@NOHADPMI@?$AAf?$AAr?$AA?9?$AAc?$AAa@ 00000001800466e0     libcpmt:winapinls.obj
 0002:000046f0       ??_C@_1M@KDHIHAEC@?$AAf?$AAr?$AA?9?$AAc?$AAh@ 00000001800466f0     libcpmt:winapinls.obj
 0002:00004700       ??_C@_1M@MMBBFGAK@?$AAf?$AAr?$AA?9?$AAf?$AAr@ 0000000180046700     libcpmt:winapinls.obj
 0002:00004710       ??_C@_1M@PAFNENNF@?$AAf?$AAr?$AA?9?$AAl?$AAu@ 0000000180046710     libcpmt:winapinls.obj
 0002:00004720       ??_C@_1M@EOHDJGDD@?$AAf?$AAr?$AA?9?$AAm?$AAc@ 0000000180046720     libcpmt:winapinls.obj
 0002:00004730       ??_C@_1M@FAPLLOPF@?$AAg?$AAl?$AA?9?$AAe?$AAs@ 0000000180046730     libcpmt:winapinls.obj
 0002:00004740       ??_C@_1M@FOPBFLOO@?$AAg?$AAu?$AA?9?$AAi?$AAn@ 0000000180046740     libcpmt:winapinls.obj
 0002:00004750       ??_C@_1M@KBMCINPM@?$AAh?$AAe?$AA?9?$AAi?$AAl@ 0000000180046750     libcpmt:winapinls.obj
 0002:00004760       ??_C@_1M@BBPHKFPJ@?$AAh?$AAi?$AA?9?$AAi?$AAn@ 0000000180046760     libcpmt:winapinls.obj
 0002:00004770       ??_C@_1M@PMBNDPHD@?$AAh?$AAr?$AA?9?$AAb?$AAa@ 0000000180046770     libcpmt:winapinls.obj
 0002:00004780       ??_C@_1M@BPCKOEGE@?$AAh?$AAr?$AA?9?$AAh?$AAr@ 0000000180046780     libcpmt:winapinls.obj
 0002:00004790       ??_C@_1M@GACBMHKE@?$AAh?$AAu?$AA?9?$AAh?$AAu@ 0000000180046790     libcpmt:winapinls.obj
 0002:000047a0       ??_C@_1M@MILPAJJC@?$AAh?$AAy?$AA?9?$AAa?$AAm@ 00000001800467a0     libcpmt:winapinls.obj
 0002:000047b0       ??_C@_1M@BABBICEC@?$AAi?$AAd?$AA?9?$AAi?$AAd@ 00000001800467b0     libcpmt:winapinls.obj
 0002:000047c0       ??_C@_1M@BIKNHHPF@?$AAi?$AAs?$AA?9?$AAi?$AAs@ 00000001800467c0     libcpmt:winapinls.obj
 0002:000047d0       ??_C@_1M@NMPCJPHE@?$AAi?$AAt?$AA?9?$AAc?$AAh@ 00000001800467d0     libcpmt:winapinls.obj
 0002:000047e0       ??_C@_1M@GHKGFEDF@?$AAi?$AAt?$AA?9?$AAi?$AAt@ 00000001800467e0     libcpmt:winapinls.obj
 0002:000047f0       ??_C@_1M@NIEJCJJA@?$AAj?$AAa?$AA?9?$AAj?$AAp@ 00000001800467f0     libcpmt:winapinls.obj
 0002:00004800       ??_C@_1M@JILFNBIM@?$AAk?$AAa?$AA?9?$AAg?$AAe@ 0000000180046800     libcpmt:winapinls.obj
 0002:00004810       ??_C@_1M@PACPMGPH@?$AAk?$AAk?$AA?9?$AAk?$AAz@ 0000000180046810     libcpmt:winapinls.obj
 0002:00004820       ??_C@_1M@IELFGMHA@?$AAk?$AAn?$AA?9?$AAi?$AAn@ 0000000180046820     libcpmt:winapinls.obj
 0002:00004830       ??_C@_1M@DMHAEOGC@?$AAk?$AAo?$AA?9?$AAk?$AAr@ 0000000180046830     libcpmt:winapinls.obj
 0002:00004840       ??_C@_1O@IBBJHCH@?$AAk?$AAo?$AAk?$AA?9?$AAi?$AAn@ 0000000180046840     libcpmt:winapinls.obj
 0002:00004850       ??_C@_1M@HBAHBIGA@?$AAk?$AAy?$AA?9?$AAk?$AAg@ 0000000180046850     libcpmt:winapinls.obj
 0002:00004860       ??_C@_1M@KPMILCJG@?$AAl?$AAt?$AA?9?$AAl?$AAt@ 0000000180046860     libcpmt:winapinls.obj
 0002:00004870       ??_C@_1M@BDEKKCA@?$AAl?$AAv?$AA?9?$AAl?$AAv@ 0000000180046870     libcpmt:winapinls.obj
 0002:00004880       ??_C@_1M@ELCKCCJJ@?$AAm?$AAi?$AA?9?$AAn?$AAz@ 0000000180046880     libcpmt:winapinls.obj
 0002:00004890       ??_C@_1M@CBOOLAPA@?$AAm?$AAk?$AA?9?$AAm?$AAk@ 0000000180046890     libcpmt:winapinls.obj
 0002:000048a0       ??_C@_1M@GPHNBJKN@?$AAm?$AAl?$AA?9?$AAi?$AAn@ 00000001800468a0     libcpmt:winapinls.obj
 0002:000048b0       ??_C@_1M@PABJILIG@?$AAm?$AAn?$AA?9?$AAm?$AAn@ 00000001800468b0     libcpmt:winapinls.obj
 0002:000048c0       ??_C@_1M@FGBKKIPG@?$AAm?$AAr?$AA?9?$AAi?$AAn@ 00000001800468c0     libcpmt:winapinls.obj
 0002:000048d0       ??_C@_1M@NDBPDDAL@?$AAm?$AAs?$AA?9?$AAb?$AAn@ 00000001800468d0     libcpmt:winapinls.obj
 0002:000048e0       ??_C@_1M@OPIHOOPI@?$AAm?$AAs?$AA?9?$AAm?$AAy@ 00000001800468e0     libcpmt:winapinls.obj
 0002:000048f0       ??_C@_1M@PPDBCNFM@?$AAm?$AAt?$AA?9?$AAm?$AAt@ 00000001800468f0     libcpmt:winapinls.obj
 0002:00004900       ??_C@_1M@KDJDKMDD@?$AAn?$AAb?$AA?9?$AAn?$AAo@ 0000000180046900     libcpmt:winapinls.obj
 0002:00004910       ??_C@_1M@KFCFLMJP@?$AAn?$AAl?$AA?9?$AAb?$AAe@ 0000000180046910     libcpmt:winapinls.obj
 0002:00004920       ??_C@_1M@KPOPDDGO@?$AAn?$AAl?$AA?9?$AAn?$AAl@ 0000000180046920     libcpmt:winapinls.obj
 0002:00004930       ??_C@_1M@LJKPEMLN@?$AAn?$AAn?$AA?9?$AAn?$AAo@ 0000000180046930     libcpmt:winapinls.obj
 0002:00004940       ??_C@_1M@BDGHHBFL@?$AAn?$AAs?$AA?9?$AAz?$AAa@ 0000000180046940     libcpmt:winapinls.obj
 0002:00004950       ??_C@_1M@IDEHOAP@?$AAp?$AAa?$AA?9?$AAi?$AAn@ 0000000180046950     libcpmt:winapinls.obj
 0002:00004960       ??_C@_1M@HDBKGOGH@?$AAp?$AAl?$AA?9?$AAp?$AAl@ 0000000180046960     libcpmt:winapinls.obj
 0002:00004970       ??_C@_1M@LJLLCMEH@?$AAp?$AAt?$AA?9?$AAb?$AAr@ 0000000180046970     libcpmt:winapinls.obj
 0002:00004980       ??_C@_1M@NCMONAAL@?$AAp?$AAt?$AA?9?$AAp?$AAt@ 0000000180046980     libcpmt:winapinls.obj
 0002:00004990       ??_C@_1O@EAKMAJDN@?$AAq?$AAu?$AAz?$AA?9?$AAb?$AAo@ 0000000180046990     libcpmt:winapinls.obj
 0002:000049a0       ??_C@_1O@BHHPIGDN@?$AAq?$AAu?$AAz?$AA?9?$AAe?$AAc@ 00000001800469a0     libcpmt:winapinls.obj
 0002:000049b0       ??_C@_1O@GBAPEKMJ@?$AAq?$AAu?$AAz?$AA?9?$AAp?$AAe@ 00000001800469b0     libcpmt:winapinls.obj
 0002:000049c0       ??_C@_1M@CLGLEFBO@?$AAr?$AAo?$AA?9?$AAr?$AAo@ 00000001800469c0     libcpmt:winapinls.obj
 0002:000049d0       ??_C@_1M@CEEDODME@?$AAr?$AAu?$AA?9?$AAr?$AAu@ 00000001800469d0     libcpmt:winapinls.obj
 0002:000049e0       ??_C@_1M@HPKKKMPP@?$AAs?$AAa?$AA?9?$AAi?$AAn@ 00000001800469e0     libcpmt:winapinls.obj
 0002:000049f0       ??_C@_1M@BKMAIGOJ@?$AAs?$AAe?$AA?9?$AAf?$AAi@ 00000001800469f0     libcpmt:winapinls.obj
 0002:00004a00       ??_C@_1M@NDPIFLFI@?$AAs?$AAe?$AA?9?$AAn?$AAo@ 0000000180046a00     libcpmt:winapinls.obj
 0002:00004a10       ??_C@_1M@DANKKHJ@?$AAs?$AAe?$AA?9?$AAs?$AAe@ 0000000180046a10     libcpmt:winapinls.obj
 0002:00004a20       ??_C@_1M@PNBLONPJ@?$AAs?$AAk?$AA?9?$AAs?$AAk@ 0000000180046a20     libcpmt:winapinls.obj
 0002:00004a30       ??_C@_1M@LFMODOAL@?$AAs?$AAl?$AA?9?$AAs?$AAi@ 0000000180046a30     libcpmt:winapinls.obj
 0002:00004a40       ??_C@_1O@DFKOMPG@?$AAs?$AAm?$AAa?$AA?9?$AAn?$AAo@ 0000000180046a40     libcpmt:winapinls.obj
 0002:00004a50       ??_C@_1O@NDKPBNNH@?$AAs?$AAm?$AAa?$AA?9?$AAs?$AAe@ 0000000180046a50     libcpmt:winapinls.obj
 0002:00004a60       ??_C@_1O@PLLKBHAB@?$AAs?$AAm?$AAj?$AA?9?$AAn?$AAo@ 0000000180046a60     libcpmt:winapinls.obj
 0002:00004a70       ??_C@_1O@CLEPOGCA@?$AAs?$AAm?$AAj?$AA?9?$AAs?$AAe@ 0000000180046a70     libcpmt:winapinls.obj
 0002:00004a80       ??_C@_1O@DLGJGKMK@?$AAs?$AAm?$AAn?$AA?9?$AAf?$AAi@ 0000000180046a80     libcpmt:winapinls.obj
 0002:00004a90       ??_C@_1O@OJDJGAJC@?$AAs?$AAm?$AAs?$AA?9?$AAf?$AAi@ 0000000180046a90     libcpmt:winapinls.obj
 0002:00004aa0       ??_C@_1M@BOFOGHPB@?$AAs?$AAq?$AA?9?$AAa?$AAl@ 0000000180046aa0     libcpmt:winapinls.obj
 0002:00004ab0       ??_C@_1BG@LJBBIPGB@?$AAs?$AAr?$AA?9?$AAb?$AAa?$AA?9?$AAc?$AAy?$AAr?$AAl@ 0000000180046ab0     libcpmt:winapinls.obj
 0002:00004ac8       ??_C@_1BG@JLBENFOE@?$AAs?$AAr?$AA?9?$AAb?$AAa?$AA?9?$AAl?$AAa?$AAt?$AAn@ 0000000180046ac8     libcpmt:winapinls.obj
 0002:00004ae0       ??_C@_1BG@KODPNHE@?$AAs?$AAr?$AA?9?$AAs?$AAp?$AA?9?$AAc?$AAy?$AAr?$AAl@ 0000000180046ae0     libcpmt:winapinls.obj
 0002:00004af8       ??_C@_1BG@CIOGKHPB@?$AAs?$AAr?$AA?9?$AAs?$AAp?$AA?9?$AAl?$AAa?$AAt?$AAn@ 0000000180046af8     libcpmt:winapinls.obj
 0002:00004b10       ??_C@_1M@NGFJLMAC@?$AAs?$AAv?$AA?9?$AAf?$AAi@ 0000000180046b10     libcpmt:winapinls.obj
 0002:00004b20       ??_C@_1M@MPJEJAJC@?$AAs?$AAv?$AA?9?$AAs?$AAe@ 0000000180046b20     libcpmt:winapinls.obj
 0002:00004b30       ??_C@_1M@MPNDHLFK@?$AAs?$AAw?$AA?9?$AAk?$AAe@ 0000000180046b30     libcpmt:winapinls.obj
 0002:00004b40       ??_C@_1O@KOHBJJI@?$AAs?$AAy?$AAr?$AA?9?$AAs?$AAy@ 0000000180046b40     libcpmt:winapinls.obj
 0002:00004b50       ??_C@_1M@LDCEFHA@?$AAt?$AAa?$AA?9?$AAi?$AAn@ 0000000180046b50     libcpmt:winapinls.obj
 0002:00004b60       ??_C@_1M@CNJOFAK@?$AAt?$AAe?$AA?9?$AAi?$AAn@ 0000000180046b60     libcpmt:winapinls.obj
 0002:00004b70       ??_C@_1M@GNAECACD@?$AAt?$AAh?$AA?9?$AAt?$AAh@ 0000000180046b70     libcpmt:winapinls.obj
 0002:00004b80       ??_C@_1M@CHBIHOJO@?$AAt?$AAn?$AA?9?$AAz?$AAa@ 0000000180046b80     libcpmt:winapinls.obj
 0002:00004b90       ??_C@_1M@GCCMIGPJ@?$AAt?$AAr?$AA?9?$AAt?$AAr@ 0000000180046b90     libcpmt:winapinls.obj
 0002:00004ba0       ??_C@_1M@CELMCNBK@?$AAt?$AAt?$AA?9?$AAr?$AAu@ 0000000180046ba0     libcpmt:winapinls.obj
 0002:00004bb0       ??_C@_1M@KLMCELGA@?$AAu?$AAk?$AA?9?$AAu?$AAa@ 0000000180046bb0     libcpmt:winapinls.obj
 0002:00004bc0       ??_C@_1M@EPAJJAJF@?$AAu?$AAr?$AA?9?$AAp?$AAk@ 0000000180046bc0     libcpmt:winapinls.obj
 0002:00004bd0       ??_C@_1BG@GEGPMCDJ@?$AAu?$AAz?$AA?9?$AAu?$AAz?$AA?9?$AAc?$AAy?$AAr?$AAl@ 0000000180046bd0     libcpmt:winapinls.obj
 0002:00004be8       ??_C@_1BG@EGGKJILM@?$AAu?$AAz?$AA?9?$AAu?$AAz?$AA?9?$AAl?$AAa?$AAt?$AAn@ 0000000180046be8     libcpmt:winapinls.obj
 0002:00004c00       ??_C@_1M@GFOCLFF@?$AAv?$AAi?$AA?9?$AAv?$AAn@ 0000000180046c00     libcpmt:winapinls.obj
 0002:00004c10       ??_C@_1M@CPAMEDFI@?$AAx?$AAh?$AA?9?$AAz?$AAa@ 0000000180046c10     libcpmt:winapinls.obj
 0002:00004c20       ??_C@_1O@EBKIFIGN@?$AAz?$AAh?$AA?9?$AAc?$AAh?$AAs@ 0000000180046c20     libcpmt:winapinls.obj
 0002:00004c30       ??_C@_1O@NMHPGANE@?$AAz?$AAh?$AA?9?$AAc?$AAh?$AAt@ 0000000180046c30     libcpmt:winapinls.obj
 0002:00004c40       ??_C@_1M@LPINJOMC@?$AAz?$AAh?$AA?9?$AAc?$AAn@ 0000000180046c40     libcpmt:winapinls.obj
 0002:00004c50       ??_C@_1M@OCJEJODD@?$AAz?$AAh?$AA?9?$AAh?$AAk@ 0000000180046c50     libcpmt:winapinls.obj
 0002:00004c60       ??_C@_1M@DNDLJINH@?$AAz?$AAh?$AA?9?$AAm?$AAo@ 0000000180046c60     libcpmt:winapinls.obj
 0002:00004c70       ??_C@_1M@MBFDNDND@?$AAz?$AAh?$AA?9?$AAs?$AAg@ 0000000180046c70     libcpmt:winapinls.obj
 0002:00004c80       ??_C@_1M@IMEPLEPE@?$AAz?$AAh?$AA?9?$AAt?$AAw@ 0000000180046c80     libcpmt:winapinls.obj
 0002:00004c90       ??_C@_1M@BBGHNHJP@?$AAz?$AAu?$AA?9?$AAz?$AAa@ 0000000180046c90     libcpmt:winapinls.obj
 0002:00004ca0       _pRawDllMain               0000000180046ca0     LIBCMT:dll_dllmain.obj
 0002:00004ca0       _pDefaultRawDllMain        0000000180046ca0     LIBCMT:dll_dllmain.obj
 0002:00004cb0       ??_7type_info@@6B@         0000000180046cb0     LIBCMT:std_type_info_static.obj
 0002:00004cd0       ??_7bad_array_new_length@std@@6B@ 0000000180046cd0     LIBCMT:throw_bad_alloc.obj
 0002:00004ce0       ??_C@_0BF@KINCDENJ@bad?5array?5new?5length@ 0000000180046ce0     LIBCMT:throw_bad_alloc.obj
 0002:00004dd8       _pDestructExceptionObject  0000000180046dd8     libvcruntime:ehhelpers.obj
 0002:00004de8       ??_7bad_exception@std@@6B@ 0000000180046de8     libvcruntime:frame.obj
 0002:00004df8       ??_C@_0O@DPKOEFFH@bad?5exception@ 0000000180046df8     libvcruntime:frame.obj
 0002:00004e20       ??_C@_1DM@KHCHBNEB@?$AAa?$AAp?$AAi?$AA?9?$AAm?$AAs?$AA?9?$AAw?$AAi?$AAn?$AA?9?$AAc?$AAo?$AAr?$AAe@ 0000000180046e20     libvcruntime:winapi_downlevel.obj
 0002:00004e60       ??_C@_1DK@LPPGFMPP@?$AAa?$AAp?$AAi?$AA?9?$AAm?$AAs?$AA?9?$AAw?$AAi?$AAn?$AA?9?$AAc?$AAo?$AAr?$AAe@ 0000000180046e60     libvcruntime:winapi_downlevel.obj
 0002:00004ea0       ??_C@_1BC@GDMECMAK@?$AAk?$AAe?$AAr?$AAn?$AAe?$AAl?$AA3?$AA2@ 0000000180046ea0     libvcruntime:winapi_downlevel.obj
 0002:00004eb8       ??_C@_1BA@PFFKHIOG@?$AAa?$AAp?$AAi?$AA?9?$AAm?$AAs?$AA?9@ 0000000180046eb8     libvcruntime:winapi_downlevel.obj
 0002:00004ec8       ??_C@_1BA@IAIFMGEF@?$AAe?$AAx?$AAt?$AA?9?$AAm?$AAs?$AA?9@ 0000000180046ec8     libvcruntime:winapi_downlevel.obj
 0002:00005240       ??_C@_08EHJDFFNH@__based?$CI@ 0000000180047240     libvcruntime:undname.obj
 0002:00005250       ??_C@_07KOLFKCDI@__cdecl@  0000000180047250     libvcruntime:undname.obj
 0002:00005258       ??_C@_08GHMPAG@__pascal@   0000000180047258     libvcruntime:undname.obj
 0002:00005268       ??_C@_09IFJBGAPI@__stdcall@ 0000000180047268     libvcruntime:undname.obj
 0002:00005278       ??_C@_0L@NPHFGOKO@__thiscall@ 0000000180047278     libvcruntime:undname.obj
 0002:00005288       ??_C@_0L@JMKHOMEK@__fastcall@ 0000000180047288     libvcruntime:undname.obj
 0002:00005298       ??_C@_0N@BCKKPABJ@__vectorcall@ 0000000180047298     libvcruntime:undname.obj
 0002:000052a8       ??_C@_09HIJEGCPM@__clrcall@ 00000001800472a8     libvcruntime:undname.obj
 0002:000052b4       ??_C@_06GHPCKEAG@__eabi@   00000001800472b4     libvcruntime:undname.obj
 0002:000052c0       ??_C@_09IOPIDJLG@__swift_1@ 00000001800472c0     libvcruntime:undname.obj
 0002:000052d0       ??_C@_09KFNFGKHF@__swift_2@ 00000001800472d0     libvcruntime:undname.obj
 0002:000052e0       ??_C@_07JOMMBBKO@__ptr64@  00000001800472e0     libvcruntime:undname.obj
 0002:000052e8       ??_C@_0L@PILCLIHE@__restrict@ 00000001800472e8     libvcruntime:undname.obj
 0002:000052f8       ??_C@_0M@GFIIJFMG@__unaligned@ 00000001800472f8     libvcruntime:undname.obj
 0002:00005308       ??_C@_09DHDLOLLB@restrict?$CI@ 0000000180047308     libvcruntime:undname.obj
 0002:00005314       ??_C@_04NIHEBCM@?5new@     0000000180047314     libvcruntime:undname.obj
 0002:00005320       ??_C@_07FPCDHGMM@?5delete@ 0000000180047320     libvcruntime:undname.obj
 0002:00005328       ??_C@_01NEMOKFLO@?$DN@     0000000180047328     libvcruntime:undname.obj
 0002:0000532c       ??_C@_02GPIOPFAK@?$DO?$DO@ 000000018004732c     libvcruntime:undname.obj
 0002:00005330       ??_C@_02FODMEDOG@?$DM?$DM@ 0000000180047330     libvcruntime:undname.obj
 0002:00005334       ??_C@_01DCLJPIOD@?$CB@     0000000180047334     libvcruntime:undname.obj
 0002:00005338       ??_C@_02EGOFBIJA@?$DN?$DN@ 0000000180047338     libvcruntime:undname.obj
 0002:0000533c       ??_C@_02FDNJECIE@?$CB?$DN@ 000000018004733c     libvcruntime:undname.obj
 0002:00005340       ??_C@_02GPECMEKF@?$FL?$FN@ 0000000180047340     libvcruntime:undname.obj
 0002:00005348       ??_C@_08LHJFAFGD@operator@ 0000000180047348     libvcruntime:undname.obj
 0002:00005354       ??_C@_02HBOOOICD@?9?$DO@   0000000180047354     libvcruntime:undname.obj
 0002:00005358       ??_C@_02ECNGHCIF@?$CL?$CL@ 0000000180047358     libvcruntime:undname.obj
 0002:0000535c       ??_C@_02BAABKJLB@?9?9@     000000018004735c     libvcruntime:undname.obj
 0002:00005360       ??_C@_01MIFGBAGJ@?$CL@     0000000180047360     libvcruntime:undname.obj
 0002:00005364       ??_C@_01HNPIGOCE@?$CG@     0000000180047364     libvcruntime:undname.obj
 0002:00005368       ??_C@_03MNHNFDLC@?9?$DO?$CK@ 0000000180047368     libvcruntime:undname.obj
 0002:0000536c       ??_C@_01KMDKNFGN@?1@       000000018004736c     libvcruntime:undname.obj
 0002:00005370       ??_C@_01FGNFDNOH@?$CF@     0000000180047370     libvcruntime:undname.obj
 0002:00005374       ??_C@_01MNNFJEPP@?$DM@     0000000180047374     libvcruntime:undname.obj
 0002:00005378       ??_C@_02EHCHHCKH@?$DM?$DN@ 0000000180047378     libvcruntime:undname.obj
 0002:0000537c       ??_C@_01PPODPGHN@?$DO@     000000018004737c     libvcruntime:undname.obj
 0002:00005380       ??_C@_02EEKDKGMJ@?$DO?$DN@ 0000000180047380     libvcruntime:undname.obj
 0002:00005384       ??_C@_01IHBHIGKO@?0@       0000000180047384     libvcruntime:undname.obj
 0002:00005388       ??_C@_02HCKGKOFO@?$CI?$CJ@ 0000000180047388     libvcruntime:undname.obj
 0002:0000538c       ??_C@_01PJKLJHI@?$HO@      000000018004738c     libvcruntime:undname.obj
 0002:00005390       ??_C@_01JKBOJNNK@?$FO@     0000000180047390     libvcruntime:undname.obj
 0002:00005394       ??_C@_01DNKMNLPK@?$HM@     0000000180047394     libvcruntime:undname.obj
 0002:00005398       ??_C@_02PPKAJPJL@?$CG?$CG@ 0000000180047398     libvcruntime:undname.obj
 0002:0000539c       ??_C@_02NONPIBCD@?$HM?$HM@ 000000018004739c     libvcruntime:undname.obj
 0002:000053a0       ??_C@_02FPIMKNGF@?$CK?$DN@ 00000001800473a0     libvcruntime:undname.obj
 0002:000053a4       ??_C@_02FOEOMHFC@?$CL?$DN@ 00000001800473a4     libvcruntime:undname.obj
 0002:000053a8       ??_C@_02FKMDLLOA@?9?$DN@   00000001800473a8     libvcruntime:undname.obj
 0002:000053ac       ??_C@_02FJEHGPIO@?1?$DN@   00000001800473ac     libvcruntime:undname.obj
 0002:000053b0       ??_C@_02FENAOKFI@?$CF?$DN@ 00000001800473b0     libvcruntime:undname.obj
 0002:000053b4       ??_C@_03IKFCCPFF@?$DO?$DO?$DN@ 00000001800473b4     libvcruntime:undname.obj
 0002:000053b8       ??_C@_03CDNPDDLA@?$DM?$DM?$DN@ 00000001800473b8     libvcruntime:undname.obj
 0002:000053bc       ??_C@_02FGJGFEAB@?$CG?$DN@ 00000001800473bc     libvcruntime:undname.obj
 0002:000053c0       ??_C@_02DHLNPPGH@?$HM?$DN@ 00000001800473c0     libvcruntime:undname.obj
 0002:000053c4       ??_C@_02MHEGNOJ@?$FO?$DN@  00000001800473c4     libvcruntime:undname.obj
 0002:000053c8       ??_C@_09IFPLHPGF@?$GAvftable?8@ 00000001800473c8     libvcruntime:undname.obj
 0002:000053d8       ??_C@_09BLBHBJP@?$GAvbtable?8@ 00000001800473d8     libvcruntime:undname.obj
 0002:000053e8       ??_C@_07FEEIOKP@?$GAvcall?8@ 00000001800473e8     libvcruntime:undname.obj
 0002:000053f0       ??_C@_08LLFFHHDJ@?$GAtypeof?8@ 00000001800473f0     libvcruntime:undname.obj
 0002:00005400       ??_C@_0BF@KDPPACIK@?$GAlocal?5static?5guard?8@ 0000000180047400     libvcruntime:undname.obj
 0002:00005418       ??_C@_08OBABFOLI@?$GAstring?8@ 0000000180047418     libvcruntime:undname.obj
 0002:00005428       ??_C@_0BD@JDLKDPAB@?$GAvbase?5destructor?8@ 0000000180047428     libvcruntime:undname.obj
 0002:00005440       ??_C@_0BN@DEGPLNFK@?$GAvector?5deleting?5destructor?8@ 0000000180047440     libvcruntime:undname.obj
 0002:00005460       ??_C@_0BO@OBMKPJIG@?$GAdefault?5constructor?5closure?8@ 0000000180047460     libvcruntime:undname.obj
 0002:00005480       ??_C@_0BN@IMDCHIKM@?$GAscalar?5deleting?5destructor?8@ 0000000180047480     libvcruntime:undname.obj
 0002:000054a0       ??_C@_0BO@PFGOCPJJ@?$GAvector?5constructor?5iterator?8@ 00000001800474a0     libvcruntime:undname.obj
 0002:000054c0       ??_C@_0BN@LFPFMEDL@?$GAvector?5destructor?5iterator?8@ 00000001800474c0     libvcruntime:undname.obj
 0002:000054e0       ??_C@_0CE@IKBNEHA@?$GAvector?5vbase?5constructor?5itera@ 00000001800474e0     libvcruntime:undname.obj
 0002:00005508       ??_C@_0BL@NILFHHPC@?$GAvirtual?5displacement?5map?8@ 0000000180047508     libvcruntime:undname.obj
 0002:00005528       ??_C@_0CB@JONCMFFK@?$GAeh?5vector?5constructor?5iterator@ 0000000180047528     libvcruntime:undname.obj
 0002:00005550       ??_C@_0CA@GCEOPDGL@?$GAeh?5vector?5destructor?5iterator?8@ 0000000180047550     libvcruntime:undname.obj
 0002:00005570       ??_C@_0CH@OOJPLCPH@?$GAeh?5vector?5vbase?5constructor?5it@ 0000000180047570     libvcruntime:undname.obj
 0002:00005598       ??_C@_0BL@LLKPOHJI@?$GAcopy?5constructor?5closure?8@ 0000000180047598     libvcruntime:undname.obj
 0002:000055b8       ??_C@_0BA@KBCDOMBN@?$GAudt?5returning?8@ 00000001800475b8     libvcruntime:undname.obj
 0002:000055c8       ??_C@_03KLGMFNMG@?$GAEH@   00000001800475c8     libvcruntime:undname.obj
 0002:000055cc       ??_C@_05KHLCHHI@?$GARTTI@  00000001800475cc     libvcruntime:undname.obj
 0002:000055d8       ??_C@_0BA@KKLDJDLB@?$GAlocal?5vftable?8@ 00000001800475d8     libvcruntime:undname.obj
 0002:000055e8       ??_C@_0CE@IIHCMGGL@?$GAlocal?5vftable?5constructor?5clos@ 00000001800475e8     libvcruntime:undname.obj
 0002:0000560c       ??_C@_06FHBGPFGH@?5new?$FL?$FN@ 000000018004760c     libvcruntime:undname.obj
 0002:00005618       ??_C@_09LBNFPBCA@?5delete?$FL?$FN@ 0000000180047618     libvcruntime:undname.obj
 0002:00005628       ??_C@_0P@HJKNJFNN@?$GAomni?5callsig?8@ 0000000180047628     libvcruntime:undname.obj
 0002:00005638       ??_C@_0BL@CNOONJFP@?$GAplacement?5delete?5closure?8@ 0000000180047638     libvcruntime:undname.obj
 0002:00005658       ??_C@_0BN@CKNJLHMB@?$GAplacement?5delete?$FL?$FN?5closure?8@ 0000000180047658     libvcruntime:undname.obj
 0002:00005678       ??_C@_0CG@CFDHKGGD@?$GAmanaged?5vector?5constructor?5ite@ 0000000180047678     libvcruntime:undname.obj
 0002:000056a0       ??_C@_0CF@IMGKMJNO@?$GAmanaged?5vector?5destructor?5iter@ 00000001800476a0     libvcruntime:undname.obj
 0002:000056c8       ??_C@_0CG@HLDDJMAG@?$GAeh?5vector?5copy?5constructor?5ite@ 00000001800476c8     libvcruntime:undname.obj
 0002:000056f0       ??_C@_0CM@FCBBDIGB@?$GAeh?5vector?5vbase?5copy?5construct@ 00000001800476f0     libvcruntime:undname.obj
 0002:00005720       ??_C@_0BL@CLIPGLGB@?$GAdynamic?5initializer?5for?5?8@ 0000000180047720     libvcruntime:undname.obj
 0002:00005740       ??_C@_0CB@PDBIFEP@?$GAdynamic?5atexit?5destructor?5for?5@ 0000000180047740     libvcruntime:undname.obj
 0002:00005768       ??_C@_0CD@CGAJBKEJ@?$GAvector?5copy?5constructor?5iterat@ 0000000180047768     libvcruntime:undname.obj
 0002:00005790       ??_C@_0CJ@GJELGAMM@?$GAvector?5vbase?5copy?5constructor?5@ 0000000180047790     libvcruntime:undname.obj
 0002:000057c0       ??_C@_0CL@FGIJHLCE@?$GAmanaged?5vector?5copy?5constructo@ 00000001800477c0     libvcruntime:undname.obj
 0002:000057f0       ??_C@_0BM@PMGGMLDN@?$GAlocal?5static?5thread?5guard?8@ 00000001800477f0     libvcruntime:undname.obj
 0002:00005810       ??_C@_0N@BDNMDMOL@operator?5?$CC?$CC?5@ 0000000180047810     libvcruntime:undname.obj
 0002:00005820       ??_C@_0BC@GGEBGALA@operator?5co_await@ 0000000180047820     libvcruntime:undname.obj
 0002:00005838       ??_C@_0M@GAAIMMOH@operator?$DM?$DN?$DO@ 0000000180047838     libvcruntime:undname.obj
 0002:00005848       ??_C@_0BC@DAFEJGAK@?5Type?5Descriptor?8@ 0000000180047848     libvcruntime:undname.obj
 0002:00005860       ??_C@_0BM@LDKODKLH@?5Base?5Class?5Descriptor?5at?5?$CI@ 0000000180047860     libvcruntime:undname.obj
 0002:00005880       ??_C@_0BD@LGICGFMM@?5Base?5Class?5Array?8@ 0000000180047880     libvcruntime:undname.obj
 0002:00005898       ??_C@_0BN@MECKDCOJ@?5Class?5Hierarchy?5Descriptor?8@ 0000000180047898     libvcruntime:undname.obj
 0002:000058b8       ??_C@_0BK@CFCOFLF@?5Complete?5Object?5Locator?8@ 00000001800478b8     libvcruntime:undname.obj
 0002:000058e0       standard_lookup_table      00000001800478e0     libucrt:output.obj
 0002:00005940       format_validation_lookup_table 0000000180047940     libucrt:output.obj
 0002:000059a0       ??_C@_1O@CEDCILHN@?$AA?$CI?$AAn?$AAu?$AAl?$AAl?$AA?$CJ?$AA?$AA@ 00000001800479a0     libucrt:output.obj
 0002:000059b0       ??_C@_06OJHGLDPL@?$CInull?$CJ?$AA@ 00000001800479b0     libucrt:output.obj
 0002:000059b8       __real@0000000000000000    00000001800479b8     libucrt:frexp.obj
 0002:000059c0       __real@3ff0000000000000    00000001800479c0     libucrt:frexp.obj
 0002:000059c8       __real@8000000000000000    00000001800479c8     libucrt:frexp.obj
 0002:000059d0       ??_C@_1FE@LHBLIKM@?$AAA?$AAs?$AAs?$AAe?$AAr?$AAt?$AAi?$AAo?$AAn?$AA?5?$AAf?$AAa?$AAi?$AAl?$AAe?$AAd?$AA?3?$AA?5?$AA?$CF?$AAT?$AAs?$AA?0?$AA?5?$AAf?$AAi?$AAl?$AAe?$AA?5?$AA?$CF?$AAT?$AAs?$AA?0@ 00000001800479d0     libucrt:assert.obj
 0002:00005a30       ??_C@_1EK@MBDPDCGA@?$AAM?$AAi?$AAc?$AAr?$AAo?$AAs?$AAo?$AAf?$AAt?$AA?5?$AAV?$AAi?$AAs?$AAu?$AAa?$AAl?$AA?5?$AAC?$AA?$CL?$AA?$CL?$AA?5?$AAR?$AAu?$AAn?$AAt?$AAi?$AAm?$AAe?$AA?5?$AAL?$AAi?$AAb@ 0000000180047a30     libucrt:assert.obj
 0002:00005a80       ??_C@_1CE@OJBNHDMO@?$AAA?$AAs?$AAs?$AAe?$AAr?$AAt?$AAi?$AAo?$AAn?$AA?5?$AAf?$AAa?$AAi?$AAl?$AAe?$AAd?$AA?$CB?$AA?$AA@ 0000000180047a80     libucrt:assert.obj
 0002:00005aa8       ??_C@_1BE@PHKBBGE@?$AAP?$AAr?$AAo?$AAg?$AAr?$AAa?$AAm?$AA?3?$AA?5?$AA?$AA@ 0000000180047aa8     libucrt:assert.obj
 0002:00005ac0       ??_C@_1O@HEMHKNDC@?$AAF?$AAi?$AAl?$AAe?$AA?3?$AA?5?$AA?$AA@ 0000000180047ac0     libucrt:assert.obj
 0002:00005ad0       ??_C@_1O@KCAFKHJE@?$AAL?$AAi?$AAn?$AAe?$AA?3?$AA?5?$AA?$AA@ 0000000180047ad0     libucrt:assert.obj
 0002:00005ae0       ??_C@_1BK@PEDCIPMA@?$AAE?$AAx?$AAp?$AAr?$AAe?$AAs?$AAs?$AAi?$AAo?$AAn?$AA?3?$AA?5?$AA?$AA@ 0000000180047ae0     libucrt:assert.obj
 0002:00005b00       ??_C@_1OA@EGMLFBHJ@?$AAF?$AAo?$AAr?$AA?5?$AAi?$AAn?$AAf?$AAo?$AAr?$AAm?$AAa?$AAt?$AAi?$AAo?$AAn?$AA?5?$AAo?$AAn?$AA?5?$AAh?$AAo?$AAw?$AA?5?$AAy?$AAo?$AAu?$AAr?$AA?5?$AAp?$AAr?$AAo?$AAg@ 0000000180047b00     libucrt:assert.obj
 0002:00005be0       ??_C@_1HK@POCJMFGK@?$AA?$CI?$AAP?$AAr?$AAe?$AAs?$AAs?$AA?5?$AAR?$AAe?$AAt?$AAr?$AAy?$AA?5?$AAt?$AAo?$AA?5?$AAd?$AAe?$AAb?$AAu?$AAg?$AA?5?$AAt?$AAh?$AAe?$AA?5?$AAa?$AAp?$AAp?$AAl?$AAi?$AAc@ 0000000180047be0     libucrt:assert.obj
 0002:00005c60       ??_C@_17LGKOMLJ@?$AA?4?$AA?4?$AA?4?$AA?$AA@ 0000000180047c60     libucrt:assert.obj
 0002:00005c68       ??_C@_13LBAGMAIH@?$AA?6?$AA?$AA@ 0000000180047c68     libucrt:assert.obj
 0002:00005c6c       ??_C@_15IABLJNFO@?$AA?6?$AA?6?$AA?$AA@ 0000000180047c6c     libucrt:assert.obj
 0002:00005c78       ??_C@_1CO@EAEJAADC@?$AA?$DM?$AAp?$AAr?$AAo?$AAg?$AAr?$AAa?$AAm?$AA?5?$AAn?$AAa?$AAm?$AAe?$AA?5?$AAu?$AAn?$AAk?$AAn?$AAo?$AAw?$AAn?$AA?$DO?$AA?$AA@ 0000000180047c78     libucrt:assert.obj
 0002:00005cb0       __newctype                 0000000180047cb0     libucrt:ctype.obj
 0002:00005fb0       __newclmap                 0000000180047fb0     libucrt:ctype.obj
 0002:00006130       __newcumap                 0000000180048130     libucrt:ctype.obj
 0002:000062b0       _wctype                    00000001800482b0     libucrt:ctype.obj
 0002:00006630       ?large_power_data@?1??multiply_by_power_of_ten@__crt_strtox@@YA_NAEAUbig_integer@2@I@Z@4QBIB 0000000180048630     libucrt:strtod.obj
 0002:00006f40       ?large_power_indices@?1??multiply_by_power_of_ten@__crt_strtox@@YA_NAEAUbig_integer@2@I@Z@4QBUunpack_index@?1??12@YA_N0I@Z@B 0000000180048f40     libucrt:strtod.obj
 0002:00006fd8       ?small_powers_of_ten@?1??multiply_by_power_of_ten@__crt_strtox@@YA_NAEAUbig_integer@2@I@Z@4QBIB 0000000180048fd8     libucrt:strtod.obj
 0002:00008cb0       __acrt_exception_action_table 000000018004acb0     libucrt:exception_filter.obj
 0002:00008d70       __acrt_signal_action_table_count 000000018004ad70     libucrt:exception_filter.obj
 0002:00008d78       __acrt_signal_action_first_fpe_index 000000018004ad78     libucrt:exception_filter.obj
 0002:00008d80       __acrt_signal_action_fpe_count 000000018004ad80     libucrt:exception_filter.obj
 0002:00008d88       ??_C@_1BI@BGOHAHKC@?$AAm?$AAs?$AAc?$AAo?$AAr?$AAe?$AAe?$AA?4?$AAd?$AAl?$AAl?$AA?$AA@ 000000018004ad88     libucrt:exit.obj
 0002:00008da0       ??_C@_0P@MIGLKIOC@CorExitProcess?$AA@ 000000018004ada0     libucrt:exit.obj
 0002:00008f50       ??_C@_1EA@JGEFHKEI@?$AAa?$AAp?$AAi?$AA?9?$AAm?$AAs?$AA?9?$AAw?$AAi?$AAn?$AA?9?$AAc?$AAo?$AAr?$AAe?$AA?9?$AAd?$AAa?$AAt?$AAe?$AAt?$AAi?$AAm?$AAe?$AA?9?$AAl?$AA1?$AA?9?$AA1?$AA?9?$AA1?$AA?$AA@ 000000018004af50     libucrt:winapi_thunks.obj
 0002:00008f90       ??_C@_1DM@KHCHBNEB@?$AAa?$AAp?$AAi?$AA?9?$AAm?$AAs?$AA?9?$AAw?$AAi?$AAn?$AA?9?$AAc?$AAo?$AAr?$AAe?$AA?9?$AAf?$AAi?$AAb?$AAe?$AAr?$AAs?$AA?9?$AAl?$AA1?$AA?9?$AA1?$AA?9?$AA1?$AA?$AA@ 000000018004af90     libucrt:winapi_thunks.obj
 0002:00008fd0       ??_C@_1DI@IJCEHOCB@?$AAa?$AAp?$AAi?$AA?9?$AAm?$AAs?$AA?9?$AAw?$AAi?$AAn?$AA?9?$AAc?$AAo?$AAr?$AAe?$AA?9?$AAf?$AAi?$AAl?$AAe?$AA?9?$AAl?$AA1?$AA?9?$AA2?$AA?9?$AA2?$AA?$AA@ 000000018004afd0     libucrt:winapi_thunks.obj
 0002:00009010       ??_C@_1EI@MPIAOHOC@?$AAa?$AAp?$AAi?$AA?9?$AAm?$AAs?$AA?9?$AAw?$AAi?$AAn?$AA?9?$AAc?$AAo?$AAr?$AAe?$AA?9?$AAl?$AAo?$AAc?$AAa?$AAl?$AAi?$AAz?$AAa?$AAt?$AAi?$AAo?$AAn?$AA?9?$AAl?$AA1?$AA?9@ 000000018004b010     libucrt:winapi_thunks.obj
 0002:00009060       ??_C@_1FK@FPHCKFIE@?$AAa?$AAp?$AAi?$AA?9?$AAm?$AAs?$AA?9?$AAw?$AAi?$AAn?$AA?9?$AAc?$AAo?$AAr?$AAe?$AA?9?$AAl?$AAo?$AAc?$AAa?$AAl?$AAi?$AAz?$AAa?$AAt?$AAi?$AAo?$AAn?$AA?9?$AAo?$AAb?$AAs@ 000000018004b060     libucrt:winapi_thunks.obj
 0002:000090c0       ??_C@_1EM@DILCGIIO@?$AAa?$AAp?$AAi?$AA?9?$AAm?$AAs?$AA?9?$AAw?$AAi?$AAn?$AA?9?$AAc?$AAo?$AAr?$AAe?$AA?9?$AAp?$AAr?$AAo?$AAc?$AAe?$AAs?$AAs?$AAt?$AAh?$AAr?$AAe?$AAa?$AAd?$AAs?$AA?9?$AAl@ 000000018004b0c0     libucrt:winapi_thunks.obj
 0002:00009110       ??_C@_1DM@LNCGDDPN@?$AAa?$AAp?$AAi?$AA?9?$AAm?$AAs?$AA?9?$AAw?$AAi?$AAn?$AA?9?$AAc?$AAo?$AAr?$AAe?$AA?9?$AAs?$AAt?$AAr?$AAi?$AAn?$AAg?$AA?9?$AAl?$AA1?$AA?9?$AA1?$AA?9?$AA0?$AA?$AA@ 000000018004b110     libucrt:winapi_thunks.obj
 0002:00009150       ??_C@_1DK@LPPGFMPP@?$AAa?$AAp?$AAi?$AA?9?$AAm?$AAs?$AA?9?$AAw?$AAi?$AAn?$AA?9?$AAc?$AAo?$AAr?$AAe?$AA?9?$AAs?$AAy?$AAn?$AAc?$AAh?$AA?9?$AAl?$AA1?$AA?9?$AA2?$AA?9?$AA0?$AA?$AA@ 000000018004b150     libucrt:winapi_thunks.obj
 0002:00009190       ??_C@_1DO@FPAPJEMD@?$AAa?$AAp?$AAi?$AA?9?$AAm?$AAs?$AA?9?$AAw?$AAi?$AAn?$AA?9?$AAc?$AAo?$AAr?$AAe?$AA?9?$AAs?$AAy?$AAs?$AAi?$AAn?$AAf?$AAo?$AA?9?$AAl?$AA1?$AA?9?$AA2?$AA?9?$AA1?$AA?$AA@ 000000018004b190     libucrt:winapi_thunks.obj
 0002:000091d0       ??_C@_1DK@NDHNAHIO@?$AAa?$AAp?$AAi?$AA?9?$AAm?$AAs?$AA?9?$AAw?$AAi?$AAn?$AA?9?$AAc?$AAo?$AAr?$AAe?$AA?9?$AAw?$AAi?$AAn?$AAr?$AAt?$AA?9?$AAl?$AA1?$AA?9?$AA1?$AA?9?$AA0?$AA?$AA@ 000000018004b1d0     libucrt:winapi_thunks.obj
 0002:00009210       ??_C@_1DM@KGHDGBCM@?$AAa?$AAp?$AAi?$AA?9?$AAm?$AAs?$AA?9?$AAw?$AAi?$AAn?$AA?9?$AAc?$AAo?$AAr?$AAe?$AA?9?$AAx?$AAs?$AAt?$AAa?$AAt?$AAe?$AA?9?$AAl?$AA2?$AA?9?$AA1?$AA?9?$AA0?$AA?$AA@ 000000018004b210     libucrt:winapi_thunks.obj
 0002:00009250       ??_C@_1EO@IJIOEFOH@?$AAa?$AAp?$AAi?$AA?9?$AAm?$AAs?$AA?9?$AAw?$AAi?$AAn?$AA?9?$AAr?$AAt?$AAc?$AAo?$AAr?$AAe?$AA?9?$AAn?$AAt?$AAu?$AAs?$AAe?$AAr?$AA?9?$AAw?$AAi?$AAn?$AAd?$AAo?$AAw?$AA?9@ 000000018004b250     libucrt:winapi_thunks.obj
 0002:000092a0       ??_C@_1FG@HHGEKANL@?$AAa?$AAp?$AAi?$AA?9?$AAm?$AAs?$AA?9?$AAw?$AAi?$AAn?$AA?9?$AAs?$AAe?$AAc?$AAu?$AAr?$AAi?$AAt?$AAy?$AA?9?$AAs?$AAy?$AAs?$AAt?$AAe?$AAm?$AAf?$AAu?$AAn?$AAc?$AAt?$AAi@ 000000018004b2a0     libucrt:winapi_thunks.obj
 0002:00009300       ??_C@_1EG@DBIOJECG@?$AAe?$AAx?$AAt?$AA?9?$AAm?$AAs?$AA?9?$AAw?$AAi?$AAn?$AA?9?$AAn?$AAt?$AAu?$AAs?$AAe?$AAr?$AA?9?$AAd?$AAi?$AAa?$AAl?$AAo?$AAg?$AAb?$AAo?$AAx?$AA?9?$AAl?$AA1?$AA?9?$AA1@ 000000018004b300     libucrt:winapi_thunks.obj
 0002:00009350       ??_C@_1EO@FIHMJCLF@?$AAe?$AAx?$AAt?$AA?9?$AAm?$AAs?$AA?9?$AAw?$AAi?$AAn?$AA?9?$AAn?$AAt?$AAu?$AAs?$AAe?$AAr?$AA?9?$AAw?$AAi?$AAn?$AAd?$AAo?$AAw?$AAs?$AAt?$AAa?$AAt?$AAi?$AAo?$AAn?$AA?9@ 000000018004b350     libucrt:winapi_thunks.obj
 0002:000093a0       ??_C@_1BC@DNHGCMLG@?$AAa?$AAd?$AAv?$AAa?$AAp?$AAi?$AA3?$AA2?$AA?$AA@ 000000018004b3a0     libucrt:winapi_thunks.obj
 0002:000093b8       ??_C@_1BC@GDMECMAK@?$AAk?$AAe?$AAr?$AAn?$AAe?$AAl?$AA3?$AA2?$AA?$AA@ 000000018004b3b8     libucrt:winapi_thunks.obj
 0002:000093d0       ??_C@_1M@OAIMIKLP@?$AAn?$AAt?$AAd?$AAl?$AAl?$AA?$AA@ 000000018004b3d0     libucrt:winapi_thunks.obj
 0002:000093e0       ??_C@_1EG@DPGNFKGC@?$AAa?$AAp?$AAi?$AA?9?$AAm?$AAs?$AA?9?$AAw?$AAi?$AAn?$AA?9?$AAa?$AAp?$AAp?$AAm?$AAo?$AAd?$AAe?$AAl?$AA?9?$AAr?$AAu?$AAn?$AAt?$AAi?$AAm?$AAe?$AA?9?$AAl?$AA1?$AA?9?$AA1@ 000000018004b3e0     libucrt:winapi_thunks.obj
 0002:00009428       ??_C@_1O@BCCLBEOE@?$AAu?$AAs?$AAe?$AAr?$AA3?$AA2?$AA?$AA@ 000000018004b428     libucrt:winapi_thunks.obj
 0002:00009438       ??_C@_1BA@PFFKHIOG@?$AAa?$AAp?$AAi?$AA?9?$AAm?$AAs?$AA?9?$AA?$AA@ 000000018004b438     libucrt:winapi_thunks.obj
 0002:00009448       ??_C@_1BA@IAIFMGEF@?$AAe?$AAx?$AAt?$AA?9?$AAm?$AAs?$AA?9?$AA?$AA@ 000000018004b448     libucrt:winapi_thunks.obj
 0002:00009460       ??_C@_0BA@FHFNEAED@AreFileApisANSI?$AA@ 000000018004b460     libucrt:winapi_thunks.obj
 0002:00009478       ??_C@_0BA@IHGNDAEB@CompareStringEx?$AA@ 000000018004b478     libucrt:winapi_thunks.obj
 0002:00009490       ??_C@_0BE@LJANKFHF@EnumSystemLocalesEx?$AA@ 000000018004b490     libucrt:winapi_thunks.obj
 0002:000094b0       ??_C@_08KNHFBNJ@FlsAlloc?$AA@ 000000018004b4b0     libucrt:winapi_thunks.obj
 0002:000094c8       ??_C@_07PEJMOBNF@FlsFree?$AA@ 000000018004b4c8     libucrt:winapi_thunks.obj
 0002:000094d8       ??_C@_0M@GDNOONDI@FlsGetValue?$AA@ 000000018004b4d8     libucrt:winapi_thunks.obj
 0002:000094f0       ??_C@_0M@JCPCPOEF@FlsSetValue?$AA@ 000000018004b4f0     libucrt:winapi_thunks.obj
 0002:00009508       ??_C@_0BA@HNOPNCHB@GetActiveWindow?$AA@ 000000018004b508     libucrt:winapi_thunks.obj
 0002:00009520       ??_C@_0BA@EPCJIIPD@GetDateFormatEx?$AA@ 000000018004b520     libucrt:winapi_thunks.obj
 0002:00009538       ??_C@_0BD@HHGDFDBJ@GetLastActivePopup?$AA@ 000000018004b538     libucrt:winapi_thunks.obj
 0002:00009558       ??_C@_0BA@ONOKGCMP@GetLocaleInfoEx?$AA@ 000000018004b558     libucrt:winapi_thunks.obj
 0002:00009570       ??_C@_0BI@DFKBFLJE@GetProcessWindowStation?$AA@ 000000018004b570     libucrt:winapi_thunks.obj
 0002:00009590       ??_C@_0BA@CIJJKCJJ@GetTimeFormatEx?$AA@ 000000018004b590     libucrt:winapi_thunks.obj
 0002:000095a8       ??_C@_0BJ@PBCCBIPI@GetUserDefaultLocaleName?$AA@ 000000018004b5a8     libucrt:winapi_thunks.obj
 0002:000095d0       ??_C@_0BK@DEKFELLI@GetUserObjectInformationW?$AA@ 000000018004b5d0     libucrt:winapi_thunks.obj
 0002:000095f8       ??_C@_0BM@HCFOFFN@InitializeCriticalSectionEx?$AA@ 000000018004b5f8     libucrt:winapi_thunks.obj
 0002:00009620       ??_C@_0BC@CELBKLLA@IsValidLocaleName?$AA@ 000000018004b620     libucrt:winapi_thunks.obj
 0002:00009640       ??_C@_0O@KKBNKAPF@LCMapStringEx?$AA@ 000000018004b640     libucrt:winapi_thunks.obj
 0002:00009658       ??_C@_0BB@CDHDDLLP@LCIDToLocaleName?$AA@ 000000018004b658     libucrt:winapi_thunks.obj
 0002:00009678       ??_C@_0BB@HBDEELFH@LocaleNameToLCID?$AA@ 000000018004b678     libucrt:winapi_thunks.obj
 0002:00009698       ??_C@_0M@CHKKJDAI@MessageBoxA?$AA@ 000000018004b698     libucrt:winapi_thunks.obj
 0002:000096b0       ??_C@_0M@DLDCCGNP@MessageBoxW?$AA@ 000000018004b6b0     libucrt:winapi_thunks.obj
 0002:000096c0       ??_C@_0CF@OJOFEIGO@AppPolicyGetProcessTerminationMe@ 000000018004b6c0     libucrt:winapi_thunks.obj
 0002:000096f0       ??_C@_0CE@OICFMIKE@AppPolicyGetShowDeveloperDiagnos@ 000000018004b6f0     libucrt:winapi_thunks.obj
 0002:00009718       ??_C@_0BL@ODDJNEDA@AppPolicyGetWindowingModel?$AA@ 000000018004b718     libucrt:winapi_thunks.obj
 0002:00009734       ??_C@_03OEIAHPBN@INF?$AA@  000000018004b734     libucrt:cvt.obj
 0002:00009738       ??_C@_03OJHLLCGB@inf?$AA@  000000018004b738     libucrt:cvt.obj
 0002:0000973c       ??_C@_03LKNCIKJB@NAN?$AA@  000000018004b73c     libucrt:cvt.obj
 0002:00009740       ??_C@_03LHCJEHON@nan?$AA@  000000018004b740     libucrt:cvt.obj
 0002:00009748       ??_C@_09OFJJIMPC@NAN?$CISNAN?$CJ?$AA@ 000000018004b748     libucrt:cvt.obj
 0002:00009758       ??_C@_09IPFBKMDL@nan?$CIsnan?$CJ?$AA@ 000000018004b758     libucrt:cvt.obj
 0002:00009768       ??_C@_08IKHNHAJ@NAN?$CIIND?$CJ?$AA@ 000000018004b768     libucrt:cvt.obj
 0002:00009778       ??_C@_08OFCDMILK@nan?$CIind?$CJ?$AA@ 000000018004b778     libucrt:cvt.obj
 0002:00009784       ??_C@_05KLBDPFGC@e?$CL000?$AA@ 000000018004b784     libucrt:cvt.obj
 0002:00009810       __lc_category              000000018004b810     libucrt:wsetlocale.obj
 0002:000098a0       ??_C@_1O@GIFLHMA@?$AAL?$AAC?$AA_?$AAA?$AAL?$AAL?$AA?$AA@ 000000018004b8a0     libucrt:wsetlocale.obj
 0002:000098b0       ??_C@_1BG@PPOMIBNJ@?$AAL?$AAC?$AA_?$AAC?$AAO?$AAL?$AAL?$AAA?$AAT?$AAE?$AA?$AA@ 000000018004b8b0     libucrt:wsetlocale.obj
 0002:000098c8       ??_C@_1BC@FFJGAPJM@?$AAL?$AAC?$AA_?$AAC?$AAT?$AAY?$AAP?$AAE?$AA?$AA@ 000000018004b8c8     libucrt:wsetlocale.obj
 0002:000098e0       ??_C@_1BI@PCKFNJFB@?$AAL?$AAC?$AA_?$AAM?$AAO?$AAN?$AAE?$AAT?$AAA?$AAR?$AAY?$AA?$AA@ 000000018004b8e0     libucrt:wsetlocale.obj
 0002:000098f8       ??_C@_1BG@ENIEDKID@?$AAL?$AAC?$AA_?$AAN?$AAU?$AAM?$AAE?$AAR?$AAI?$AAC?$AA?$AA@ 000000018004b8f8     libucrt:wsetlocale.obj
 0002:00009910       ??_C@_1BA@HAAOMIIG@?$AAL?$AAC?$AA_?$AAT?$AAI?$AAM?$AAE?$AA?$AA@ 000000018004b910     libucrt:wsetlocale.obj
 0002:00009920       ??_C@_15NBPDDFIP@?$AA?$DN?$AA?$DL?$AA?$AA@ 000000018004b920     libucrt:wsetlocale.obj
 0002:00009928       ??_C@_13PJJBFPED@?$AA?$DL?$AA?$AA@ 000000018004b928     libucrt:wsetlocale.obj
 0002:0000992c       ??_C@_13NMPKAAJP@?$AA?$DN?$AA?$AA@ 000000018004b92c     libucrt:wsetlocale.obj
 0002:00009930       ??_C@_13FHBKNHDA@?$AAC?$AA?$AA@ 000000018004b930     libucrt:wsetlocale.obj
 0002:00009938       ??_C@_19MPDNHKDG@?$AAu?$AAt?$AAf?$AA8?$AA?$AA@ 000000018004b938     libucrt:wsetlocale.obj
 0002:00009948       ??_C@_1M@FPEIIFAM@?$AAu?$AAt?$AAf?$AA?9?$AA8?$AA?$AA@ 000000018004b948     libucrt:wsetlocale.obj
 0002:00009958       ??_C@_17MBJJLFDM@?$AA_?$AA?4?$AA?0?$AA?$AA@ 000000018004b958     libucrt:wsetlocale.obj
 0002:00009960       ??_C@_13ENNFDPBH@?$AA_?$AA?$AA@ 000000018004b960     libucrt:wsetlocale.obj
 0002:00009964       ??_C@_13JOFGPIOO@?$AA?4?$AA?$AA@ 000000018004b964     libucrt:wsetlocale.obj
 0002:00009970       __lc_time_c                000000018004b970     libucrt:nlsdata.obj
 0002:00009c30       ??_C@_03KOEHGMDN@Sun?$AA@  000000018004bc30     libucrt:nlsdata.obj
 0002:00009c34       ??_C@_03PDAGKDH@Mon?$AA@   000000018004bc34     libucrt:nlsdata.obj
 0002:00009c38       ??_C@_03NAGEINEP@Tue?$AA@  000000018004bc38     libucrt:nlsdata.obj
 0002:00009c3c       ??_C@_03MHOMLAJA@Wed?$AA@  000000018004bc3c     libucrt:nlsdata.obj
 0002:00009c40       ??_C@_03IOFIKPDN@Thu?$AA@  000000018004bc40     libucrt:nlsdata.obj
 0002:00009c44       ??_C@_03IDIOELNC@Fri?$AA@  000000018004bc44     libucrt:nlsdata.obj
 0002:00009c48       ??_C@_03FEFJNEK@Sat?$AA@   000000018004bc48     libucrt:nlsdata.obj
 0002:00009c4c       ??_C@_06OOPIFAJ@Sunday?$AA@ 000000018004bc4c     libucrt:nlsdata.obj
 0002:00009c54       ??_C@_06JLEDEDGH@Monday?$AA@ 000000018004bc54     libucrt:nlsdata.obj
 0002:00009c60       ??_C@_07BAAGCFCM@Tuesday?$AA@ 000000018004bc60     libucrt:nlsdata.obj
 0002:00009c68       ??_C@_09DLIGFAKA@Wednesday?$AA@ 000000018004bc68     libucrt:nlsdata.obj
 0002:00009c78       ??_C@_08HACCIKIA@Thursday?$AA@ 000000018004bc78     libucrt:nlsdata.obj
 0002:00009c84       ??_C@_06JECMNKMI@Friday?$AA@ 000000018004bc84     libucrt:nlsdata.obj
 0002:00009c90       ??_C@_08INBOOONO@Saturday?$AA@ 000000018004bc90     libucrt:nlsdata.obj
 0002:00009c9c       ??_C@_03JIHJHPIE@Jan?$AA@  000000018004bc9c     libucrt:nlsdata.obj
 0002:00009ca0       ??_C@_03HJBDCHOM@Feb?$AA@  000000018004bca0     libucrt:nlsdata.obj
 0002:00009ca4       ??_C@_03ODNJBKGA@Mar?$AA@  000000018004bca4     libucrt:nlsdata.obj
 0002:00009ca8       ??_C@_03LEOLGMJP@Apr?$AA@  000000018004bca8     libucrt:nlsdata.obj
 0002:00009cac       ??_C@_03CNMDKL@May?$AA@    000000018004bcac     libucrt:nlsdata.obj
 0002:00009cb0       ??_C@_03IDFGHECI@Jun?$AA@  000000018004bcb0     libucrt:nlsdata.obj
 0002:00009cb4       ??_C@_03LBGABGKK@Jul?$AA@  000000018004bcb4     libucrt:nlsdata.obj
 0002:00009cb8       ??_C@_03IFJFEIGA@Aug?$AA@  000000018004bcb8     libucrt:nlsdata.obj
 0002:00009cbc       ??_C@_03GGCAPAJC@Sep?$AA@  000000018004bcbc     libucrt:nlsdata.obj
 0002:00009cc0       ??_C@_03BMAOKBAD@Oct?$AA@  000000018004bcc0     libucrt:nlsdata.obj
 0002:00009cc4       ??_C@_03JPJOFNIA@Nov?$AA@  000000018004bcc4     libucrt:nlsdata.obj
 0002:00009cc8       ??_C@_03MKABNOCG@Dec?$AA@  000000018004bcc8     libucrt:nlsdata.obj
 0002:00009cd0       ??_C@_07CGJPFGJA@January?$AA@ 000000018004bcd0     libucrt:nlsdata.obj
 0002:00009cd8       ??_C@_08GNJGEPFN@February?$AA@ 000000018004bcd8     libucrt:nlsdata.obj
 0002:00009ce4       ??_C@_05HPCKOFNC@March?$AA@ 000000018004bce4     libucrt:nlsdata.obj
 0002:00009cec       ??_C@_05DMJDNLEJ@April?$AA@ 000000018004bcec     libucrt:nlsdata.obj
 0002:00009cf4       ??_C@_04CNLMGBGM@June?$AA@ 000000018004bcf4     libucrt:nlsdata.obj
 0002:00009cfc       ??_C@_04MIEPOIFP@July?$AA@ 000000018004bcfc     libucrt:nlsdata.obj
 0002:00009d04       ??_C@_06LBBHFDDG@August?$AA@ 000000018004bd04     libucrt:nlsdata.obj
 0002:00009d10       ??_C@_09BHHEALKD@September?$AA@ 000000018004bd10     libucrt:nlsdata.obj
 0002:00009d20       ??_C@_07JJNFCEND@October?$AA@ 000000018004bd20     libucrt:nlsdata.obj
 0002:00009d28       ??_C@_08HCHEGEOA@November?$AA@ 000000018004bd28     libucrt:nlsdata.obj
 0002:00009d38       ??_C@_08EDHMEBNP@December?$AA@ 000000018004bd38     libucrt:nlsdata.obj
 0002:00009d44       ??_C@_02DEDBPAFC@AM?$AA@   000000018004bd44     libucrt:nlsdata.obj
 0002:00009d48       ??_C@_02CJNFDJBF@PM?$AA@   000000018004bd48     libucrt:nlsdata.obj
 0002:00009d50       ??_C@_08BPBNCDIB@MM?1dd?1yy?$AA@ 000000018004bd50     libucrt:nlsdata.obj
 0002:00009d60       ??_C@_0BE@CKGJFCPC@dddd?0?5MMMM?5dd?0?5yyyy?$AA@ 000000018004bd60     libucrt:nlsdata.obj
 0002:00009d78       ??_C@_08JCCMCCIL@HH?3mm?3ss?$AA@ 000000018004bd78     libucrt:nlsdata.obj
 0002:00009d88       ??_C@_17MBGCMIPB@?$AAS?$AAu?$AAn?$AA?$AA@ 000000018004bd88     libucrt:nlsdata.obj
 0002:00009d90       ??_C@_17KBOMKBF@?$AAM?$AAo?$AAn?$AA?$AA@ 000000018004bd90     libucrt:nlsdata.obj
 0002:00009d98       ??_C@_17BMKGEGOJ@?$AAT?$AAu?$AAe?$AA?$AA@ 000000018004bd98     libucrt:nlsdata.obj
 0002:00009da0       ??_C@_17CJEDCEPE@?$AAW?$AAe?$AAd?$AA?$AA@ 000000018004bda0     libucrt:nlsdata.obj
 0002:00009da8       ??_C@_17PDPHAADD@?$AAT?$AAh?$AAu?$AA?$AA@ 000000018004bda8     libucrt:nlsdata.obj
 0002:00009db0       ??_C@_17HFOLPPLP@?$AAF?$AAr?$AAi?$AA?$AA@ 000000018004bdb0     libucrt:nlsdata.obj
 0002:00009db8       ??_C@_17GGIBDPIH@?$AAS?$AAa?$AAt?$AA?$AA@ 000000018004bdb8     libucrt:nlsdata.obj
 0002:00009dc0       ??_C@_1O@IHNHDHPB@?$AAS?$AAu?$AAn?$AAd?$AAa?$AAy?$AA?$AA@ 000000018004bdc0     libucrt:nlsdata.obj
 0002:00009dd0       ??_C@_1O@MMNBFLIA@?$AAM?$AAo?$AAn?$AAd?$AAa?$AAy?$AA?$AA@ 000000018004bdd0     libucrt:nlsdata.obj
 0002:00009de0       ??_C@_1BA@ENFBFFEK@?$AAT?$AAu?$AAe?$AAs?$AAd?$AAa?$AAy?$AA?$AA@ 000000018004bde0     libucrt:nlsdata.obj
 0002:00009df0       ??_C@_1BE@EBOGMDOH@?$AAW?$AAe?$AAd?$AAn?$AAe?$AAs?$AAd?$AAa?$AAy?$AA?$AA@ 000000018004bdf0     libucrt:nlsdata.obj
 0002:00009e08       ??_C@_1BC@HHMNLIHE@?$AAT?$AAh?$AAu?$AAr?$AAs?$AAd?$AAa?$AAy?$AA?$AA@ 000000018004be08     libucrt:nlsdata.obj
 0002:00009e20       ??_C@_1O@PDICJHAG@?$AAF?$AAr?$AAi?$AAd?$AAa?$AAy?$AA?$AA@ 000000018004be20     libucrt:nlsdata.obj
 0002:00009e30       ??_C@_1BC@ENMNNPAJ@?$AAS?$AAa?$AAt?$AAu?$AAr?$AAd?$AAa?$AAy?$AA?$AA@ 000000018004be30     libucrt:nlsdata.obj
 0002:00009e48       ??_C@_17DKNBKCHM@?$AAJ?$AAa?$AAn?$AA?$AA@ 000000018004be48     libucrt:nlsdata.obj
 0002:00009e50       ??_C@_17LMDJEKJN@?$AAF?$AAe?$AAb?$AA?$AA@ 000000018004be50     libucrt:nlsdata.obj
 0002:00009e58       ??_C@_17CKNLEDEC@?$AAM?$AAa?$AAr?$AA?$AA@ 000000018004be58     libucrt:nlsdata.obj
 0002:00009e60       ??_C@_17LFPOIHDD@?$AAA?$AAp?$AAr?$AA?$AA@ 000000018004be60     libucrt:nlsdata.obj
 0002:00009e68       ??_C@_17PNNKMEED@?$AAM?$AAa?$AAy?$AA?$AA@ 000000018004be68     libucrt:nlsdata.obj
 0002:00009e70       ??_C@_17KCJGOCPB@?$AAJ?$AAu?$AAn?$AA?$AA@ 000000018004be70     libucrt:nlsdata.obj
 0002:00009e78       ??_C@_17IJPCKHK@?$AAJ?$AAu?$AAl?$AA?$AA@ 000000018004be78     libucrt:nlsdata.obj
 0002:00009e80       ??_C@_17ICPELBCN@?$AAA?$AAu?$AAg?$AA?$AA@ 000000018004be80     libucrt:nlsdata.obj
 0002:00009e88       ??_C@_17HCHCOKMG@?$AAS?$AAe?$AAp?$AA?$AA@ 000000018004be88     libucrt:nlsdata.obj
 0002:00009e90       ??_C@_17FNLKOI@?$AAO?$AAc?$AAt?$AA?$AA@ 000000018004be90     libucrt:nlsdata.obj
 0002:00009e98       ??_C@_17BBDMLCIG@?$AAN?$AAo?$AAv?$AA?$AA@ 000000018004be98     libucrt:nlsdata.obj
 0002:00009ea0       ??_C@_17EGKACKIF@?$AAD?$AAe?$AAc?$AA?$AA@ 000000018004bea0     libucrt:nlsdata.obj
 0002:00009ea8       ??_C@_1BA@EFMEIEBA@?$AAJ?$AAa?$AAn?$AAu?$AAa?$AAr?$AAy?$AA?$AA@ 000000018004bea8     libucrt:nlsdata.obj
 0002:00009eb8       ??_C@_1BC@JGDDFFAM@?$AAF?$AAe?$AAb?$AAr?$AAu?$AAa?$AAr?$AAy?$AA?$AA@ 000000018004beb8     libucrt:nlsdata.obj
 0002:00009ed0       ??_C@_1M@IKEENEDF@?$AAM?$AAa?$AAr?$AAc?$AAh?$AA?$AA@ 000000018004bed0     libucrt:nlsdata.obj
 0002:00009ee0       ??_C@_1M@GJNLMHFD@?$AAA?$AAp?$AAr?$AAi?$AAl?$AA?$AA@ 000000018004bee0     libucrt:nlsdata.obj
 0002:00009ef0       ??_C@_19EPFLPGAP@?$AAJ?$AAu?$AAn?$AAe?$AA?$AA@ 000000018004bef0     libucrt:nlsdata.obj
 0002:00009f00       ??_C@_19BIFMLPCD@?$AAJ?$AAu?$AAl?$AAy?$AA?$AA@ 000000018004bf00     libucrt:nlsdata.obj
 0002:00009f10       ??_C@_1O@PAHLKOAC@?$AAA?$AAu?$AAg?$AAu?$AAs?$AAt?$AA?$AA@ 000000018004bf10     libucrt:nlsdata.obj
 0002:00009f20       ??_C@_1BE@DKAAMBJL@?$AAS?$AAe?$AAp?$AAt?$AAe?$AAm?$AAb?$AAe?$AAr?$AA?$AA@ 000000018004bf20     libucrt:nlsdata.obj
 0002:00009f38       ??_C@_1BA@EPANDLNG@?$AAO?$AAc?$AAt?$AAo?$AAb?$AAe?$AAr?$AA?$AA@ 000000018004bf38     libucrt:nlsdata.obj
 0002:00009f48       ??_C@_1BC@BGLIFPF@?$AAN?$AAo?$AAv?$AAe?$AAm?$AAb?$AAe?$AAr?$AA?$AA@ 000000018004bf48     libucrt:nlsdata.obj
 0002:00009f60       ??_C@_1BC@FEMKIFH@?$AAD?$AAe?$AAc?$AAe?$AAm?$AAb?$AAe?$AAr?$AA?$AA@ 000000018004bf60     libucrt:nlsdata.obj
 0002:00009f74       ??_C@_15ODEHAHHF@?$AAA?$AAM?$AA?$AA@ 000000018004bf74     libucrt:nlsdata.obj
 0002:00009f7c       ??_C@_15CLMNNGEL@?$AAP?$AAM?$AA?$AA@ 000000018004bf7c     libucrt:nlsdata.obj
 0002:00009f88       ??_C@_1BC@IEBCMHCM@?$AAM?$AAM?$AA?1?$AAd?$AAd?$AA?1?$AAy?$AAy?$AA?$AA@ 000000018004bf88     libucrt:nlsdata.obj
 0002:00009fa0       ??_C@_1CI@KNAKOEBC@?$AAd?$AAd?$AAd?$AAd?$AA?0?$AA?5?$AAM?$AAM?$AAM?$AAM?$AA?5?$AAd?$AAd?$AA?0?$AA?5?$AAy?$AAy?$AAy?$AAy?$AA?$AA@ 000000018004bfa0     libucrt:nlsdata.obj
 0002:00009fc8       ??_C@_1BC@GDGBMEMK@?$AAH?$AAH?$AA?3?$AAm?$AAm?$AA?3?$AAs?$AAs?$AA?$AA@ 000000018004bfc8     libucrt:nlsdata.obj
 0002:00009fe0       ??_C@_1M@BMHNFIME@?$AAe?$AAn?$AA?9?$AAU?$AAS?$AA?$AA@ 000000018004bfe0     libucrt:nlsdata.obj
 0002:0000a1c0       ??_C@_03KHJOGHMM@exp?$AA@  000000018004c1c0     libucrt:fpexcept.obj
 0002:0000a1c4       ??_C@_03JGHBODFD@pow?$AA@  000000018004c1c4     libucrt:fpexcept.obj
 0002:0000a1c8       ??_C@_03MGHMBJCF@log?$AA@  000000018004c1c8     libucrt:fpexcept.obj
 0002:0000a1cc       ??_C@_05HGHHAHAP@log10?$AA@ 000000018004c1cc     libucrt:fpexcept.obj
 0002:0000a1d4       ??_C@_04COOMCNPB@sinh?$AA@ 000000018004c1d4     libucrt:fpexcept.obj
 0002:0000a1dc       ??_C@_04HPJJNFIM@cosh?$AA@ 000000018004c1dc     libucrt:fpexcept.obj
 0002:0000a1e4       ??_C@_04FJHINJAO@tanh?$AA@ 000000018004c1e4     libucrt:fpexcept.obj
 0002:0000a1ec       ??_C@_04FIHNOPOL@asin?$AA@ 000000018004c1ec     libucrt:fpexcept.obj
 0002:0000a1f4       ??_C@_04PDIFKINK@acos?$AA@ 000000018004c1f4     libucrt:fpexcept.obj
 0002:0000a1fc       ??_C@_04MLLJIGOK@atan?$AA@ 000000018004c1fc     libucrt:fpexcept.obj
 0002:0000a204       ??_C@_05KNGEOGJB@atan2?$AA@ 000000018004c204     libucrt:fpexcept.obj
 0002:0000a20c       ??_C@_04EIAKFFMI@sqrt?$AA@ 000000018004c20c     libucrt:fpexcept.obj
 0002:0000a214       ??_C@_03BLEJJJBH@sin?$AA@  000000018004c214     libucrt:fpexcept.obj
 0002:0000a218       ??_C@_03LALBNOCG@cos?$AA@  000000018004c218     libucrt:fpexcept.obj
 0002:0000a21c       ??_C@_03IIINPABG@tan?$AA@  000000018004c21c     libucrt:fpexcept.obj
 0002:0000a220       ??_C@_04GFPJNGEK@ceil?$AA@ 000000018004c220     libucrt:fpexcept.obj
 0002:0000a228       ??_C@_05PBJFFIGL@floor?$AA@ 000000018004c228     libucrt:fpexcept.obj
 0002:0000a230       ??_C@_04ODHECPBC@fabs?$AA@ 000000018004c230     libucrt:fpexcept.obj
 0002:0000a238       ??_C@_04EHEDPDJG@modf?$AA@ 000000018004c238     libucrt:fpexcept.obj
 0002:0000a240       ??_C@_05CEJMAHNP@ldexp?$AA@ 000000018004c240     libucrt:fpexcept.obj
 0002:0000a248       ??_C@_05KBKMEMPO@_cabs?$AA@ 000000018004c248     libucrt:fpexcept.obj
 0002:0000a250       ??_C@_06MEIMCGCF@_hypot?$AA@ 000000018004c250     libucrt:fpexcept.obj
 0002:0000a258       ??_C@_04KEPJIHGP@fmod?$AA@ 000000018004c258     libucrt:fpexcept.obj
 0002:0000a260       ??_C@_05GKKHEGJL@frexp?$AA@ 000000018004c260     libucrt:fpexcept.obj
 0002:0000a268       ??_C@_03MJLDFKDL@_y0?$AA@  000000018004c268     libucrt:fpexcept.obj
 0002:0000a26c       ??_C@_03NAKIGLHK@_y1?$AA@  000000018004c26c     libucrt:fpexcept.obj
 0002:0000a270       ??_C@_03ONILCKOB@_yn?$AA@  000000018004c270     libucrt:fpexcept.obj
 0002:0000a274       ??_C@_05JGDBENOH@_logb?$AA@ 000000018004c274     libucrt:fpexcept.obj
 0002:0000a280       ??_C@_0L@KDOEJCKC@_nextafter?$AA@ 000000018004c280     libucrt:fpexcept.obj
 0002:0000a290       _d_inf                     000000018004c290     libucrt:util.obj
 0002:0000a298       _d_max                     000000018004c298     libucrt:util.obj
 0002:0000a2d0       __log_256_lead             000000018004c2d0     libucrt:log_256_lead_tail_table.obj
 0002:0000aae0       __log_256_tail             000000018004cae0     libucrt:log_256_lead_tail_table.obj
 0002:0000b2f0       __two_to_jby64_head_table  000000018004d2f0     libucrt:two_to_jby64_head_tail_table.obj
 0002:0000b4f0       __two_to_jby64_tail_table  000000018004d4f0     libucrt:two_to_jby64_head_tail_table.obj
 0002:0000b6f0       ??_C@_04MBFDLNIM@powf?$AA@ 000000018004d6f0     libucrt:pow_special.obj
 0002:0000b700       __two_to_jby64_table       000000018004d700     libucrt:two_to_jby64_table.obj
 0002:0000b900       __log_F_inv_qword          000000018004d900     libucrt:log_f_inv_qword_table.obj
 0002:0000c130       ??_C@_1M@HPNHIDJI@?$AAj?$AAa?$AA?9?$AAJ?$AAP?$AA?$AA@ 000000018004e130     libucrt:mbctype.obj
 0002:0000c140       ??_C@_1M@BIBDDEMK@?$AAz?$AAh?$AA?9?$AAC?$AAN?$AA?$AA@ 000000018004e140     libucrt:mbctype.obj
 0002:0000c150       ??_C@_1M@JLOOOEGK@?$AAk?$AAo?$AA?9?$AAK?$AAR?$AA?$AA@ 000000018004e150     libucrt:mbctype.obj
 0002:0000c160       ??_C@_1M@CLNBBOPM@?$AAz?$AAh?$AA?9?$AAT?$AAW?$AA?$AA@ 000000018004e160     libucrt:mbctype.obj
 0002:0000cfb0       ??_C@_15EMKDOKLE@?$AAa?$AAr?$AA?$AA@ 000000018004efb0     libucrt:lcidtoname_downlevel.obj
 0002:0000cfb8       ??_C@_15KNPADPLH@?$AAb?$AAg?$AA?$AA@ 000000018004efb8     libucrt:lcidtoname_downlevel.obj
 0002:0000cfc0       ??_C@_15EDMHLDMO@?$AAc?$AAa?$AA?$AA@ 000000018004efc0     libucrt:lcidtoname_downlevel.obj
 0002:0000cfc8       ??_C@_1O@BPEAJADD@?$AAz?$AAh?$AA?9?$AAC?$AAH?$AAS?$AA?$AA@ 000000018004efc8     libucrt:lcidtoname_downlevel.obj
 0002:0000cfd8       ??_C@_15LJNHCMNK@?$AAc?$AAs?$AA?$AA@ 000000018004efd8     libucrt:lcidtoname_downlevel.obj
 0002:0000cfe0       ??_C@_15FOMCIDHG@?$AAd?$AAa?$AA?$AA@ 000000018004efe0     libucrt:lcidtoname_downlevel.obj
 0002:0000cfe8       ??_C@_15NBKABECB@?$AAd?$AAe?$AA?$AA@ 000000018004efe8     libucrt:lcidtoname_downlevel.obj
 0002:0000cff0       ??_C@_15GHPEIIAO@?$AAe?$AAl?$AA?$AA@ 000000018004eff0     libucrt:lcidtoname_downlevel.obj
 0002:0000cff8       ??_C@_15MNPNEAIF@?$AAe?$AAn?$AA?$AA@ 000000018004eff8     libucrt:lcidtoname_downlevel.obj
 0002:0000d000       ??_C@_15GPIOMPMH@?$AAe?$AAs?$AA?$AA@ 000000018004f000     libucrt:lcidtoname_downlevel.obj
 0002:0000d008       ??_C@_15NGLOAKJC@?$AAf?$AAi?$AA?$AA@ 000000018004f008     libucrt:lcidtoname_downlevel.obj
 0002:0000d010       ??_C@_15FBKGNKAM@?$AAf?$AAr?$AA?$AA@ 000000018004f010     libucrt:lcidtoname_downlevel.obj
 0002:0000d018       ??_C@_15KGGCNEFK@?$AAh?$AAe?$AA?$AA@ 000000018004f018     libucrt:lcidtoname_downlevel.obj
 0002:0000d020       ??_C@_15PGHLIDMF@?$AAh?$AAu?$AA?$AA@ 000000018004f020     libucrt:lcidtoname_downlevel.obj
 0002:0000d028       ??_C@_15BIEMAPLM@?$AAi?$AAs?$AA?$AA@ 000000018004f028     libucrt:lcidtoname_downlevel.obj
 0002:0000d030       ??_C@_15IFJLDHAF@?$AAi?$AAt?$AA?$AA@ 000000018004f030     libucrt:lcidtoname_downlevel.obj
 0002:0000d038       ??_C@_15GEMIOCAG@?$AAj?$AAa?$AA?$AA@ 000000018004f038     libucrt:lcidtoname_downlevel.obj
 0002:0000d040       ??_C@_15EPELEGJA@?$AAk?$AAo?$AA?$AA@ 000000018004f040     libucrt:lcidtoname_downlevel.obj
 0002:0000d048       ??_C@_15NDDHIMN@?$AAn?$AAl?$AA?$AA@ 000000018004f048     libucrt:lcidtoname_downlevel.obj
 0002:0000d050       ??_C@_15BPIGNHCD@?$AAn?$AAo?$AA?$AA@ 000000018004f050     libucrt:lcidtoname_downlevel.obj
 0002:0000d058       ??_C@_15DEOPBLCG@?$AAp?$AAl?$AA?$AA@ 000000018004f058     libucrt:lcidtoname_downlevel.obj
 0002:0000d060       ??_C@_15KBECGEFG@?$AAp?$AAt?$AA?$AA@ 000000018004f060     libucrt:lcidtoname_downlevel.obj
 0002:0000d068       ??_C@_15GLJCBFMD@?$AAr?$AAo?$AA?$AA@ 000000018004f068     libucrt:lcidtoname_downlevel.obj
 0002:0000d070       ??_C@_15FEDGKCDI@?$AAr?$AAu?$AA?$AA@ 000000018004f070     libucrt:lcidtoname_downlevel.obj
 0002:0000d078       ??_C@_15GLKMLLHM@?$AAh?$AAr?$AA?$AA@ 000000018004f078     libucrt:lcidtoname_downlevel.obj
 0002:0000d080       ??_C@_15CPKMFBDB@?$AAs?$AAk?$AA?$AA@ 000000018004f080     libucrt:lcidtoname_downlevel.obj
 0002:0000d088       ??_C@_15BAAIOGMK@?$AAs?$AAq?$AA?$AA@ 000000018004f088     libucrt:lcidtoname_downlevel.obj
 0002:0000d090       ??_C@_15INNPNOHD@?$AAs?$AAv?$AA?$AA@ 000000018004f090     libucrt:lcidtoname_downlevel.obj
 0002:0000d098       ??_C@_15CABMMOGH@?$AAt?$AAh?$AA?$AA@ 000000018004f098     libucrt:lcidtoname_downlevel.obj
 0002:0000d0a0       ??_C@_15BPLIHJJM@?$AAt?$AAr?$AA?$AA@ 000000018004f0a0     libucrt:lcidtoname_downlevel.obj
 0002:0000d0a8       ??_C@_15NEOEKKDJ@?$AAu?$AAr?$AA?$AA@ 000000018004f0a8     libucrt:lcidtoname_downlevel.obj
 0002:0000d0b0       ??_C@_15NFICGAJK@?$AAi?$AAd?$AA?$AA@ 000000018004f0b0     libucrt:lcidtoname_downlevel.obj
 0002:0000d0b8       ??_C@_15PJPFLCCM@?$AAu?$AAk?$AA?$AA@ 000000018004f0b8     libucrt:lcidtoname_downlevel.obj
 0002:0000d0c0       ??_C@_15HPJPHDM@?$AAb?$AAe?$AA?$AA@ 000000018004f0c0     libucrt:lcidtoname_downlevel.obj
 0002:0000d0c8       ??_C@_15LCHLGJII@?$AAs?$AAl?$AA?$AA@ 000000018004f0c8     libucrt:lcidtoname_downlevel.obj
 0002:0000d0d0       ??_C@_15PCFJPHHO@?$AAe?$AAt?$AA?$AA@ 000000018004f0d0     libucrt:lcidtoname_downlevel.obj
 0002:0000d0d8       ??_C@_15HPFPGODN@?$AAl?$AAv?$AA?$AA@ 000000018004f0d8     libucrt:lcidtoname_downlevel.obj
 0002:0000d0e0       ??_C@_15NFFGKGLG@?$AAl?$AAt?$AA?$AA@ 000000018004f0e0     libucrt:lcidtoname_downlevel.obj
 0002:0000d0e8       ??_C@_15BDAKCCHN@?$AAf?$AAa?$AA?$AA@ 000000018004f0e8     libucrt:lcidtoname_downlevel.obj
 0002:0000d0f0       ??_C@_15NFGIAIAJ@?$AAv?$AAi?$AA?$AA@ 000000018004f0f0     libucrt:lcidtoname_downlevel.obj
 0002:0000d0f8       ??_C@_15LMKNDMHN@?$AAh?$AAy?$AA?$AA@ 000000018004f0f8     libucrt:lcidtoname_downlevel.obj
 0002:0000d100       ??_C@_15IJBHMCFL@?$AAa?$AAz?$AA?$AA@ 000000018004f100     libucrt:lcidtoname_downlevel.obj
 0002:0000d108       ??_C@_15EKOFJABL@?$AAe?$AAu?$AA?$AA@ 000000018004f108     libucrt:lcidtoname_downlevel.obj
 0002:0000d110       ??_C@_15BGHADCNK@?$AAm?$AAk?$AA?$AA@ 000000018004f110     libucrt:lcidtoname_downlevel.obj
 0002:0000d118       ??_C@_15JDNICKHM@?$AAa?$AAf?$AA?$AA@ 000000018004f118     libucrt:lcidtoname_downlevel.obj
 0002:0000d120       ??_C@_15KPJEDBKD@?$AAk?$AAa?$AA?$AA@ 000000018004f120     libucrt:lcidtoname_downlevel.obj
 0002:0000d128       ??_C@_15PDNFFFEO@?$AAf?$AAo?$AA?$AA@ 000000018004f128     libucrt:lcidtoname_downlevel.obj
 0002:0000d130       ??_C@_15OMLEGLOC@?$AAh?$AAi?$AA?$AA@ 000000018004f130     libucrt:lcidtoname_downlevel.obj
 0002:0000d138       ??_C@_15IDNNENKK@?$AAm?$AAs?$AA?$AA@ 000000018004f138     libucrt:lcidtoname_downlevel.obj
 0002:0000d140       ??_C@_15MACJNBMH@?$AAk?$AAk?$AA?$AA@ 000000018004f140     libucrt:lcidtoname_downlevel.obj
 0002:0000d148       ??_C@_15DKDJEOND@?$AAk?$AAy?$AA?$AA@ 000000018004f148     libucrt:lcidtoname_downlevel.obj
 0002:0000d150       ??_C@_15DFGDLJBG@?$AAs?$AAw?$AA?$AA@ 000000018004f150     libucrt:lcidtoname_downlevel.obj
 0002:0000d158       ??_C@_15BBFAICNG@?$AAu?$AAz?$AA?$AA@ 000000018004f158     libucrt:lcidtoname_downlevel.obj
 0002:0000d160       ??_C@_15DKNDCGEA@?$AAt?$AAt?$AA?$AA@ 000000018004f160     libucrt:lcidtoname_downlevel.obj
 0002:0000d168       ??_C@_15MGIFMDPL@?$AAp?$AAa?$AA?$AA@ 000000018004f168     libucrt:lcidtoname_downlevel.obj
 0002:0000d170       ??_C@_15HCNDBBA@?$AAg?$AAu?$AA?$AA@ 000000018004f170     libucrt:lcidtoname_downlevel.obj
 0002:0000d178       ??_C@_15FNBEIBON@?$AAt?$AAa?$AA?$AA@ 000000018004f178     libucrt:lcidtoname_downlevel.obj
 0002:0000d180       ??_C@_15NCHGBGLK@?$AAt?$AAe?$AA?$AA@ 000000018004f180     libucrt:lcidtoname_downlevel.obj
 0002:0000d188       ??_C@_15PHPHCBPF@?$AAk?$AAn?$AA?$AA@ 000000018004f188     libucrt:lcidtoname_downlevel.obj
 0002:0000d190       ??_C@_15DLGBCKMP@?$AAm?$AAr?$AA?$AA@ 000000018004f190     libucrt:lcidtoname_downlevel.obj
 0002:0000d198       ??_C@_15EABBLBFF@?$AAs?$AAa?$AA?$AA@ 000000018004f198     libucrt:lcidtoname_downlevel.obj
 0002:0000d1a0       ??_C@_15CBKOMCOI@?$AAm?$AAn?$AA?$AA@ 000000018004f1a0     libucrt:lcidtoname_downlevel.obj
 0002:0000d1a8       ??_C@_15CKDMCJAF@?$AAg?$AAl?$AA?$AA@ 000000018004f1a8     libucrt:lcidtoname_downlevel.obj
 0002:0000d1b0       ??_C@_17CNJFBPG@?$AAk?$AAo?$AAk?$AA?$AA@ 000000018004f1b0     libucrt:lcidtoname_downlevel.obj
 0002:0000d1b8       ??_C@_17FFBJICPL@?$AAs?$AAy?$AAr?$AA?$AA@ 000000018004f1b8     libucrt:lcidtoname_downlevel.obj
 0002:0000d1c0       ??_C@_17KPNDCPAF@?$AAd?$AAi?$AAv?$AA?$AA@ 000000018004f1c0     libucrt:lcidtoname_downlevel.obj
 0002:0000d1c8       ??_C@_11LOCGONAA@?$AA?$AA@ 000000018004f1c8     libucrt:lcidtoname_downlevel.obj
 0002:0000d1d0       ??_C@_1M@OKAHONE@?$AAa?$AAr?$AA?9?$AAS?$AAA?$AA?$AA@ 000000018004f1d0     libucrt:lcidtoname_downlevel.obj
 0002:0000d1e0       ??_C@_1M@FFFIGIGK@?$AAb?$AAg?$AA?9?$AAB?$AAG?$AA?$AA@ 000000018004f1e0     libucrt:lcidtoname_downlevel.obj
 0002:0000d1f0       ??_C@_1M@BJNKEDC@?$AAc?$AAa?$AA?9?$AAE?$AAS?$AA?$AA@ 000000018004f1f0     libucrt:lcidtoname_downlevel.obj
 0002:0000d200       ??_C@_1M@IJJHFJHA@?$AAc?$AAs?$AA?9?$AAC?$AAZ?$AA?$AA@ 000000018004f200     libucrt:lcidtoname_downlevel.obj
 0002:0000d210       ??_C@_1M@CLPEOBGI@?$AAd?$AAa?$AA?9?$AAD?$AAK?$AA?$AA@ 000000018004f210     libucrt:lcidtoname_downlevel.obj
 0002:0000d220       ??_C@_1M@MCMADGCB@?$AAd?$AAe?$AA?9?$AAD?$AAE?$AA?$AA@ 000000018004f220     libucrt:lcidtoname_downlevel.obj
 0002:0000d230       ??_C@_1M@OOCKEMAM@?$AAe?$AAl?$AA?9?$AAG?$AAR?$AA?$AA@ 000000018004f230     libucrt:lcidtoname_downlevel.obj
 0002:0000d240       ??_C@_1M@DDNJFGID@?$AAf?$AAi?$AA?9?$AAF?$AAI?$AA?$AA@ 000000018004f240     libucrt:lcidtoname_downlevel.obj
 0002:0000d250       ??_C@_1M@GLIPPMAC@?$AAf?$AAr?$AA?9?$AAF?$AAR?$AA?$AA@ 000000018004f250     libucrt:lcidtoname_downlevel.obj
 0002:0000d260       ??_C@_1M@GFMCHPE@?$AAh?$AAe?$AA?9?$AAI?$AAL?$AA?$AA@ 000000018004f260     libucrt:lcidtoname_downlevel.obj
 0002:0000d270       ??_C@_1M@MHLPGNKM@?$AAh?$AAu?$AA?9?$AAH?$AAU?$AA?$AA@ 000000018004f270     libucrt:lcidtoname_downlevel.obj
 0002:0000d280       ??_C@_1M@LPDDNNPN@?$AAi?$AAs?$AA?9?$AAI?$AAS?$AA?$AA@ 000000018004f280     libucrt:lcidtoname_downlevel.obj
 0002:0000d290       ??_C@_1M@MADIPODN@?$AAi?$AAt?$AA?9?$AAI?$AAT?$AA?$AA@ 000000018004f290     libucrt:lcidtoname_downlevel.obj
 0002:0000d2a0       ??_C@_1M@IHBJJGG@?$AAn?$AAl?$AA?9?$AAN?$AAL?$AA?$AA@ 000000018004f2a0     libucrt:lcidtoname_downlevel.obj
 0002:0000d2b0       ??_C@_1M@EANAGDL@?$AAn?$AAb?$AA?9?$AAN?$AAO?$AA?$AA@ 000000018004f2b0     libucrt:lcidtoname_downlevel.obj
 0002:0000d2c0       ??_C@_1M@NEIEMEGP@?$AAp?$AAl?$AA?9?$AAP?$AAL?$AA?$AA@ 000000018004f2c0     libucrt:lcidtoname_downlevel.obj
 0002:0000d2d0       ??_C@_1M@BOCFIGEP@?$AAp?$AAt?$AA?9?$AAB?$AAR?$AA?$AA@ 000000018004f2d0     libucrt:lcidtoname_downlevel.obj
 0002:0000d2e0       ??_C@_1M@IMPFOPBG@?$AAr?$AAo?$AA?9?$AAR?$AAO?$AA?$AA@ 000000018004f2e0     libucrt:lcidtoname_downlevel.obj
 0002:0000d2f0       ??_C@_1M@IDNNEJMM@?$AAr?$AAu?$AA?9?$AAR?$AAU?$AA?$AA@ 000000018004f2f0     libucrt:lcidtoname_downlevel.obj
 0002:0000d300       ??_C@_1M@LILEEOGM@?$AAh?$AAr?$AA?9?$AAH?$AAR?$AA?$AA@ 000000018004f300     libucrt:lcidtoname_downlevel.obj
 0002:0000d310       ??_C@_1M@FKIFEHPB@?$AAs?$AAk?$AA?9?$AAS?$AAK?$AA?$AA@ 000000018004f310     libucrt:lcidtoname_downlevel.obj
 0002:0000d320       ??_C@_1M@LJMAMNPJ@?$AAs?$AAq?$AA?9?$AAA?$AAL?$AA?$AA@ 000000018004f320     libucrt:lcidtoname_downlevel.obj
 0002:0000d330       ??_C@_1M@GIAKDKJK@?$AAs?$AAv?$AA?9?$AAS?$AAE?$AA?$AA@ 000000018004f330     libucrt:lcidtoname_downlevel.obj
 0002:0000d340       ??_C@_1M@MKJKIKCL@?$AAt?$AAh?$AA?9?$AAT?$AAH?$AA?$AA@ 000000018004f340     libucrt:lcidtoname_downlevel.obj
 0002:0000d350       ??_C@_1M@MFLCCMPB@?$AAt?$AAr?$AA?9?$AAT?$AAR?$AA?$AA@ 000000018004f350     libucrt:lcidtoname_downlevel.obj
 0002:0000d360       ??_C@_1M@OIJHDKJN@?$AAu?$AAr?$AA?9?$AAP?$AAK?$AA?$AA@ 000000018004f360     libucrt:lcidtoname_downlevel.obj
 0002:0000d370       ??_C@_1M@LHIPCIEK@?$AAi?$AAd?$AA?9?$AAI?$AAD?$AA?$AA@ 000000018004f370     libucrt:lcidtoname_downlevel.obj
 0002:0000d380       ??_C@_1M@MFMOBGI@?$AAu?$AAk?$AA?9?$AAU?$AAA?$AA?$AA@ 000000018004f380     libucrt:lcidtoname_downlevel.obj
 0002:0000d390       ??_C@_1M@OBGLJIPL@?$AAb?$AAe?$AA?9?$AAB?$AAY?$AA?$AA@ 000000018004f390     libucrt:lcidtoname_downlevel.obj
 0002:0000d3a0       ??_C@_1M@BCFAJEAD@?$AAs?$AAl?$AA?9?$AAS?$AAI?$AA?$AA@ 000000018004f3a0     libucrt:lcidtoname_downlevel.obj
 0002:0000d3b0       ??_C@_1M@FKFFEDDN@?$AAe?$AAt?$AA?9?$AAE?$AAE?$AA?$AA@ 000000018004f3b0     libucrt:lcidtoname_downlevel.obj
 0002:0000d3c0       ??_C@_1M@KGKKAACI@?$AAl?$AAv?$AA?9?$AAL?$AAV?$AA?$AA@ 000000018004f3c0     libucrt:lcidtoname_downlevel.obj
 0002:0000d3d0       ??_C@_1M@IFGBIJO@?$AAl?$AAt?$AA?9?$AAL?$AAT?$AA?$AA@ 000000018004f3d0     libucrt:lcidtoname_downlevel.obj
 0002:0000d3e0       ??_C@_1M@FGEAHEDM@?$AAf?$AAa?$AA?9?$AAI?$AAR?$AA?$AA@ 000000018004f3e0     libucrt:lcidtoname_downlevel.obj
 0002:0000d3f0       ??_C@_1M@KBMAIBFN@?$AAv?$AAi?$AA?9?$AAV?$AAN?$AA?$AA@ 000000018004f3f0     libucrt:lcidtoname_downlevel.obj
 0002:0000d400       ??_C@_1M@GPCBKDJK@?$AAh?$AAy?$AA?9?$AAA?$AAM?$AA?$AA@ 000000018004f400     libucrt:lcidtoname_downlevel.obj
 0002:0000d410       ??_C@_1BG@BECMDDJB@?$AAa?$AAz?$AA?9?$AAA?$AAZ?$AA?9?$AAL?$AAa?$AAt?$AAn?$AA?$AA@ 000000018004f410     libucrt:lcidtoname_downlevel.obj
 0002:0000d428       ??_C@_1M@MAOFCAEA@?$AAe?$AAu?$AA?9?$AAE?$AAS?$AA?$AA@ 000000018004f428     libucrt:lcidtoname_downlevel.obj
 0002:0000d438       ??_C@_1M@IGHABKPI@?$AAm?$AAk?$AA?9?$AAM?$AAK?$AA?$AA@ 000000018004f438     libucrt:lcidtoname_downlevel.obj
 0002:0000d448       ??_C@_1M@IAIGNEJG@?$AAt?$AAn?$AA?9?$AAZ?$AAA?$AA?$AA@ 000000018004f448     libucrt:lcidtoname_downlevel.obj
 0002:0000d458       ??_C@_1M@IIJCOJFA@?$AAx?$AAh?$AA?9?$AAZ?$AAA?$AA?$AA@ 000000018004f458     libucrt:lcidtoname_downlevel.obj
 0002:0000d468       ??_C@_1M@LGPJHNJH@?$AAz?$AAu?$AA?9?$AAZ?$AAA?$AA?$AA@ 000000018004f468     libucrt:lcidtoname_downlevel.obj
 0002:0000d478       ??_C@_1M@HOKAOIO@?$AAa?$AAf?$AA?9?$AAZ?$AAA?$AA?$AA@ 000000018004f478     libucrt:lcidtoname_downlevel.obj
 0002:0000d488       ??_C@_1M@DPCLHLIE@?$AAk?$AAa?$AA?9?$AAG?$AAE?$AA?$AA@ 000000018004f488     libucrt:lcidtoname_downlevel.obj
 0002:0000d498       ??_C@_1M@BLKMHJBI@?$AAf?$AAo?$AA?9?$AAF?$AAO?$AA?$AA@ 000000018004f498     libucrt:lcidtoname_downlevel.obj
 0002:0000d4a8       ??_C@_1M@LGGJAPPB@?$AAh?$AAi?$AA?9?$AAI?$AAN?$AA?$AA@ 000000018004f4a8     libucrt:lcidtoname_downlevel.obj
 0002:0000d4b8       ??_C@_1M@FIKPIHFE@?$AAm?$AAt?$AA?9?$AAM?$AAT?$AA?$AA@ 000000018004f4b8     libucrt:lcidtoname_downlevel.obj
 0002:0000d4c8       ??_C@_1M@HEGGPBFA@?$AAs?$AAe?$AA?9?$AAN?$AAO?$AA?$AA@ 000000018004f4c8     libucrt:lcidtoname_downlevel.obj
 0002:0000d4d8       ??_C@_1M@EIBJEEPA@?$AAm?$AAs?$AA?9?$AAM?$AAY?$AA?$AA@ 000000018004f4d8     libucrt:lcidtoname_downlevel.obj
 0002:0000d4e8       ??_C@_1M@FHLBGMPP@?$AAk?$AAk?$AA?9?$AAK?$AAZ?$AA?$AA@ 000000018004f4e8     libucrt:lcidtoname_downlevel.obj
 0002:0000d4f8       ??_C@_1M@NGJJLCGI@?$AAk?$AAy?$AA?9?$AAK?$AAG?$AA?$AA@ 000000018004f4f8     libucrt:lcidtoname_downlevel.obj
 0002:0000d508       ??_C@_1M@GIENNBFC@?$AAs?$AAw?$AA?9?$AAK?$AAE?$AA?$AA@ 000000018004f508     libucrt:lcidtoname_downlevel.obj
 0002:0000d518       ??_C@_1BG@NDGMJIMJ@?$AAu?$AAz?$AA?9?$AAU?$AAZ?$AA?9?$AAL?$AAa?$AAt?$AAn?$AA?$AA@ 000000018004f518     libucrt:lcidtoname_downlevel.obj
 0002:0000d530       ??_C@_1M@IDCCIHBC@?$AAt?$AAt?$AA?9?$AAR?$AAU?$AA?$AA@ 000000018004f530     libucrt:lcidtoname_downlevel.obj
 0002:0000d540       ??_C@_1M@LOICPMOJ@?$AAb?$AAn?$AA?9?$AAI?$AAN?$AA?$AA@ 000000018004f540     libucrt:lcidtoname_downlevel.obj
 0002:0000d550       ??_C@_1M@KPKKNEAH@?$AAp?$AAa?$AA?9?$AAI?$AAN?$AA?$AA@ 000000018004f550     libucrt:lcidtoname_downlevel.obj
 0002:0000d560       ??_C@_1M@PJGPPBOG@?$AAg?$AAu?$AA?9?$AAI?$AAN?$AA?$AA@ 000000018004f560     libucrt:lcidtoname_downlevel.obj
 0002:0000d570       ??_C@_1M@KMKMOPHI@?$AAt?$AAa?$AA?9?$AAI?$AAN?$AA?$AA@ 000000018004f570     libucrt:lcidtoname_downlevel.obj
 0002:0000d580       ??_C@_1M@KFEHEPAC@?$AAt?$AAe?$AA?9?$AAI?$AAN?$AA?$AA@ 000000018004f580     libucrt:lcidtoname_downlevel.obj
 0002:0000d590       ??_C@_1M@CDCLMGHI@?$AAk?$AAn?$AA?9?$AAI?$AAN?$AA?$AA@ 000000018004f590     libucrt:lcidtoname_downlevel.obj
 0002:0000d5a0       ??_C@_1M@MIODLDKF@?$AAm?$AAl?$AA?9?$AAI?$AAN?$AA?$AA@ 000000018004f5a0     libucrt:lcidtoname_downlevel.obj
 0002:0000d5b0       ??_C@_1M@PBIEACPO@?$AAm?$AAr?$AA?9?$AAI?$AAN?$AA?$AA@ 000000018004f5b0     libucrt:lcidtoname_downlevel.obj
 0002:0000d5c0       ??_C@_1M@NIDEAGPH@?$AAs?$AAa?$AA?9?$AAI?$AAN?$AA?$AA@ 000000018004f5c0     libucrt:lcidtoname_downlevel.obj
 0002:0000d5d0       ??_C@_1M@FHIHCBIO@?$AAm?$AAn?$AA?9?$AAM?$AAN?$AA?$AA@ 000000018004f5d0     libucrt:lcidtoname_downlevel.obj
 0002:0000d5e0       ??_C@_1M@JAIJPENP@?$AAc?$AAy?$AA?9?$AAG?$AAB?$AA?$AA@ 000000018004f5e0     libucrt:lcidtoname_downlevel.obj
 0002:0000d5f0       ??_C@_1M@PHGFBEPN@?$AAg?$AAl?$AA?9?$AAE?$AAS?$AA?$AA@ 000000018004f5f0     libucrt:lcidtoname_downlevel.obj
 0002:0000d600       ??_C@_1O@KPIPDNCP@?$AAk?$AAo?$AAk?$AA?9?$AAI?$AAN?$AA?$AA@ 000000018004f600     libucrt:lcidtoname_downlevel.obj
 0002:0000d610       ??_C@_1O@KNHJLDJA@?$AAs?$AAy?$AAr?$AA?9?$AAS?$AAY?$AA?$AA@ 000000018004f610     libucrt:lcidtoname_downlevel.obj
 0002:0000d620       ??_C@_1O@MKEKBLAH@?$AAd?$AAi?$AAv?$AA?9?$AAM?$AAV?$AA?$AA@ 000000018004f620     libucrt:lcidtoname_downlevel.obj
 0002:0000d630       ??_C@_1O@OHDCKDDF@?$AAq?$AAu?$AAz?$AA?9?$AAB?$AAO?$AA?$AA@ 000000018004f630     libucrt:lcidtoname_downlevel.obj
 0002:0000d640       ??_C@_1M@LEPJNLFD@?$AAn?$AAs?$AA?9?$AAZ?$AAA?$AA?$AA@ 000000018004f640     libucrt:lcidtoname_downlevel.obj
 0002:0000d650       ??_C@_1M@OMLEIIJB@?$AAm?$AAi?$AA?9?$AAN?$AAZ?$AA?$AA@ 000000018004f650     libucrt:lcidtoname_downlevel.obj
 0002:0000d660       ??_C@_1M@PMPEAILG@?$AAa?$AAr?$AA?9?$AAI?$AAQ?$AA?$AA@ 000000018004f660     libucrt:lcidtoname_downlevel.obj
 0002:0000d670       ??_C@_1M@CNKPNOEE@?$AAd?$AAe?$AA?9?$AAC?$AAH?$AA?$AA@ 000000018004f670     libucrt:lcidtoname_downlevel.obj
 0002:0000d680       ??_C@_1M@LKMGMLKO@?$AAe?$AAn?$AA?9?$AAG?$AAB?$AA?$AA@ 000000018004f680     libucrt:lcidtoname_downlevel.obj
 0002:0000d690       ??_C@_1M@PGKJFFGL@?$AAe?$AAs?$AA?9?$AAM?$AAX?$AA?$AA@ 000000018004f690     libucrt:lcidtoname_downlevel.obj
 0002:0000d6a0       ??_C@_1M@DNNANBDC@?$AAf?$AAr?$AA?9?$AAB?$AAE?$AA?$AA@ 000000018004f6a0     libucrt:lcidtoname_downlevel.obj
 0002:0000d6b0       ??_C@_1M@HLGMDFHM@?$AAi?$AAt?$AA?9?$AAC?$AAH?$AA?$AA@ 000000018004f6b0     libucrt:lcidtoname_downlevel.obj
 0002:0000d6c0       ??_C@_1M@CLLBGJH@?$AAn?$AAl?$AA?9?$AAB?$AAE?$AA?$AA@ 000000018004f6c0     libucrt:lcidtoname_downlevel.obj
 0002:0000d6d0       ??_C@_1M@BODBOGLF@?$AAn?$AAn?$AA?9?$AAN?$AAO?$AA?$AA@ 000000018004f6d0     libucrt:lcidtoname_downlevel.obj
 0002:0000d6e0       ??_C@_1M@HFFAHKAD@?$AAp?$AAt?$AA?9?$AAP?$AAT?$AA?$AA@ 000000018004f6e0     libucrt:lcidtoname_downlevel.obj
 0002:0000d6f0       ??_C@_1BG@LNOAKHIE@?$AAs?$AAr?$AA?9?$AAS?$AAP?$AA?9?$AAL?$AAa?$AAt?$AAn?$AA?$AA@ 000000018004f6f0     libucrt:lcidtoname_downlevel.obj
 0002:0000d708       ??_C@_1M@HBMHBGAK@?$AAs?$AAv?$AA?9?$AAF?$AAI?$AA?$AA@ 000000018004f708     libucrt:lcidtoname_downlevel.obj
 0002:0000d718       ??_C@_1BG@DGCJGJBE@?$AAa?$AAz?$AA?9?$AAA?$AAZ?$AA?9?$AAC?$AAy?$AAr?$AAl?$AA?$AA@ 000000018004f718     libucrt:lcidtoname_downlevel.obj
 0002:0000d730       ??_C@_1M@KEJDAAHB@?$AAs?$AAe?$AA?9?$AAS?$AAE?$AA?$AA@ 000000018004f730     libucrt:lcidtoname_downlevel.obj
 0002:0000d740       ??_C@_1M@HEIBJJAD@?$AAm?$AAs?$AA?9?$AAB?$AAN?$AA?$AA@ 000000018004f740     libucrt:lcidtoname_downlevel.obj
 0002:0000d750       ??_C@_1BG@PBGJMCEM@?$AAu?$AAz?$AA?9?$AAU?$AAZ?$AA?9?$AAC?$AAy?$AAr?$AAl?$AA?$AA@ 000000018004f750     libucrt:lcidtoname_downlevel.obj
 0002:0000d768       ??_C@_1O@LAOBCMDF@?$AAq?$AAu?$AAz?$AA?9?$AAE?$AAC?$AA?$AA@ 000000018004f768     libucrt:lcidtoname_downlevel.obj
 0002:0000d778       ??_C@_1M@POEEMAIO@?$AAa?$AAr?$AA?9?$AAE?$AAG?$AA?$AA@ 000000018004f778     libucrt:lcidtoname_downlevel.obj
 0002:0000d788       ??_C@_1M@EFAKDEDL@?$AAz?$AAh?$AA?9?$AAH?$AAK?$AA?$AA@ 000000018004f788     libucrt:lcidtoname_downlevel.obj
 0002:0000d798       ??_C@_1M@HKKIJHGI@?$AAd?$AAe?$AA?9?$AAA?$AAT?$AA?$AA@ 000000018004f798     libucrt:lcidtoname_downlevel.obj
 0002:0000d7a8       ??_C@_1M@KBFBEHJF@?$AAe?$AAn?$AA?9?$AAA?$AAU?$AA?$AA@ 000000018004f7a8     libucrt:lcidtoname_downlevel.obj
 0002:0000d7b8       ??_C@_1M@MNPLFAAH@?$AAe?$AAs?$AA?9?$AAE?$AAS?$AA?$AA@ 000000018004f7b8     libucrt:lcidtoname_downlevel.obj
 0002:0000d7c8       ??_C@_1M@HJOOJFMA@?$AAf?$AAr?$AA?9?$AAC?$AAA?$AA?$AA@ 000000018004f7c8     libucrt:lcidtoname_downlevel.obj
 0002:0000d7d8       ??_C@_1BG@JPOFPNAB@?$AAs?$AAr?$AA?9?$AAS?$AAP?$AA?9?$AAC?$AAy?$AAr?$AAl?$AA?$AA@ 000000018004f7d8     libucrt:lcidtoname_downlevel.obj
 0002:0000d7f0       ??_C@_1M@LNFOCMOB@?$AAs?$AAe?$AA?9?$AAF?$AAI?$AA?$AA@ 000000018004f7f0     libucrt:lcidtoname_downlevel.obj
 0002:0000d800       ??_C@_1O@MGJBOAMB@?$AAq?$AAu?$AAz?$AA?9?$AAP?$AAE?$AA?$AA@ 000000018004f800     libucrt:lcidtoname_downlevel.obj
 0002:0000d810       ??_C@_1M@GJINLBOK@?$AAa?$AAr?$AA?9?$AAL?$AAY?$AA?$AA@ 000000018004f810     libucrt:lcidtoname_downlevel.obj
 0002:0000d820       ??_C@_1M@GGMNHJNL@?$AAz?$AAh?$AA?9?$AAS?$AAG?$AA?$AA@ 000000018004f820     libucrt:lcidtoname_downlevel.obj
 0002:0000d830       ??_C@_1M@HOIKODND@?$AAd?$AAe?$AA?9?$AAL?$AAU?$AA?$AA@ 000000018004f830     libucrt:lcidtoname_downlevel.obj
 0002:0000d840       ??_C@_1M@DDOCCGFG@?$AAe?$AAn?$AA?9?$AAC?$AAA?$AA?$AA@ 000000018004f840     libucrt:lcidtoname_downlevel.obj
 0002:0000d850       ??_C@_1M@BNOEMJLF@?$AAe?$AAs?$AA?9?$AAG?$AAT?$AA?$AA@ 000000018004f850     libucrt:lcidtoname_downlevel.obj
 0002:0000d860       ??_C@_1M@EOGNKEK@?$AAf?$AAr?$AA?9?$AAC?$AAH?$AA?$AA@ 000000018004f860     libucrt:lcidtoname_downlevel.obj
 0002:0000d870       ??_C@_1M@FLIDJFHL@?$AAh?$AAr?$AA?9?$AAB?$AAA?$AA?$AA@ 000000018004f870     libucrt:lcidtoname_downlevel.obj
 0002:0000d880       ??_C@_1O@FMCELNAJ@?$AAs?$AAm?$AAj?$AA?9?$AAN?$AAO?$AA?$AA@ 000000018004f880     libucrt:lcidtoname_downlevel.obj
 0002:0000d890       ??_C@_1M@JHGLJMGJ@?$AAa?$AAr?$AA?9?$AAD?$AAZ?$AA?$AA@ 000000018004f890     libucrt:lcidtoname_downlevel.obj
 0002:0000d8a0       ??_C@_1M@JKKFDCNP@?$AAz?$AAh?$AA?9?$AAM?$AAO?$AA?$AA@ 000000018004f8a0     libucrt:lcidtoname_downlevel.obj
 0002:0000d8b0       ??_C@_1M@GEEFALPE@?$AAd?$AAe?$AA?9?$AAL?$AAI?$AA?$AA@ 000000018004f8b0     libucrt:lcidtoname_downlevel.obj
 0002:0000d8c0       ??_C@_1M@IGEOFBG@?$AAe?$AAn?$AA?9?$AAN?$AAZ?$AA?$AA@ 000000018004f8c0     libucrt:lcidtoname_downlevel.obj
 0002:0000d8d0       ??_C@_1M@KDBONEHP@?$AAe?$AAs?$AA?9?$AAC?$AAR?$AA?$AA@ 000000018004f8d0     libucrt:lcidtoname_downlevel.obj
 0002:0000d8e0       ??_C@_1M@FHMDOHNN@?$AAf?$AAr?$AA?9?$AAL?$AAU?$AA?$AA@ 000000018004f8e0     libucrt:lcidtoname_downlevel.obj
 0002:0000d8f0       ??_C@_1BG@NFKKMAFG@?$AAb?$AAs?$AA?9?$AAB?$AAA?$AA?9?$AAL?$AAa?$AAt?$AAn?$AA?$AA@ 000000018004f8f0     libucrt:lcidtoname_downlevel.obj
 0002:0000d908       ??_C@_1O@IMNBEMCI@?$AAs?$AAm?$AAj?$AA?9?$AAS?$AAE?$AA?$AA@ 000000018004f908     libucrt:lcidtoname_downlevel.obj
 0002:0000d918       ??_C@_1M@DHHMBNDP@?$AAa?$AAr?$AA?9?$AAM?$AAA?$AA?$AA@ 000000018004f918     libucrt:lcidtoname_downlevel.obj
 0002:0000d928       ??_C@_1M@BNBLJCGH@?$AAe?$AAn?$AA?9?$AAI?$AAE?$AA?$AA@ 000000018004f928     libucrt:lcidtoname_downlevel.obj
 0002:0000d938       ??_C@_1M@GEPAFMDL@?$AAe?$AAs?$AA?9?$AAP?$AAA?$AA?$AA@ 000000018004f938     libucrt:lcidtoname_downlevel.obj
 0002:0000d948       ??_C@_1M@OJONDMDL@?$AAf?$AAr?$AA?9?$AAM?$AAC?$AA?$AA@ 000000018004f948     libucrt:lcidtoname_downlevel.obj
 0002:0000d958       ??_C@_1BG@OBCNFJB@?$AAs?$AAr?$AA?9?$AAB?$AAA?$AA?9?$AAL?$AAa?$AAt?$AAn?$AA?$AA@ 000000018004f958     libucrt:lcidtoname_downlevel.obj
 0002:0000d970       ??_C@_1O@KEMEEGPO@?$AAs?$AAm?$AAa?$AA?9?$AAN?$AAO?$AA?$AA@ 000000018004f970     libucrt:lcidtoname_downlevel.obj
 0002:0000d980       ??_C@_1M@ELMGFODK@?$AAa?$AAr?$AA?9?$AAT?$AAN?$AA?$AA@ 000000018004f980     libucrt:lcidtoname_downlevel.obj
 0002:0000d990       ??_C@_1M@BHDLHFAF@?$AAe?$AAn?$AA?9?$AAZ?$AAA?$AA?$AA@ 000000018004f990     libucrt:lcidtoname_downlevel.obj
 0002:0000d9a0       ??_C@_1M@BMGIGLIF@?$AAe?$AAs?$AA?9?$AAD?$AAO?$AA?$AA@ 000000018004f9a0     libucrt:lcidtoname_downlevel.obj
 0002:0000d9b0       ??_C@_1BG@CMBHIPBE@?$AAs?$AAr?$AA?9?$AAB?$AAA?$AA?9?$AAC?$AAy?$AAr?$AAl?$AA?$AA@ 000000018004f9b0     libucrt:lcidtoname_downlevel.obj
 0002:0000d9c8       ??_C@_1O@HEDBLHNP@?$AAs?$AAm?$AAa?$AA?9?$AAS?$AAE?$AA?$AA@ 000000018004f9c8     libucrt:lcidtoname_downlevel.obj
 0002:0000d9d8       ??_C@_1M@DAGCADIM@?$AAa?$AAr?$AA?9?$AAO?$AAM?$AA?$AA@ 000000018004f9d8     libucrt:lcidtoname_downlevel.obj
 0002:0000d9e8       ??_C@_1M@FODLMICG@?$AAe?$AAn?$AA?9?$AAJ?$AAM?$AA?$AA@ 000000018004f9e8     libucrt:lcidtoname_downlevel.obj
 0002:0000d9f8       ??_C@_1M@DNMLCIHB@?$AAe?$AAs?$AA?9?$AAV?$AAE?$AA?$AA@ 000000018004f9f8     libucrt:lcidtoname_downlevel.obj
 0002:0000da08       ??_C@_1O@EOKHMKJK@?$AAs?$AAm?$AAs?$AA?9?$AAF?$AAI?$AA?$AA@ 000000018004fa08     libucrt:lcidtoname_downlevel.obj
 0002:0000da18       ??_C@_1M@CAFJMKOF@?$AAa?$AAr?$AA?9?$AAY?$AAE?$AA?$AA@ 000000018004fa18     libucrt:lcidtoname_downlevel.obj
 0002:0000da28       ??_C@_1M@CBFHIJLI@?$AAe?$AAn?$AA?9?$AAC?$AAB?$AA?$AA@ 000000018004fa28     libucrt:lcidtoname_downlevel.obj
 0002:0000da38       ??_C@_1M@BGNFLDN@?$AAe?$AAs?$AA?9?$AAC?$AAO?$AA?$AA@ 000000018004fa38     libucrt:lcidtoname_downlevel.obj
 0002:0000da48       ??_C@_1O@JMPHMAMC@?$AAs?$AAm?$AAn?$AA?9?$AAF?$AAI?$AA?$AA@ 000000018004fa48     libucrt:lcidtoname_downlevel.obj
 0002:0000da58       ??_C@_1M@JLANABKE@?$AAa?$AAr?$AA?9?$AAS?$AAY?$AA?$AA@ 000000018004fa58     libucrt:lcidtoname_downlevel.obj
 0002:0000da68       ??_C@_1M@HPKGCFGN@?$AAe?$AAn?$AA?9?$AAB?$AAZ?$AA?$AA@ 000000018004fa68     libucrt:lcidtoname_downlevel.obj
 0002:0000da78       ??_C@_1M@OLJCMLGM@?$AAe?$AAs?$AA?9?$AAP?$AAE?$AA?$AA@ 000000018004fa78     libucrt:lcidtoname_downlevel.obj
 0002:0000da88       ??_C@_1M@MKKGFKLE@?$AAa?$AAr?$AA?9?$AAJ?$AAO?$AA?$AA@ 000000018004fa88     libucrt:lcidtoname_downlevel.obj
 0002:0000da98       ??_C@_1M@EKPGLDNI@?$AAe?$AAn?$AA?9?$AAT?$AAT?$AA?$AA@ 000000018004fa98     libucrt:lcidtoname_downlevel.obj
 0002:0000daa8       ??_C@_1M@OONGHFHE@?$AAe?$AAs?$AA?9?$AAA?$AAR?$AA?$AA@ 000000018004faa8     libucrt:lcidtoname_downlevel.obj
 0002:0000dab8       ??_C@_1M@OOJFGBHE@?$AAa?$AAr?$AA?9?$AAL?$AAB?$AA?$AA@ 000000018004fab8     libucrt:lcidtoname_downlevel.obj
 0002:0000dac8       ??_C@_1M@GCEJHNEG@?$AAe?$AAn?$AA?9?$AAZ?$AAW?$AA?$AA@ 000000018004fac8     libucrt:lcidtoname_downlevel.obj
 0002:0000dad8       ??_C@_1M@JNOCAHJI@?$AAe?$AAs?$AA?9?$AAE?$AAC?$AA?$AA@ 000000018004fad8     libucrt:lcidtoname_downlevel.obj
 0002:0000dae8       ??_C@_1M@JEFHPGGB@?$AAa?$AAr?$AA?9?$AAK?$AAW?$AA?$AA@ 000000018004fae8     libucrt:lcidtoname_downlevel.obj
 0002:0000daf8       ??_C@_1M@MLKIBJOJ@?$AAe?$AAn?$AA?9?$AAP?$AAH?$AA?$AA@ 000000018004faf8     libucrt:lcidtoname_downlevel.obj
 0002:0000db08       ??_C@_1M@BDNIPEND@?$AAe?$AAs?$AA?9?$AAC?$AAL?$AA?$AA@ 000000018004fb08     libucrt:lcidtoname_downlevel.obj
 0002:0000db18       ??_C@_1M@MPNMEKBD@?$AAa?$AAr?$AA?9?$AAA?$AAE?$AA?$AA@ 000000018004fb18     libucrt:lcidtoname_downlevel.obj
 0002:0000db28       ??_C@_1M@KBJALCPI@?$AAe?$AAs?$AA?9?$AAU?$AAY?$AA?$AA@ 000000018004fb28     libucrt:lcidtoname_downlevel.obj
 0002:0000db38       ??_C@_1M@LLCCOAGA@?$AAa?$AAr?$AA?9?$AAB?$AAH?$AA?$AA@ 000000018004fb38     libucrt:lcidtoname_downlevel.obj
 0002:0000db48       ??_C@_1M@PBFNCDEL@?$AAe?$AAs?$AA?9?$AAP?$AAY?$AA?$AA@ 000000018004fb48     libucrt:lcidtoname_downlevel.obj
 0002:0000db58       ??_C@_1M@EDGINPNP@?$AAa?$AAr?$AA?9?$AAQ?$AAA?$AA?$AA@ 000000018004fb58     libucrt:lcidtoname_downlevel.obj
 0002:0000db68       ??_C@_1M@MKDBIIJI@?$AAe?$AAs?$AA?9?$AAB?$AAO?$AA?$AA@ 000000018004fb68     libucrt:lcidtoname_downlevel.obj
 0002:0000db78       ??_C@_1M@CPKKEBLD@?$AAe?$AAs?$AA?9?$AAS?$AAV?$AA?$AA@ 000000018004fb78     libucrt:lcidtoname_downlevel.obj
 0002:0000db88       ??_C@_1M@NDBGMMJL@?$AAe?$AAs?$AA?9?$AAH?$AAN?$AA?$AA@ 000000018004fb88     libucrt:lcidtoname_downlevel.obj
 0002:0000db98       ??_C@_1M@JIJIBHDP@?$AAe?$AAs?$AA?9?$AAN?$AAI?$AA?$AA@ 000000018004fb98     libucrt:lcidtoname_downlevel.obj
 0002:0000dba8       ??_C@_1M@CGFMKEEK@?$AAe?$AAs?$AA?9?$AAP?$AAR?$AA?$AA@ 000000018004fba8     libucrt:lcidtoname_downlevel.obj
 0002:0000dbb8       ??_C@_1O@ICJHKIIK@?$AAz?$AAh?$AA?9?$AAC?$AAH?$AAT?$AA?$AA@ 000000018004fbb8     libucrt:lcidtoname_downlevel.obj
 0002:0000dbc8       ??_C@_15CLNEJCE@?$AAs?$AAr?$AA?$AA@ 000000018004fbc8     libucrt:lcidtoname_downlevel.obj
 0002:0000ea10       ??_C@_1M@KAHEKEIG@?$AAa?$AAf?$AA?9?$AAz?$AAa?$AA?$AA@ 0000000180050a10     libucrt:lcidtoname_downlevel.obj
 0002:0000ea20       ??_C@_1M@GIECOABL@?$AAa?$AAr?$AA?9?$AAa?$AAe?$AA?$AA@ 0000000180050a20     libucrt:lcidtoname_downlevel.obj
 0002:0000ea30       ??_C@_1M@BMLMEKGI@?$AAa?$AAr?$AA?9?$AAb?$AAh?$AA?$AA@ 0000000180050a30     libucrt:lcidtoname_downlevel.obj
 0002:0000ea40       ??_C@_1M@DAPFDGGB@?$AAa?$AAr?$AA?9?$AAd?$AAz?$AA?$AA@ 0000000180050a40     libucrt:lcidtoname_downlevel.obj
 0002:0000ea50       ??_C@_1M@FJNKGKIG@?$AAa?$AAr?$AA?9?$AAe?$AAg?$AA?$AA@ 0000000180050a50     libucrt:lcidtoname_downlevel.obj
 0002:0000ea60       ??_C@_1M@FLGKKCLO@?$AAa?$AAr?$AA?9?$AAi?$AAq?$AA?$AA@ 0000000180050a60     libucrt:lcidtoname_downlevel.obj
 0002:0000ea70       ??_C@_1M@GNDIPALM@?$AAa?$AAr?$AA?9?$AAj?$AAo?$AA?$AA@ 0000000180050a70     libucrt:lcidtoname_downlevel.obj
 0002:0000ea80       ??_C@_1M@DDMJFMGJ@?$AAa?$AAr?$AA?9?$AAk?$AAw?$AA?$AA@ 0000000180050a80     libucrt:lcidtoname_downlevel.obj
 0002:0000ea90       ??_C@_1M@EJALMLHM@?$AAa?$AAr?$AA?9?$AAl?$AAb?$AA?$AA@ 0000000180050a90     libucrt:lcidtoname_downlevel.obj
 0002:0000eaa0       ??_C@_1M@MOBDBLOC@?$AAa?$AAr?$AA?9?$AAl?$AAy?$AA?$AA@ 0000000180050aa0     libucrt:lcidtoname_downlevel.obj
 0002:0000eab0       ??_C@_1M@JAOCLHDH@?$AAa?$AAr?$AA?9?$AAm?$AAa?$AA?$AA@ 0000000180050ab0     libucrt:lcidtoname_downlevel.obj
 0002:0000eac0       ??_C@_1M@JHPMKJIE@?$AAa?$AAr?$AA?9?$AAo?$AAm?$AA?$AA@ 0000000180050ac0     libucrt:lcidtoname_downlevel.obj
 0002:0000ead0       ??_C@_1M@OEPGHFNH@?$AAa?$AAr?$AA?9?$AAq?$AAa?$AA?$AA@ 0000000180050ad0     libucrt:lcidtoname_downlevel.obj
 0002:0000eae0       ??_C@_1M@KJDONENM@?$AAa?$AAr?$AA?9?$AAs?$AAa?$AA?$AA@ 0000000180050ae0     libucrt:lcidtoname_downlevel.obj
 0002:0000eaf0       ??_C@_1M@DMJDKLKM@?$AAa?$AAr?$AA?9?$AAs?$AAy?$AA?$AA@ 0000000180050af0     libucrt:lcidtoname_downlevel.obj
 0002:0000eb00       ??_C@_1M@OMFIPEDC@?$AAa?$AAr?$AA?9?$AAt?$AAn?$AA?$AA@ 0000000180050b00     libucrt:lcidtoname_downlevel.obj
 0002:0000eb10       ??_C@_1M@IHMHGAON@?$AAa?$AAr?$AA?9?$AAy?$AAe?$AA?$AA@ 0000000180050b10     libucrt:lcidtoname_downlevel.obj
 0002:0000eb20       ??_C@_1BG@KDCPGJGB@?$AAa?$AAz?$AA?9?$AAa?$AAz?$AA?9?$AAc?$AAy?$AAr?$AAl?$AA?$AA@ 0000000180050b20     libucrt:lcidtoname_downlevel.obj
 0002:0000eb38       ??_C@_1BG@IBCKDDOE@?$AAa?$AAz?$AA?9?$AAa?$AAz?$AA?9?$AAl?$AAa?$AAt?$AAn?$AA?$AA@ 0000000180050b38     libucrt:lcidtoname_downlevel.obj
 0002:0000eb50       ??_C@_1M@EGPFDCPD@?$AAb?$AAe?$AA?9?$AAb?$AAy?$AA?$AA@ 0000000180050b50     libucrt:lcidtoname_downlevel.obj
 0002:0000eb60       ??_C@_1M@PCMGMCGC@?$AAb?$AAg?$AA?9?$AAb?$AAg?$AA?$AA@ 0000000180050b60     libucrt:lcidtoname_downlevel.obj
 0002:0000eb70       ??_C@_1M@BJBMFGOB@?$AAb?$AAn?$AA?9?$AAi?$AAn?$AA?$AA@ 0000000180050b70     libucrt:lcidtoname_downlevel.obj
 0002:0000eb80       ??_C@_1BG@EAKMMACD@?$AAb?$AAs?$AA?9?$AAb?$AAa?$AA?9?$AAl?$AAa?$AAt?$AAn?$AA?$AA@ 0000000180050b80     libucrt:lcidtoname_downlevel.obj
 0002:0000eb98       ??_C@_1M@KGADAODK@?$AAc?$AAa?$AA?9?$AAe?$AAs?$AA?$AA@ 0000000180050b98     libucrt:lcidtoname_downlevel.obj
 0002:0000eba8       ??_C@_1M@COAJPDHI@?$AAc?$AAs?$AA?9?$AAc?$AAz?$AA?$AA@ 0000000180050ba8     libucrt:lcidtoname_downlevel.obj
 0002:0000ebb8       ??_C@_1M@DHBHFONH@?$AAc?$AAy?$AA?9?$AAg?$AAb?$AA?$AA@ 0000000180050bb8     libucrt:lcidtoname_downlevel.obj
 0002:0000ebc8       ??_C@_1M@IMGKELGA@?$AAd?$AAa?$AA?9?$AAd?$AAk?$AA?$AA@ 0000000180050bc8     libucrt:lcidtoname_downlevel.obj
 0002:0000ebd8       ??_C@_1M@NNDGDNGA@?$AAd?$AAe?$AA?9?$AAa?$AAt?$AA?$AA@ 0000000180050bd8     libucrt:lcidtoname_downlevel.obj
 0002:0000ebe8       ??_C@_1M@IKDBHEEM@?$AAd?$AAe?$AA?9?$AAc?$AAh?$AA?$AA@ 0000000180050be8     libucrt:lcidtoname_downlevel.obj
 0002:0000ebf8       ??_C@_1M@GFFOJMCJ@?$AAd?$AAe?$AA?9?$AAd?$AAe?$AA?$AA@ 0000000180050bf8     libucrt:lcidtoname_downlevel.obj
 0002:0000ec08       ??_C@_1M@MDNLKBPM@?$AAd?$AAe?$AA?9?$AAl?$AAi?$AA?$AA@ 0000000180050c08     libucrt:lcidtoname_downlevel.obj
 0002:0000ec18       ??_C@_1M@NJBEEJNL@?$AAd?$AAe?$AA?9?$AAl?$AAu?$AA?$AA@ 0000000180050c18     libucrt:lcidtoname_downlevel.obj
 0002:0000ec28       ??_C@_1O@GNNELBAP@?$AAd?$AAi?$AAv?$AA?9?$AAm?$AAv?$AA?$AA@ 0000000180050c28     libucrt:lcidtoname_downlevel.obj
 0002:0000ec38       ??_C@_1M@EJLEOGAE@?$AAe?$AAl?$AA?9?$AAg?$AAr?$AA?$AA@ 0000000180050c38     libucrt:lcidtoname_downlevel.obj
 0002:0000ec48       ??_C@_1M@GMPONJN@?$AAe?$AAn?$AA?9?$AAa?$AAu?$AA?$AA@ 0000000180050c48     libucrt:lcidtoname_downlevel.obj
 0002:0000ec58       ??_C@_1M@NIDIIPGF@?$AAe?$AAn?$AA?9?$AAb?$AAz?$AA?$AA@ 0000000180050c58     libucrt:lcidtoname_downlevel.obj
 0002:0000ec68       ??_C@_1M@JEHMIMFO@?$AAe?$AAn?$AA?9?$AAc?$AAa?$AA?$AA@ 0000000180050c68     libucrt:lcidtoname_downlevel.obj
 0002:0000ec78       ??_C@_1M@IGMJCDLA@?$AAe?$AAn?$AA?9?$AAc?$AAb?$AA?$AA@ 0000000180050c78     libucrt:lcidtoname_downlevel.obj
 0002:0000ec88       ??_C@_1M@BNFIGBKG@?$AAe?$AAn?$AA?9?$AAg?$AAb?$AA?$AA@ 0000000180050c88     libucrt:lcidtoname_downlevel.obj
 0002:0000ec98       ??_C@_1M@LKIFDIGP@?$AAe?$AAn?$AA?9?$AAi?$AAe?$AA?$AA@ 0000000180050c98     libucrt:lcidtoname_downlevel.obj
 0002:0000eca8       ??_C@_1M@PJKFGCCO@?$AAe?$AAn?$AA?9?$AAj?$AAm?$AA?$AA@ 0000000180050ca8     libucrt:lcidtoname_downlevel.obj
 0002:0000ecb8       ??_C@_1M@KPPKEPBO@?$AAe?$AAn?$AA?9?$AAn?$AAz?$AA?$AA@ 0000000180050cb8     libucrt:lcidtoname_downlevel.obj
 0002:0000ecc8       ??_C@_1M@GMDGLDOB@?$AAe?$AAn?$AA?9?$AAp?$AAh?$AA?$AA@ 0000000180050cc8     libucrt:lcidtoname_downlevel.obj
 0002:0000ecd8       ??_C@_1M@ONGIBJNA@?$AAe?$AAn?$AA?9?$AAt?$AAt?$AA?$AA@ 0000000180050cd8     libucrt:lcidtoname_downlevel.obj
 0002:0000ece8       ??_C@_1M@LLODPCMM@?$AAe?$AAn?$AA?9?$AAu?$AAs?$AA?$AA@ 0000000180050ce8     libucrt:lcidtoname_downlevel.obj
 0002:0000ecf8       ??_C@_1M@LAKFNPAN@?$AAe?$AAn?$AA?9?$AAz?$AAa?$AA?$AA@ 0000000180050cf8     libucrt:lcidtoname_downlevel.obj
 0002:0000ed08       ??_C@_1M@MFNHNHEO@?$AAe?$AAn?$AA?9?$AAz?$AAw?$AA?$AA@ 0000000180050d08     libucrt:lcidtoname_downlevel.obj
 0002:0000ed18       ??_C@_1M@EJEINPHM@?$AAe?$AAs?$AA?9?$AAa?$AAr?$AA?$AA@ 0000000180050d18     libucrt:lcidtoname_downlevel.obj
 0002:0000ed28       ??_C@_1M@GNKPCCJA@?$AAe?$AAs?$AA?9?$AAb?$AAo?$AA?$AA@ 0000000180050d28     libucrt:lcidtoname_downlevel.obj
 0002:0000ed38       ??_C@_1M@LEEGFONL@?$AAe?$AAs?$AA?9?$AAc?$AAl?$AA?$AA@ 0000000180050d38     libucrt:lcidtoname_downlevel.obj
 0002:0000ed48       ??_C@_1M@KGPDPBDF@?$AAe?$AAs?$AA?9?$AAc?$AAo?$AA?$AA@ 0000000180050d48     libucrt:lcidtoname_downlevel.obj
 0002:0000ed58       ??_C@_1M@EIAHOHH@?$AAe?$AAs?$AA?9?$AAc?$AAr?$AA?$AA@ 0000000180050d58     libucrt:lcidtoname_downlevel.obj
 0002:0000ed68       ??_C@_1M@LLPGMBIN@?$AAe?$AAs?$AA?9?$AAd?$AAo?$AA?$AA@ 0000000180050d68     libucrt:lcidtoname_downlevel.obj
 0002:0000ed78       ??_C@_1M@DKHMKNJA@?$AAe?$AAs?$AA?9?$AAe?$AAc?$AA?$AA@ 0000000180050d78     libucrt:lcidtoname_downlevel.obj
 0002:0000ed88       ??_C@_1M@GKGFPKAP@?$AAe?$AAs?$AA?9?$AAe?$AAs?$AA?$AA@ 0000000180050d88     libucrt:lcidtoname_downlevel.obj
 0002:0000ed98       ??_C@_1M@LKHKGDLN@?$AAe?$AAs?$AA?9?$AAg?$AAt?$AA?$AA@ 0000000180050d98     libucrt:lcidtoname_downlevel.obj
 0002:0000eda8       ??_C@_1M@HEIIGGJD@?$AAe?$AAs?$AA?9?$AAh?$AAn?$AA?$AA@ 0000000180050da8     libucrt:lcidtoname_downlevel.obj
 0002:0000edb8       ??_C@_1M@FBDHPPGD@?$AAe?$AAs?$AA?9?$AAm?$AAx?$AA?$AA@ 0000000180050db8     libucrt:lcidtoname_downlevel.obj
 0002:0000edc8       ??_C@_1M@DPAGLNDH@?$AAe?$AAs?$AA?9?$AAn?$AAi?$AA?$AA@ 0000000180050dc8     libucrt:lcidtoname_downlevel.obj
 0002:0000edd8       ??_C@_1M@MDGOPGDD@?$AAe?$AAs?$AA?9?$AAp?$AAa?$AA?$AA@ 0000000180050dd8     libucrt:lcidtoname_downlevel.obj
 0002:0000ede8       ??_C@_1M@EMAMGBGE@?$AAe?$AAs?$AA?9?$AAp?$AAe?$AA?$AA@ 0000000180050de8     libucrt:lcidtoname_downlevel.obj
 0002:0000edf8       ??_C@_1M@IBMCAOEC@?$AAe?$AAs?$AA?9?$AAp?$AAr?$AA?$AA@ 0000000180050df8     libucrt:lcidtoname_downlevel.obj
 0002:0000ee08       ??_C@_1M@FGMDIJED@?$AAe?$AAs?$AA?9?$AAp?$AAy?$AA?$AA@ 0000000180050e08     libucrt:lcidtoname_downlevel.obj
 0002:0000ee18       ??_C@_1M@IIDEOLLL@?$AAe?$AAs?$AA?9?$AAs?$AAv?$AA?$AA@ 0000000180050e18     libucrt:lcidtoname_downlevel.obj
 0002:0000ee28       ??_C@_1M@GAOBIPA@?$AAe?$AAs?$AA?9?$AAu?$AAy?$AA?$AA@ 0000000180050e28     libucrt:lcidtoname_downlevel.obj
 0002:0000ee38       ??_C@_1M@JKFFICHJ@?$AAe?$AAs?$AA?9?$AAv?$AAe?$AA?$AA@ 0000000180050e38     libucrt:lcidtoname_downlevel.obj
 0002:0000ee48       ??_C@_1M@PNMLOJDF@?$AAe?$AAt?$AA?9?$AAe?$AAe?$AA?$AA@ 0000000180050e48     libucrt:lcidtoname_downlevel.obj
 0002:0000ee58       ??_C@_1M@GHHLIKEI@?$AAe?$AAu?$AA?9?$AAe?$AAs?$AA?$AA@ 0000000180050e58     libucrt:lcidtoname_downlevel.obj
 0002:0000ee68       ??_C@_1M@PBNONODE@?$AAf?$AAa?$AA?9?$AAi?$AAr?$AA?$AA@ 0000000180050e68     libucrt:lcidtoname_downlevel.obj
 0002:0000ee78       ??_C@_1M@JEEHPMIL@?$AAf?$AAi?$AA?9?$AAf?$AAi?$AA?$AA@ 0000000180050e78     libucrt:lcidtoname_downlevel.obj
 0002:0000ee88       ??_C@_1M@LMDCNDBA@?$AAf?$AAo?$AA?9?$AAf?$AAo?$AA?$AA@ 0000000180050e88     libucrt:lcidtoname_downlevel.obj
 0002:0000ee98       ??_C@_1M@JKEOHLDK@?$AAf?$AAr?$AA?9?$AAb?$AAe?$AA?$AA@ 0000000180050e98     libucrt:lcidtoname_downlevel.obj
 0002:0000eea8       ??_C@_1M@NOHADPMI@?$AAf?$AAr?$AA?9?$AAc?$AAa?$AA?$AA@ 0000000180050ea8     libucrt:lcidtoname_downlevel.obj
 0002:0000eeb8       ??_C@_1M@KDHIHAEC@?$AAf?$AAr?$AA?9?$AAc?$AAh?$AA?$AA@ 0000000180050eb8     libucrt:lcidtoname_downlevel.obj
 0002:0000eec8       ??_C@_1M@MMBBFGAK@?$AAf?$AAr?$AA?9?$AAf?$AAr?$AA?$AA@ 0000000180050ec8     libucrt:lcidtoname_downlevel.obj
 0002:0000eed8       ??_C@_1M@PAFNENNF@?$AAf?$AAr?$AA?9?$AAl?$AAu?$AA?$AA@ 0000000180050ed8     libucrt:lcidtoname_downlevel.obj
 0002:0000eee8       ??_C@_1M@EOHDJGDD@?$AAf?$AAr?$AA?9?$AAm?$AAc?$AA?$AA@ 0000000180050ee8     libucrt:lcidtoname_downlevel.obj
 0002:0000eef8       ??_C@_1M@FAPLLOPF@?$AAg?$AAl?$AA?9?$AAe?$AAs?$AA?$AA@ 0000000180050ef8     libucrt:lcidtoname_downlevel.obj
 0002:0000ef08       ??_C@_1M@FOPBFLOO@?$AAg?$AAu?$AA?9?$AAi?$AAn?$AA?$AA@ 0000000180050f08     libucrt:lcidtoname_downlevel.obj
 0002:0000ef18       ??_C@_1M@KBMCINPM@?$AAh?$AAe?$AA?9?$AAi?$AAl?$AA?$AA@ 0000000180050f18     libucrt:lcidtoname_downlevel.obj
 0002:0000ef28       ??_C@_1M@BBPHKFPJ@?$AAh?$AAi?$AA?9?$AAi?$AAn?$AA?$AA@ 0000000180050f28     libucrt:lcidtoname_downlevel.obj
 0002:0000ef38       ??_C@_1M@PMBNDPHD@?$AAh?$AAr?$AA?9?$AAb?$AAa?$AA?$AA@ 0000000180050f38     libucrt:lcidtoname_downlevel.obj
 0002:0000ef48       ??_C@_1M@BPCKOEGE@?$AAh?$AAr?$AA?9?$AAh?$AAr?$AA?$AA@ 0000000180050f48     libucrt:lcidtoname_downlevel.obj
 0002:0000ef58       ??_C@_1M@GACBMHKE@?$AAh?$AAu?$AA?9?$AAh?$AAu?$AA?$AA@ 0000000180050f58     libucrt:lcidtoname_downlevel.obj
 0002:0000ef68       ??_C@_1M@MILPAJJC@?$AAh?$AAy?$AA?9?$AAa?$AAm?$AA?$AA@ 0000000180050f68     libucrt:lcidtoname_downlevel.obj
 0002:0000ef78       ??_C@_1M@BABBICEC@?$AAi?$AAd?$AA?9?$AAi?$AAd?$AA?$AA@ 0000000180050f78     libucrt:lcidtoname_downlevel.obj
 0002:0000ef88       ??_C@_1M@BIKNHHPF@?$AAi?$AAs?$AA?9?$AAi?$AAs?$AA?$AA@ 0000000180050f88     libucrt:lcidtoname_downlevel.obj
 0002:0000ef98       ??_C@_1M@NMPCJPHE@?$AAi?$AAt?$AA?9?$AAc?$AAh?$AA?$AA@ 0000000180050f98     libucrt:lcidtoname_downlevel.obj
 0002:0000efa8       ??_C@_1M@GHKGFEDF@?$AAi?$AAt?$AA?9?$AAi?$AAt?$AA?$AA@ 0000000180050fa8     libucrt:lcidtoname_downlevel.obj
 0002:0000efb8       ??_C@_1M@NIEJCJJA@?$AAj?$AAa?$AA?9?$AAj?$AAp?$AA?$AA@ 0000000180050fb8     libucrt:lcidtoname_downlevel.obj
 0002:0000efc8       ??_C@_1M@JILFNBIM@?$AAk?$AAa?$AA?9?$AAg?$AAe?$AA?$AA@ 0000000180050fc8     libucrt:lcidtoname_downlevel.obj
 0002:0000efd8       ??_C@_1M@PACPMGPH@?$AAk?$AAk?$AA?9?$AAk?$AAz?$AA?$AA@ 0000000180050fd8     libucrt:lcidtoname_downlevel.obj
 0002:0000efe8       ??_C@_1M@IELFGMHA@?$AAk?$AAn?$AA?9?$AAi?$AAn?$AA?$AA@ 0000000180050fe8     libucrt:lcidtoname_downlevel.obj
 0002:0000eff8       ??_C@_1O@IBBJHCH@?$AAk?$AAo?$AAk?$AA?9?$AAi?$AAn?$AA?$AA@ 0000000180050ff8     libucrt:lcidtoname_downlevel.obj
 0002:0000f008       ??_C@_1M@DMHAEOGC@?$AAk?$AAo?$AA?9?$AAk?$AAr?$AA?$AA@ 0000000180051008     libucrt:lcidtoname_downlevel.obj
 0002:0000f018       ??_C@_1M@HBAHBIGA@?$AAk?$AAy?$AA?9?$AAk?$AAg?$AA?$AA@ 0000000180051018     libucrt:lcidtoname_downlevel.obj
 0002:0000f028       ??_C@_1M@KPMILCJG@?$AAl?$AAt?$AA?9?$AAl?$AAt?$AA?$AA@ 0000000180051028     libucrt:lcidtoname_downlevel.obj
 0002:0000f038       ??_C@_1M@BDEKKCA@?$AAl?$AAv?$AA?9?$AAl?$AAv?$AA?$AA@ 0000000180051038     libucrt:lcidtoname_downlevel.obj
 0002:0000f048       ??_C@_1M@ELCKCCJJ@?$AAm?$AAi?$AA?9?$AAn?$AAz?$AA?$AA@ 0000000180051048     libucrt:lcidtoname_downlevel.obj
 0002:0000f058       ??_C@_1M@CBOOLAPA@?$AAm?$AAk?$AA?9?$AAm?$AAk?$AA?$AA@ 0000000180051058     libucrt:lcidtoname_downlevel.obj
 0002:0000f068       ??_C@_1M@GPHNBJKN@?$AAm?$AAl?$AA?9?$AAi?$AAn?$AA?$AA@ 0000000180051068     libucrt:lcidtoname_downlevel.obj
 0002:0000f078       ??_C@_1M@PABJILIG@?$AAm?$AAn?$AA?9?$AAm?$AAn?$AA?$AA@ 0000000180051078     libucrt:lcidtoname_downlevel.obj
 0002:0000f088       ??_C@_1M@FGBKKIPG@?$AAm?$AAr?$AA?9?$AAi?$AAn?$AA?$AA@ 0000000180051088     libucrt:lcidtoname_downlevel.obj
 0002:0000f098       ??_C@_1M@NDBPDDAL@?$AAm?$AAs?$AA?9?$AAb?$AAn?$AA?$AA@ 0000000180051098     libucrt:lcidtoname_downlevel.obj
 0002:0000f0a8       ??_C@_1M@OPIHOOPI@?$AAm?$AAs?$AA?9?$AAm?$AAy?$AA?$AA@ 00000001800510a8     libucrt:lcidtoname_downlevel.obj
 0002:0000f0b8       ??_C@_1M@PPDBCNFM@?$AAm?$AAt?$AA?9?$AAm?$AAt?$AA?$AA@ 00000001800510b8     libucrt:lcidtoname_downlevel.obj
 0002:0000f0c8       ??_C@_1M@KDJDKMDD@?$AAn?$AAb?$AA?9?$AAn?$AAo?$AA?$AA@ 00000001800510c8     libucrt:lcidtoname_downlevel.obj
 0002:0000f0d8       ??_C@_1M@KFCFLMJP@?$AAn?$AAl?$AA?9?$AAb?$AAe?$AA?$AA@ 00000001800510d8     libucrt:lcidtoname_downlevel.obj
 0002:0000f0e8       ??_C@_1M@KPOPDDGO@?$AAn?$AAl?$AA?9?$AAn?$AAl?$AA?$AA@ 00000001800510e8     libucrt:lcidtoname_downlevel.obj
 0002:0000f0f8       ??_C@_1M@LJKPEMLN@?$AAn?$AAn?$AA?9?$AAn?$AAo?$AA?$AA@ 00000001800510f8     libucrt:lcidtoname_downlevel.obj
 0002:0000f108       ??_C@_1M@BDGHHBFL@?$AAn?$AAs?$AA?9?$AAz?$AAa?$AA?$AA@ 0000000180051108     libucrt:lcidtoname_downlevel.obj
 0002:0000f118       ??_C@_1M@IDEHOAP@?$AAp?$AAa?$AA?9?$AAi?$AAn?$AA?$AA@ 0000000180051118     libucrt:lcidtoname_downlevel.obj
 0002:0000f128       ??_C@_1M@HDBKGOGH@?$AAp?$AAl?$AA?9?$AAp?$AAl?$AA?$AA@ 0000000180051128     libucrt:lcidtoname_downlevel.obj
 0002:0000f138       ??_C@_1M@LJLLCMEH@?$AAp?$AAt?$AA?9?$AAb?$AAr?$AA?$AA@ 0000000180051138     libucrt:lcidtoname_downlevel.obj
 0002:0000f148       ??_C@_1M@NCMONAAL@?$AAp?$AAt?$AA?9?$AAp?$AAt?$AA?$AA@ 0000000180051148     libucrt:lcidtoname_downlevel.obj
 0002:0000f158       ??_C@_1O@EAKMAJDN@?$AAq?$AAu?$AAz?$AA?9?$AAb?$AAo?$AA?$AA@ 0000000180051158     libucrt:lcidtoname_downlevel.obj
 0002:0000f168       ??_C@_1O@BHHPIGDN@?$AAq?$AAu?$AAz?$AA?9?$AAe?$AAc?$AA?$AA@ 0000000180051168     libucrt:lcidtoname_downlevel.obj
 0002:0000f178       ??_C@_1O@GBAPEKMJ@?$AAq?$AAu?$AAz?$AA?9?$AAp?$AAe?$AA?$AA@ 0000000180051178     libucrt:lcidtoname_downlevel.obj
 0002:0000f188       ??_C@_1M@CLGLEFBO@?$AAr?$AAo?$AA?9?$AAr?$AAo?$AA?$AA@ 0000000180051188     libucrt:lcidtoname_downlevel.obj
 0002:0000f198       ??_C@_1M@CEEDODME@?$AAr?$AAu?$AA?9?$AAr?$AAu?$AA?$AA@ 0000000180051198     libucrt:lcidtoname_downlevel.obj
 0002:0000f1a8       ??_C@_1M@HPKKKMPP@?$AAs?$AAa?$AA?9?$AAi?$AAn?$AA?$AA@ 00000001800511a8     libucrt:lcidtoname_downlevel.obj
 0002:0000f1b8       ??_C@_1M@BKMAIGOJ@?$AAs?$AAe?$AA?9?$AAf?$AAi?$AA?$AA@ 00000001800511b8     libucrt:lcidtoname_downlevel.obj
 0002:0000f1c8       ??_C@_1M@NDPIFLFI@?$AAs?$AAe?$AA?9?$AAn?$AAo?$AA?$AA@ 00000001800511c8     libucrt:lcidtoname_downlevel.obj
 0002:0000f1d8       ??_C@_1M@DANKKHJ@?$AAs?$AAe?$AA?9?$AAs?$AAe?$AA?$AA@ 00000001800511d8     libucrt:lcidtoname_downlevel.obj
 0002:0000f1e8       ??_C@_1M@PNBLONPJ@?$AAs?$AAk?$AA?9?$AAs?$AAk?$AA?$AA@ 00000001800511e8     libucrt:lcidtoname_downlevel.obj
 0002:0000f1f8       ??_C@_1M@LFMODOAL@?$AAs?$AAl?$AA?9?$AAs?$AAi?$AA?$AA@ 00000001800511f8     libucrt:lcidtoname_downlevel.obj
 0002:0000f208       ??_C@_1O@DFKOMPG@?$AAs?$AAm?$AAa?$AA?9?$AAn?$AAo?$AA?$AA@ 0000000180051208     libucrt:lcidtoname_downlevel.obj
 0002:0000f218       ??_C@_1O@NDKPBNNH@?$AAs?$AAm?$AAa?$AA?9?$AAs?$AAe?$AA?$AA@ 0000000180051218     libucrt:lcidtoname_downlevel.obj
 0002:0000f228       ??_C@_1O@PLLKBHAB@?$AAs?$AAm?$AAj?$AA?9?$AAn?$AAo?$AA?$AA@ 0000000180051228     libucrt:lcidtoname_downlevel.obj
 0002:0000f238       ??_C@_1O@CLEPOGCA@?$AAs?$AAm?$AAj?$AA?9?$AAs?$AAe?$AA?$AA@ 0000000180051238     libucrt:lcidtoname_downlevel.obj
 0002:0000f248       ??_C@_1O@DLGJGKMK@?$AAs?$AAm?$AAn?$AA?9?$AAf?$AAi?$AA?$AA@ 0000000180051248     libucrt:lcidtoname_downlevel.obj
 0002:0000f258       ??_C@_1O@OJDJGAJC@?$AAs?$AAm?$AAs?$AA?9?$AAf?$AAi?$AA?$AA@ 0000000180051258     libucrt:lcidtoname_downlevel.obj
 0002:0000f268       ??_C@_1M@BOFOGHPB@?$AAs?$AAq?$AA?9?$AAa?$AAl?$AA?$AA@ 0000000180051268     libucrt:lcidtoname_downlevel.obj
 0002:0000f278       ??_C@_1BG@LJBBIPGB@?$AAs?$AAr?$AA?9?$AAb?$AAa?$AA?9?$AAc?$AAy?$AAr?$AAl?$AA?$AA@ 0000000180051278     libucrt:lcidtoname_downlevel.obj
 0002:0000f290       ??_C@_1BG@JLBENFOE@?$AAs?$AAr?$AA?9?$AAb?$AAa?$AA?9?$AAl?$AAa?$AAt?$AAn?$AA?$AA@ 0000000180051290     libucrt:lcidtoname_downlevel.obj
 0002:0000f2a8       ??_C@_1BG@KODPNHE@?$AAs?$AAr?$AA?9?$AAs?$AAp?$AA?9?$AAc?$AAy?$AAr?$AAl?$AA?$AA@ 00000001800512a8     libucrt:lcidtoname_downlevel.obj
 0002:0000f2c0       ??_C@_1BG@CIOGKHPB@?$AAs?$AAr?$AA?9?$AAs?$AAp?$AA?9?$AAl?$AAa?$AAt?$AAn?$AA?$AA@ 00000001800512c0     libucrt:lcidtoname_downlevel.obj
 0002:0000f2d8       ??_C@_1M@NGFJLMAC@?$AAs?$AAv?$AA?9?$AAf?$AAi?$AA?$AA@ 00000001800512d8     libucrt:lcidtoname_downlevel.obj
 0002:0000f2e8       ??_C@_1M@MPJEJAJC@?$AAs?$AAv?$AA?9?$AAs?$AAe?$AA?$AA@ 00000001800512e8     libucrt:lcidtoname_downlevel.obj
 0002:0000f2f8       ??_C@_1M@MPNDHLFK@?$AAs?$AAw?$AA?9?$AAk?$AAe?$AA?$AA@ 00000001800512f8     libucrt:lcidtoname_downlevel.obj
 0002:0000f308       ??_C@_1O@KOHBJJI@?$AAs?$AAy?$AAr?$AA?9?$AAs?$AAy?$AA?$AA@ 0000000180051308     libucrt:lcidtoname_downlevel.obj
 0002:0000f318       ??_C@_1M@LDCEFHA@?$AAt?$AAa?$AA?9?$AAi?$AAn?$AA?$AA@ 0000000180051318     libucrt:lcidtoname_downlevel.obj
 0002:0000f328       ??_C@_1M@CNJOFAK@?$AAt?$AAe?$AA?9?$AAi?$AAn?$AA?$AA@ 0000000180051328     libucrt:lcidtoname_downlevel.obj
 0002:0000f338       ??_C@_1M@GNAECACD@?$AAt?$AAh?$AA?9?$AAt?$AAh?$AA?$AA@ 0000000180051338     libucrt:lcidtoname_downlevel.obj
 0002:0000f348       ??_C@_1M@CHBIHOJO@?$AAt?$AAn?$AA?9?$AAz?$AAa?$AA?$AA@ 0000000180051348     libucrt:lcidtoname_downlevel.obj
 0002:0000f358       ??_C@_1M@GCCMIGPJ@?$AAt?$AAr?$AA?9?$AAt?$AAr?$AA?$AA@ 0000000180051358     libucrt:lcidtoname_downlevel.obj
 0002:0000f368       ??_C@_1M@CELMCNBK@?$AAt?$AAt?$AA?9?$AAr?$AAu?$AA?$AA@ 0000000180051368     libucrt:lcidtoname_downlevel.obj
 0002:0000f378       ??_C@_1M@KLMCELGA@?$AAu?$AAk?$AA?9?$AAu?$AAa?$AA?$AA@ 0000000180051378     libucrt:lcidtoname_downlevel.obj
 0002:0000f388       ??_C@_1M@EPAJJAJF@?$AAu?$AAr?$AA?9?$AAp?$AAk?$AA?$AA@ 0000000180051388     libucrt:lcidtoname_downlevel.obj
 0002:0000f398       ??_C@_1BG@GEGPMCDJ@?$AAu?$AAz?$AA?9?$AAu?$AAz?$AA?9?$AAc?$AAy?$AAr?$AAl?$AA?$AA@ 0000000180051398     libucrt:lcidtoname_downlevel.obj
 0002:0000f3b0       ??_C@_1BG@EGGKJILM@?$AAu?$AAz?$AA?9?$AAu?$AAz?$AA?9?$AAl?$AAa?$AAt?$AAn?$AA?$AA@ 00000001800513b0     libucrt:lcidtoname_downlevel.obj
 0002:0000f3c8       ??_C@_1M@GFOCLFF@?$AAv?$AAi?$AA?9?$AAv?$AAn?$AA?$AA@ 00000001800513c8     libucrt:lcidtoname_downlevel.obj
 0002:0000f3d8       ??_C@_1M@CPAMEDFI@?$AAx?$AAh?$AA?9?$AAz?$AAa?$AA?$AA@ 00000001800513d8     libucrt:lcidtoname_downlevel.obj
 0002:0000f3e8       ??_C@_1O@EBKIFIGN@?$AAz?$AAh?$AA?9?$AAc?$AAh?$AAs?$AA?$AA@ 00000001800513e8     libucrt:lcidtoname_downlevel.obj
 0002:0000f3f8       ??_C@_1O@NMHPGANE@?$AAz?$AAh?$AA?9?$AAc?$AAh?$AAt?$AA?$AA@ 00000001800513f8     libucrt:lcidtoname_downlevel.obj
 0002:0000f408       ??_C@_1M@LPINJOMC@?$AAz?$AAh?$AA?9?$AAc?$AAn?$AA?$AA@ 0000000180051408     libucrt:lcidtoname_downlevel.obj
 0002:0000f418       ??_C@_1M@OCJEJODD@?$AAz?$AAh?$AA?9?$AAh?$AAk?$AA?$AA@ 0000000180051418     libucrt:lcidtoname_downlevel.obj
 0002:0000f428       ??_C@_1M@DNDLJINH@?$AAz?$AAh?$AA?9?$AAm?$AAo?$AA?$AA@ 0000000180051428     libucrt:lcidtoname_downlevel.obj
 0002:0000f438       ??_C@_1M@MBFDNDND@?$AAz?$AAh?$AA?9?$AAs?$AAg?$AA?$AA@ 0000000180051438     libucrt:lcidtoname_downlevel.obj
 0002:0000f448       ??_C@_1M@IMEPLEPE@?$AAz?$AAh?$AA?9?$AAt?$AAw?$AA?$AA@ 0000000180051448     libucrt:lcidtoname_downlevel.obj
 0002:0000f458       ??_C@_1M@BBGHNHJP@?$AAz?$AAu?$AA?9?$AAz?$AAa?$AA?$AA@ 0000000180051458     libucrt:lcidtoname_downlevel.obj
 0002:0000f464       ??_C@_00CNPNBAHC@?$AA@     0000000180051464     libucrt:mbrtowc.obj
 0002:0000f468       ??_C@_01GBGANLPD@0?$AA@    0000000180051468     libucrt:cfout.obj
 0002:0000f46c       ??_C@_05DNEBIAHO@1?$CDINF?$AA@ 000000018005146c     libucrt:cfout.obj
 0002:0000f474       ??_C@_06IMKFLFPG@1?$CDQNAN?$AA@ 0000000180051474     libucrt:cfout.obj
 0002:0000f47c       ??_C@_06PGGFOGJG@1?$CDSNAN?$AA@ 000000018005147c     libucrt:cfout.obj
 0002:0000f484       ??_C@_05PHHOCPM@1?$CDIND?$AA@ 0000000180051484     libucrt:cfout.obj
 0002:0000f490       __acrt_rg_language         0000000180051490     libucrt:get_qualified_locale.obj
 0002:0000f8a0       __acrt_rg_language_count   00000001800518a0     libucrt:get_qualified_locale.obj
 0002:0000f8b0       __acrt_rg_country          00000001800518b0     libucrt:get_qualified_locale.obj
 0002:0000fa20       __acrt_rg_country_count    0000000180051a20     libucrt:get_qualified_locale.obj
 0002:0000fa28       ??_C@_1BC@LLOKLNP@?$AAa?$AAm?$AAe?$AAr?$AAi?$AAc?$AAa?$AAn?$AA?$AA@ 0000000180051a28     libucrt:get_qualified_locale.obj
 0002:0000fa40       ??_C@_1CC@HEIGCDGG@?$AAa?$AAm?$AAe?$AAr?$AAi?$AAc?$AAa?$AAn?$AA?5?$AAe?$AAn?$AAg?$AAl?$AAi?$AAs?$AAh?$AA?$AA@ 0000000180051a40     libucrt:get_qualified_locale.obj
 0002:0000fa68       ??_C@_1CC@IHCNOMIN@?$AAa?$AAm?$AAe?$AAr?$AAi?$AAc?$AAa?$AAn?$AA?9?$AAe?$AAn?$AAg?$AAl?$AAi?$AAs?$AAh?$AA?$AA@ 0000000180051a68     libucrt:get_qualified_locale.obj
 0002:0000fa90       ??_C@_1BG@GKAGPCGG@?$AAa?$AAu?$AAs?$AAt?$AAr?$AAa?$AAl?$AAi?$AAa?$AAn?$AA?$AA@ 0000000180051a90     libucrt:get_qualified_locale.obj
 0002:0000faa8       ??_C@_1BA@GMENCENF@?$AAb?$AAe?$AAl?$AAg?$AAi?$AAa?$AAn?$AA?$AA@ 0000000180051aa8     libucrt:get_qualified_locale.obj
 0002:0000fab8       ??_C@_1BC@PJMIIAAN@?$AAc?$AAa?$AAn?$AAa?$AAd?$AAi?$AAa?$AAn?$AA?$AA@ 0000000180051ab8     libucrt:get_qualified_locale.obj
 0002:0000fad0       ??_C@_17NOIMNFBF@?$AAc?$AAh?$AAh?$AA?$AA@ 0000000180051ad0     libucrt:get_qualified_locale.obj
 0002:0000fad8       ??_C@_17GGDALCHA@?$AAc?$AAh?$AAi?$AA?$AA@ 0000000180051ad8     libucrt:get_qualified_locale.obj
 0002:0000fae0       ??_C@_1BA@NPNJKIBL@?$AAc?$AAh?$AAi?$AAn?$AAe?$AAs?$AAe?$AA?$AA@ 0000000180051ae0     libucrt:get_qualified_locale.obj
 0002:0000faf0       ??_C@_1CC@DINBAMMJ@?$AAc?$AAh?$AAi?$AAn?$AAe?$AAs?$AAe?$AA?9?$AAh?$AAo?$AAn?$AAg?$AAk?$AAo?$AAn?$AAg?$AA?$AA@ 0000000180051af0     libucrt:get_qualified_locale.obj
 0002:0000fb18       ??_C@_1CG@IOBJPACO@?$AAc?$AAh?$AAi?$AAn?$AAe?$AAs?$AAe?$AA?9?$AAs?$AAi?$AAm?$AAp?$AAl?$AAi?$AAf?$AAi?$AAe?$AAd?$AA?$AA@ 0000000180051b18     libucrt:get_qualified_locale.obj
 0002:0000fb40       ??_C@_1CE@GAJNDCKG@?$AAc?$AAh?$AAi?$AAn?$AAe?$AAs?$AAe?$AA?9?$AAs?$AAi?$AAn?$AAg?$AAa?$AAp?$AAo?$AAr?$AAe?$AA?$AA@ 0000000180051b40     libucrt:get_qualified_locale.obj
 0002:0000fb68       ??_C@_1CI@PAJPIOOD@?$AAc?$AAh?$AAi?$AAn?$AAe?$AAs?$AAe?$AA?9?$AAt?$AAr?$AAa?$AAd?$AAi?$AAt?$AAi?$AAo?$AAn?$AAa?$AAl?$AA?$AA@ 0000000180051b68     libucrt:get_qualified_locale.obj
 0002:0000fb90       ??_C@_1BM@NILJBMMD@?$AAd?$AAu?$AAt?$AAc?$AAh?$AA?9?$AAb?$AAe?$AAl?$AAg?$AAi?$AAa?$AAn?$AA?$AA@ 0000000180051b90     libucrt:get_qualified_locale.obj
 0002:0000fbb0       ??_C@_1CC@OOJPJNEJ@?$AAe?$AAn?$AAg?$AAl?$AAi?$AAs?$AAh?$AA?9?$AAa?$AAm?$AAe?$AAr?$AAi?$AAc?$AAa?$AAn?$AA?$AA@ 0000000180051bb0     libucrt:get_qualified_locale.obj
 0002:0000fbd8       ??_C@_1BI@IOLFEEM@?$AAe?$AAn?$AAg?$AAl?$AAi?$AAs?$AAh?$AA?9?$AAa?$AAu?$AAs?$AA?$AA@ 0000000180051bd8     libucrt:get_qualified_locale.obj
 0002:0000fbf0       ??_C@_1BO@HFFNLENJ@?$AAe?$AAn?$AAg?$AAl?$AAi?$AAs?$AAh?$AA?9?$AAb?$AAe?$AAl?$AAi?$AAz?$AAe?$AA?$AA@ 0000000180051bf0     libucrt:get_qualified_locale.obj
 0002:0000fc10       ??_C@_1BI@HAPKJMPO@?$AAe?$AAn?$AAg?$AAl?$AAi?$AAs?$AAh?$AA?9?$AAc?$AAa?$AAn?$AA?$AA@ 0000000180051c10     libucrt:get_qualified_locale.obj
 0002:0000fc28       ??_C@_1CE@HLNDMIOJ@?$AAe?$AAn?$AAg?$AAl?$AAi?$AAs?$AAh?$AA?9?$AAc?$AAa?$AAr?$AAi?$AAb?$AAb?$AAe?$AAa?$AAn?$AA?$AA@ 0000000180051c28     libucrt:get_qualified_locale.obj
 0002:0000fc50       ??_C@_1BI@LDHJHHAC@?$AAe?$AAn?$AAg?$AAl?$AAi?$AAs?$AAh?$AA?9?$AAi?$AAr?$AAe?$AA?$AA@ 0000000180051c50     libucrt:get_qualified_locale.obj
 0002:0000fc68       ??_C@_1CA@NJMMCFOC@?$AAe?$AAn?$AAg?$AAl?$AAi?$AAs?$AAh?$AA?9?$AAj?$AAa?$AAm?$AAa?$AAi?$AAc?$AAa?$AA?$AA@ 0000000180051c68     libucrt:get_qualified_locale.obj
 0002:0000fc88       ??_C@_1BG@BHJEBBGG@?$AAe?$AAn?$AAg?$AAl?$AAi?$AAs?$AAh?$AA?9?$AAn?$AAz?$AA?$AA@ 0000000180051c88     libucrt:get_qualified_locale.obj
 0002:0000fca0       ??_C@_1CK@FGOEJJCO@?$AAe?$AAn?$AAg?$AAl?$AAi?$AAs?$AAh?$AA?9?$AAs?$AAo?$AAu?$AAt?$AAh?$AA?5?$AAa?$AAf?$AAr?$AAi?$AAc?$AAa?$AA?$AA@ 0000000180051ca0     libucrt:get_qualified_locale.obj
 0002:0000fcd0       ??_C@_1DE@PDBJPCJ@?$AAe?$AAn?$AAg?$AAl?$AAi?$AAs?$AAh?$AA?9?$AAt?$AAr?$AAi?$AAn?$AAi?$AAd?$AAa?$AAd?$AA?5?$AAy?$AA?5?$AAt?$AAo?$AAb?$AAa?$AAg?$AAo?$AA?$AA@ 0000000180051cd0     libucrt:get_qualified_locale.obj
 0002:0000fd08       ??_C@_1BG@JGCANDME@?$AAe?$AAn?$AAg?$AAl?$AAi?$AAs?$AAh?$AA?9?$AAu?$AAk?$AA?$AA@ 0000000180051d08     libucrt:get_qualified_locale.obj
 0002:0000fd20       ??_C@_1BG@DINKMLE@?$AAe?$AAn?$AAg?$AAl?$AAi?$AAs?$AAh?$AA?9?$AAu?$AAs?$AA?$AA@ 0000000180051d20     libucrt:get_qualified_locale.obj
 0002:0000fd38       ??_C@_1BI@NMFDBHJE@?$AAe?$AAn?$AAg?$AAl?$AAi?$AAs?$AAh?$AA?9?$AAu?$AAs?$AAa?$AA?$AA@ 0000000180051d38     libucrt:get_qualified_locale.obj
 0002:0000fd50       ??_C@_1BO@OIHKJKII@?$AAf?$AAr?$AAe?$AAn?$AAc?$AAh?$AA?9?$AAb?$AAe?$AAl?$AAg?$AAi?$AAa?$AAn?$AA?$AA@ 0000000180051d50     libucrt:get_qualified_locale.obj
 0002:0000fd70       ??_C@_1CA@NKAELJKI@?$AAf?$AAr?$AAe?$AAn?$AAc?$AAh?$AA?9?$AAc?$AAa?$AAn?$AAa?$AAd?$AAi?$AAa?$AAn?$AA?$AA@ 0000000180051d70     libucrt:get_qualified_locale.obj
 0002:0000fd90       ??_C@_1CE@MGKCNLGN@?$AAf?$AAr?$AAe?$AAn?$AAc?$AAh?$AA?9?$AAl?$AAu?$AAx?$AAe?$AAm?$AAb?$AAo?$AAu?$AAr?$AAg?$AA?$AA@ 0000000180051d90     libucrt:get_qualified_locale.obj
 0002:0000fdb8       ??_C@_1BK@CEGEAILM@?$AAf?$AAr?$AAe?$AAn?$AAc?$AAh?$AA?9?$AAs?$AAw?$AAi?$AAs?$AAs?$AA?$AA@ 0000000180051db8     libucrt:get_qualified_locale.obj
 0002:0000fdd8       ??_C@_1CA@PAFKEOCC@?$AAg?$AAe?$AAr?$AAm?$AAa?$AAn?$AA?9?$AAa?$AAu?$AAs?$AAt?$AAr?$AAi?$AAa?$AAn?$AA?$AA@ 0000000180051dd8     libucrt:get_qualified_locale.obj
 0002:0000fdf8       ??_C@_1CI@HCFHGOFD@?$AAg?$AAe?$AAr?$AAm?$AAa?$AAn?$AA?9?$AAl?$AAi?$AAc?$AAh?$AAt?$AAe?$AAn?$AAs?$AAt?$AAe?$AAi?$AAn?$AA?$AA@ 0000000180051df8     libucrt:get_qualified_locale.obj
 0002:0000fe20       ??_C@_1CE@FEDDNPDG@?$AAg?$AAe?$AAr?$AAm?$AAa?$AAn?$AA?9?$AAl?$AAu?$AAx?$AAe?$AAm?$AAb?$AAo?$AAu?$AAr?$AAg?$AA?$AA@ 0000000180051e20     libucrt:get_qualified_locale.obj
 0002:0000fe48       ??_C@_1BK@LIMINNMN@?$AAg?$AAe?$AAr?$AAm?$AAa?$AAn?$AA?9?$AAs?$AAw?$AAi?$AAs?$AAs?$AA?$AA@ 0000000180051e48     libucrt:get_qualified_locale.obj
 0002:0000fe68       ??_C@_1BM@LGMDBEPD@?$AAi?$AAr?$AAi?$AAs?$AAh?$AA?9?$AAe?$AAn?$AAg?$AAl?$AAi?$AAs?$AAh?$AA?$AA@ 0000000180051e68     libucrt:get_qualified_locale.obj
 0002:0000fe88       ??_C@_1BM@NNCFBAEE@?$AAi?$AAt?$AAa?$AAl?$AAi?$AAa?$AAn?$AA?9?$AAs?$AAw?$AAi?$AAs?$AAs?$AA?$AA@ 0000000180051e88     libucrt:get_qualified_locale.obj
 0002:0000fea8       ??_C@_1BE@FEDJNPIB@?$AAn?$AAo?$AAr?$AAw?$AAe?$AAg?$AAi?$AAa?$AAn?$AA?$AA@ 0000000180051ea8     libucrt:get_qualified_locale.obj
 0002:0000fec0       ??_C@_1CC@CILKDEIE@?$AAn?$AAo?$AAr?$AAw?$AAe?$AAg?$AAi?$AAa?$AAn?$AA?9?$AAb?$AAo?$AAk?$AAm?$AAa?$AAl?$AA?$AA@ 0000000180051ec0     libucrt:get_qualified_locale.obj
 0002:0000fee8       ??_C@_1CE@DHMMHEPL@?$AAn?$AAo?$AAr?$AAw?$AAe?$AAg?$AAi?$AAa?$AAn?$AA?9?$AAn?$AAy?$AAn?$AAo?$AAr?$AAs?$AAk?$AA?$AA@ 0000000180051ee8     libucrt:get_qualified_locale.obj
 0002:0000ff10       ??_C@_1CK@OPNMHECD@?$AAp?$AAo?$AAr?$AAt?$AAu?$AAg?$AAu?$AAe?$AAs?$AAe?$AA?9?$AAb?$AAr?$AAa?$AAz?$AAi?$AAl?$AAi?$AAa?$AAn?$AA?$AA@ 0000000180051f10     libucrt:get_qualified_locale.obj
 0002:0000ff40       ??_C@_1CE@KEEHCDB@?$AAs?$AAp?$AAa?$AAn?$AAi?$AAs?$AAh?$AA?9?$AAa?$AAr?$AAg?$AAe?$AAn?$AAt?$AAi?$AAn?$AAa?$AA?$AA@ 0000000180051f40     libucrt:get_qualified_locale.obj
 0002:0000ff68       ??_C@_1CA@GIAOLHJD@?$AAs?$AAp?$AAa?$AAn?$AAi?$AAs?$AAh?$AA?9?$AAb?$AAo?$AAl?$AAi?$AAv?$AAi?$AAa?$AA?$AA@ 0000000180051f68     libucrt:get_qualified_locale.obj
 0002:0000ff88       ??_C@_1BM@OJNDFNPD@?$AAs?$AAp?$AAa?$AAn?$AAi?$AAs?$AAh?$AA?9?$AAc?$AAh?$AAi?$AAl?$AAe?$AA?$AA@ 0000000180051f88     libucrt:get_qualified_locale.obj
 0002:0000ffa8       ??_C@_1CC@OCOLPALL@?$AAs?$AAp?$AAa?$AAn?$AAi?$AAs?$AAh?$AA?9?$AAc?$AAo?$AAl?$AAo?$AAm?$AAb?$AAi?$AAa?$AA?$AA@ 0000000180051fa8     libucrt:get_qualified_locale.obj
 0002:0000ffd0       ??_C@_1CG@BPOFMKBB@?$AAs?$AAp?$AAa?$AAn?$AAi?$AAs?$AAh?$AA?9?$AAc?$AAo?$AAs?$AAt?$AAa?$AA?5?$AAr?$AAi?$AAc?$AAa?$AA?$AA@ 0000000180051fd0     libucrt:get_qualified_locale.obj
 0002:0000fff8       ??_C@_1DG@IGOBAPBB@?$AAs?$AAp?$AAa?$AAn?$AAi?$AAs?$AAh?$AA?9?$AAd?$AAo?$AAm?$AAi?$AAn?$AAi?$AAc?$AAa?$AAn?$AA?5?$AAr?$AAe?$AAp?$AAu?$AAb?$AAl?$AAi?$AAc?$AA?$AA@ 0000000180051ff8     libucrt:get_qualified_locale.obj
 0002:00010030       ??_C@_1CA@JHAPGEGI@?$AAs?$AAp?$AAa?$AAn?$AAi?$AAs?$AAh?$AA?9?$AAe?$AAc?$AAu?$AAa?$AAd?$AAo?$AAr?$AA?$AA@ 0000000180052030     libucrt:get_qualified_locale.obj
 0002:00010050       ??_C@_1CI@LAPALJPP@?$AAs?$AAp?$AAa?$AAn?$AAi?$AAs?$AAh?$AA?9?$AAe?$AAl?$AA?5?$AAs?$AAa?$AAl?$AAv?$AAa?$AAd?$AAo?$AAr?$AA?$AA@ 0000000180052050     libucrt:get_qualified_locale.obj
 0002:00010078       ??_C@_1CE@PDGBOFOM@?$AAs?$AAp?$AAa?$AAn?$AAi?$AAs?$AAh?$AA?9?$AAg?$AAu?$AAa?$AAt?$AAe?$AAm?$AAa?$AAl?$AAa?$AA?$AA@ 0000000180052078     libucrt:get_qualified_locale.obj
 0002:000100a0       ??_C@_1CC@NBEBAODI@?$AAs?$AAp?$AAa?$AAn?$AAi?$AAs?$AAh?$AA?9?$AAh?$AAo?$AAn?$AAd?$AAu?$AAr?$AAa?$AAs?$AA?$AA@ 00000001800520a0     libucrt:get_qualified_locale.obj
 0002:000100c8       ??_C@_1CA@LLKGHBMF@?$AAs?$AAp?$AAa?$AAn?$AAi?$AAs?$AAh?$AA?9?$AAm?$AAe?$AAx?$AAi?$AAc?$AAa?$AAn?$AA?$AA@ 00000001800520c8     libucrt:get_qualified_locale.obj
 0002:000100e8       ??_C@_1BO@LKNDOIGD@?$AAs?$AAp?$AAa?$AAn?$AAi?$AAs?$AAh?$AA?9?$AAm?$AAo?$AAd?$AAe?$AAr?$AAn?$AA?$AA@ 00000001800520e8     libucrt:get_qualified_locale.obj
 0002:00010108       ??_C@_1CE@NMDMOEEB@?$AAs?$AAp?$AAa?$AAn?$AAi?$AAs?$AAh?$AA?9?$AAn?$AAi?$AAc?$AAa?$AAr?$AAa?$AAg?$AAu?$AAa?$AA?$AA@ 0000000180052108     libucrt:get_qualified_locale.obj
 0002:00010130       ??_C@_1BO@LLCBEJGB@?$AAs?$AAp?$AAa?$AAn?$AAi?$AAs?$AAh?$AA?9?$AAp?$AAa?$AAn?$AAa?$AAm?$AAa?$AA?$AA@ 0000000180052130     libucrt:get_qualified_locale.obj
 0002:00010150       ??_C@_1CC@FKPGGIHO@?$AAs?$AAp?$AAa?$AAn?$AAi?$AAs?$AAh?$AA?9?$AAp?$AAa?$AAr?$AAa?$AAg?$AAu?$AAa?$AAy?$AA?$AA@ 0000000180052150     libucrt:get_qualified_locale.obj
 0002:00010178       ??_C@_1BK@CDEIHOOP@?$AAs?$AAp?$AAa?$AAn?$AAi?$AAs?$AAh?$AA?9?$AAp?$AAe?$AAr?$AAu?$AA?$AA@ 0000000180052178     libucrt:get_qualified_locale.obj
 0002:00010198       ??_C@_1CI@GAHAKKGP@?$AAs?$AAp?$AAa?$AAn?$AAi?$AAs?$AAh?$AA?9?$AAp?$AAu?$AAe?$AAr?$AAt?$AAo?$AA?5?$AAr?$AAi?$AAc?$AAo?$AA?$AA@ 0000000180052198     libucrt:get_qualified_locale.obj
 0002:000101c0       ??_C@_1CA@NKJBCAGP@?$AAs?$AAp?$AAa?$AAn?$AAi?$AAs?$AAh?$AA?9?$AAu?$AAr?$AAu?$AAg?$AAu?$AAa?$AAy?$AA?$AA@ 00000001800521c0     libucrt:get_qualified_locale.obj
 0002:000101e0       ??_C@_1CE@ODILCONM@?$AAs?$AAp?$AAa?$AAn?$AAi?$AAs?$AAh?$AA?9?$AAv?$AAe?$AAn?$AAe?$AAz?$AAu?$AAe?$AAl?$AAa?$AA?$AA@ 00000001800521e0     libucrt:get_qualified_locale.obj
 0002:00010208       ??_C@_1CA@OBNMCGFO@?$AAs?$AAw?$AAe?$AAd?$AAi?$AAs?$AAh?$AA?9?$AAf?$AAi?$AAn?$AAl?$AAa?$AAn?$AAd?$AA?$AA@ 0000000180052208     libucrt:get_qualified_locale.obj
 0002:00010228       ??_C@_1M@PIPDDPPI@?$AAs?$AAw?$AAi?$AAs?$AAs?$AA?$AA@ 0000000180052228     libucrt:get_qualified_locale.obj
 0002:00010234       ??_C@_15GMFIMNFM@?$AAu?$AAs?$AA?$AA@ 0000000180052234     libucrt:get_qualified_locale.obj
 0002:00010240       ??_C@_17HAEBFAGL@?$AAu?$AAs?$AAa?$AA?$AA@ 0000000180052240     libucrt:get_qualified_locale.obj
 0002:00010248       ??_C@_1BA@DPFJEPHB@?$AAa?$AAm?$AAe?$AAr?$AAi?$AAc?$AAa?$AA?$AA@ 0000000180052248     libucrt:get_qualified_locale.obj
 0002:00010258       ??_C@_1BA@ELOGGFK@?$AAb?$AAr?$AAi?$AAt?$AAa?$AAi?$AAn?$AA?$AA@ 0000000180052258     libucrt:get_qualified_locale.obj
 0002:00010268       ??_C@_1M@GHBGIGDA@?$AAc?$AAh?$AAi?$AAn?$AAa?$AA?$AA@ 0000000180052268     libucrt:get_qualified_locale.obj
 0002:00010278       ??_C@_1M@NCHEJOPO@?$AAc?$AAz?$AAe?$AAc?$AAh?$AA?$AA@ 0000000180052278     libucrt:get_qualified_locale.obj
 0002:00010288       ??_C@_1BA@BKPAPBLA@?$AAe?$AAn?$AAg?$AAl?$AAa?$AAn?$AAd?$AA?$AA@ 0000000180052288     libucrt:get_qualified_locale.obj
 0002:00010298       ??_C@_1BM@HKBCKIPC@?$AAg?$AAr?$AAe?$AAa?$AAt?$AA?5?$AAb?$AAr?$AAi?$AAt?$AAa?$AAi?$AAn?$AA?$AA@ 0000000180052298     libucrt:get_qualified_locale.obj
 0002:000102b8       ??_C@_1BA@PPCHPGJB@?$AAh?$AAo?$AAl?$AAl?$AAa?$AAn?$AAd?$AA?$AA@ 00000001800522b8     libucrt:get_qualified_locale.obj
 0002:000102c8       ??_C@_1BE@JBMPEGDG@?$AAh?$AAo?$AAn?$AAg?$AA?9?$AAk?$AAo?$AAn?$AAg?$AA?$AA@ 00000001800522c8     libucrt:get_qualified_locale.obj
 0002:000102e0       ??_C@_1BI@KOELBBPJ@?$AAn?$AAe?$AAw?$AA?9?$AAz?$AAe?$AAa?$AAl?$AAa?$AAn?$AAd?$AA?$AA@ 00000001800522e0     libucrt:get_qualified_locale.obj
 0002:000102f8       ??_C@_15HIEBHAIO@?$AAn?$AAz?$AA?$AA@ 00000001800522f8     libucrt:get_qualified_locale.obj
 0002:00010300       ??_C@_1BC@CHBCPFPI@?$AAp?$AAr?$AA?5?$AAc?$AAh?$AAi?$AAn?$AAa?$AA?$AA@ 0000000180052300     libucrt:get_qualified_locale.obj
 0002:00010318       ??_C@_1BC@JAOIIFKD@?$AAp?$AAr?$AA?9?$AAc?$AAh?$AAi?$AAn?$AAa?$AA?$AA@ 0000000180052318     libucrt:get_qualified_locale.obj
 0002:00010330       ??_C@_1BI@BEHPPHKC@?$AAp?$AAu?$AAe?$AAr?$AAt?$AAo?$AA?9?$AAr?$AAi?$AAc?$AAo?$AA?$AA@ 0000000180052330     libucrt:get_qualified_locale.obj
 0002:00010348       ??_C@_1O@PAEOFKDI@?$AAs?$AAl?$AAo?$AAv?$AAa?$AAk?$AA?$AA@ 0000000180052348     libucrt:get_qualified_locale.obj
 0002:00010358       ??_C@_1BK@FIHMCKAM@?$AAs?$AAo?$AAu?$AAt?$AAh?$AA?5?$AAa?$AAf?$AAr?$AAi?$AAc?$AAa?$AA?$AA@ 0000000180052358     libucrt:get_qualified_locale.obj
 0002:00010378       ??_C@_1BI@NAEOODKB@?$AAs?$AAo?$AAu?$AAt?$AAh?$AA?5?$AAk?$AAo?$AAr?$AAe?$AAa?$AA?$AA@ 0000000180052378     libucrt:get_qualified_locale.obj
 0002:00010390       ??_C@_1BK@FBDGGIFF@?$AAs?$AAo?$AAu?$AAt?$AAh?$AA?9?$AAa?$AAf?$AAr?$AAi?$AAc?$AAa?$AA?$AA@ 0000000180052390     libucrt:get_qualified_locale.obj
 0002:000103b0       ??_C@_1BI@GHLEJDPK@?$AAs?$AAo?$AAu?$AAt?$AAh?$AA?9?$AAk?$AAo?$AAr?$AAe?$AAa?$AA?$AA@ 00000001800523b0     libucrt:get_qualified_locale.obj
 0002:000103c8       ??_C@_1CE@PLHLOMJF@?$AAt?$AAr?$AAi?$AAn?$AAi?$AAd?$AAa?$AAd?$AA?5?$AA?$CG?$AA?5?$AAt?$AAo?$AAb?$AAa?$AAg?$AAo?$AA?$AA@ 00000001800523c8     libucrt:get_qualified_locale.obj
 0002:000103f0       ??_C@_1BO@MODIMHHI@?$AAu?$AAn?$AAi?$AAt?$AAe?$AAd?$AA?9?$AAk?$AAi?$AAn?$AAg?$AAd?$AAo?$AAm?$AA?$AA@ 00000001800523f0     libucrt:get_qualified_locale.obj
 0002:00010410       ??_C@_1BM@FFHJONBJ@?$AAu?$AAn?$AAi?$AAt?$AAe?$AAd?$AA?9?$AAs?$AAt?$AAa?$AAt?$AAe?$AAs?$AA?$AA@ 0000000180052410     libucrt:get_qualified_locale.obj
 0002:00010430       ??_C@_17DNCLJFIF@?$AAA?$AAC?$AAP?$AA?$AA@ 0000000180052430     libucrt:get_qualified_locale.obj
 0002:00010438       ??_C@_17CIKBIHLH@?$AAO?$AAC?$AAP?$AA?$AA@ 0000000180052438     libucrt:get_qualified_locale.obj
 0002:00010440       __rglangidNotDefault       0000000180052440     libucrt:getqloc_downlevel.obj
 0002:000106c0       ??_C@_1BA@BALFACEM@?$AAC?$AAO?$AAN?$AAO?$AAU?$AAT?$AA$?$AA?$AA@ 00000001800526c0     libucrt:initcon.obj
 0002:000106d0       __log10_256_lead           00000001800526d0     libucrt:log10_256_lead_tail_table.obj
 0002:00010ee0       __log10_256_tail           0000000180052ee0     libucrt:log10_256_lead_tail_table.obj
 0002:000116e8       ??_C@_1BK@DBDEIDLH@?$AAK?$AAE?$AAR?$AAN?$AAE?$AAL?$AA3?$AA2?$AA?4?$AAD?$AAL?$AAL@ 00000001800536e8     DelayImp:delayhlp.obj
 0002:00011708       __pfnDliFailureHook2       0000000180053708     DelayImp:delayhk1.obj
 0002:00011710       _load_config_used          0000000180053710     LIBCMT:loadcfg.obj
 0002:00011818       ??_C@_0BC@BDKFLDHL@unknown?5exception@ 0000000180053818     java.obj
 0002:00011830       ??_C@_1DG@OKCGPKIB@?$AAp?$AAe?$AAr?$AAs?$AAi?$AAs?$AAt?$AAe?$AAn?$AAt?$AA?$CI?$AA?$CJ?$AA?4?$AAI?$AAs@ 0000000180053830     java.obj
 0002:00011868       ??_C@_1CO@EGNPJLKI@?$AAp?$AAe?$AAr?$AAs?$AAi?$AAs?$AAt?$AAe?$AAn?$AAt?$AA?$CI?$AA?$CJ?$AA?4?$AAI?$AAs@ 0000000180053868     java.obj
 0002:00011898       ??_C@_1DA@FBGAEOIO@?$AA?$CB?$AAp?$AAe?$AAr?$AAs?$AAi?$AAs?$AAt?$AAe?$AAn?$AAt?$AA?$CI?$AA?$CJ?$AA?4?$AAI@ 0000000180053898     java.obj
 0002:000118c8       ??_C@_1CO@JCKLEFMA@?$AA?$CB?$AAp?$AAe?$AAr?$AAs?$AAi?$AAs?$AAt?$AAe?$AAn?$AAt?$AA?$CI?$AA?$CJ?$AA?4?$AAI@ 00000001800538c8     java.obj
 0002:000118f8       ??_C@_1BE@GMLLOIPJ@?$AAr?$AAe?$AAf?$AAs?$AA_?$AA?5?$AA?$DO?$AA?5?$AA0@ 00000001800538f8     java.obj
 0002:00011910       ??_C@_1CC@GBFLAAPF@?$AAw?$AAr?$AAa?$AAp?$AA?9?$AA?$DO?$AAr?$AAe?$AAf?$AAs?$AA_?$AA?5?$AA?$DN?$AA?$DN?$AA?5@ 0000000180053910     java.obj
 0002:00011938       ??_C@_0BA@JFNIOLAK@string?5too?5long@ 0000000180053938     java.obj
 0002:00011950       ??_C@_1KM@PFJMBCML@?$AAE?$AA?3?$AA?2?$AAD?$AAe?$AAs?$AAk?$AAt?$AAo?$AAp?$AA?2?$AAp?$AAr?$AAo?$AAj@ 0000000180053950     java.obj
 0002:00011a00       ??_C@_1EC@MGGLMBLC@?$AAo?$AAb?$AAj?$AAe?$AAc?$AAt?$AA?9?$AA?$DO?$AAI?$AAn?$AAt?$AAe?$AAr?$AAn?$AAa@ 0000000180053a00     java.obj
 0002:00011a48       ??_C@_1DI@ELDBKNAK@?$AAw?$AAr?$AAa?$AAp?$AA?9?$AA?$DO?$AAh?$AAa?$AAn?$AAd?$AAl?$AAe?$AA_?$AA?4?$AAI@ 0000000180053a48     java.obj
 0002:00011a80       ??_C@_02LMMGGCAJ@?3?5@     0000000180053a80     java.obj
 0002:00011a83       ??_C@_00CNPNBAHC@@         0000000180053a83     java.obj
 0002:00011a88       ??_C@_08LLGCOLLL@iostream@ 0000000180053a88     java.obj
 0002:00011a98       ??_C@_0BG@PADBLCHM@iostream?5stream?5error@ 0000000180053a98     java.obj
 0002:00011ab0       ??_C@_0BA@ELKIONDK@bad?5locale?5name@ 0000000180053ab0     java.obj
 0002:00011ac0       ??_C@_05LAPONLG@false@     0000000180053ac0     java.obj
 0002:00011ac8       ??_C@_04LOAJBDKD@true@     0000000180053ac8     java.obj
 0002:00011ad0       ??_C@_0BF@PHHKMMFD@ios_base?3?3badbit?5set@ 0000000180053ad0     java.obj
 0002:00011ae8       ??_C@_0BG@FMKFHCIL@ios_base?3?3failbit?5set@ 0000000180053ae8     java.obj
 0002:00011b00       ??_C@_0BF@OOHOMBOF@ios_base?3?3eofbit?5set@ 0000000180053b00     java.obj
 0002:00011b18       ??_C@_04IEJOJGGI@Java@     0000000180053b18     java.obj
 0002:00011b20       ??_C@_0P@HCMNKIPB@getClassLoader@ 0000000180053b20     java.obj
 0002:00011b30       ??_C@_0M@KHIMJEPP@newInstance@ 0000000180053b30     java.obj
 0002:00011b40       ??_C@_0BA@JOIGHDJC@newInstanceSync@ 0000000180053b40     java.obj
 0002:00011b50       ??_C@_08HEFFFGEH@newProxy@ 0000000180053b50     java.obj
 0002:00011b60       ??_C@_0BB@LOMKMAFJ@callStaticMethod@ 0000000180053b60     java.obj
 0002:00011b78       ??_C@_0BF@FPHLPDGE@callStaticMethodSync@ 0000000180053b78     java.obj
 0002:00011b90       ??_C@_0L@JDEHCHCN@callMethod@ 0000000180053b90     java.obj
 0002:00011ba0       ??_C@_0P@NMHJLIPJ@callMethodSync@ 0000000180053ba0     java.obj
 0002:00011bb0       ??_C@_0O@BEODJHBB@findClassSync@ 0000000180053bb0     java.obj
 0002:00011bc0       ??_C@_08NFLJAME@newArray@  0000000180053bc0     java.obj
 0002:00011bd0       ??_C@_07OPGDHHHF@newByte@  0000000180053bd0     java.obj
 0002:00011bd8       ??_C@_08GAKIFAFB@newShort@ 0000000180053bd8     java.obj
 0002:00011be8       ??_C@_07GKGIFHD@newLong@   0000000180053be8     java.obj
 0002:00011bf0       ??_C@_07CFMIILDC@newChar@  0000000180053bf0     java.obj
 0002:00011bf8       ??_C@_08NIFDHIJA@newFloat@ 0000000180053bf8     java.obj
 0002:00011c08       ??_C@_09NDIGOOFM@newDouble@ 0000000180053c08     java.obj
 0002:00011c18       ??_C@_0BE@NNFJNPLG@getStaticFieldValue@ 0000000180053c18     java.obj
 0002:00011c30       ??_C@_0BE@HDHCJPMK@setStaticFieldValue@ 0000000180053c30     java.obj
 0002:00011c48       ??_C@_0L@BEMPJHBM@instanceOf@ 0000000180053c48     java.obj
 0002:00011c58       ??_C@_09FEBBBODM@classpath@ 0000000180053c58     java.obj
 0002:00011c68       ??_C@_07FOPBDDAL@options@  0000000180053c68     java.obj
 0002:00011c70       ??_C@_07FGLBLJOD@Not?5Set@ 0000000180053c70     java.obj
 0002:00011c78       ??_C@_0BG@HMBHKPAI@nativeBindingLocation@ 0000000180053c78     java.obj
 0002:00011c90       ??_C@_0N@GCMPHNLN@asyncOptions@ 0000000180053c90     java.obj
 0002:00011ca0       ??_C@_04FMMAIMKB@Sync@     0000000180053ca0     java.obj
 0002:00011cb0       ??_C@_1IA@LBGKICJK@?$AAE?$AA?3?$AA?2?$AAD?$AAe?$AAs?$AAk?$AAt?$AAo?$AAp?$AA?2?$AAp?$AAr?$AAo?$AAj@ 0000000180053cb0     java.obj
 0002:00011d30       ??_C@_1CC@NBFFNICJ@?$AAr?$AAe?$AAs?$AAu?$AAl?$AAt?$AA?9?$AA?$DO?$AAI?$AAs?$AAN?$AAu?$AAl?$AAl?$AA?$CI@ 0000000180053d30     java.obj
 0002:00011d58       ??_C@_07MALOAKCI@invalid@  0000000180053d58     java.obj
 0002:00011d60       ??_C@_0L@NCCMGPOG@syncSuffix@ 0000000180053d60     java.obj
 0002:00011d70       ??_C@_0M@HBIJDIAC@asyncSuffix@ 0000000180053d70     java.obj
 0002:00011d80       ??_C@_0O@ECNPOMLK@promiseSuffix@ 0000000180053d80     java.obj
 0002:00011d90       ??_C@_09LCMDGPFJ@promisify@ 0000000180053d90     java.obj
 0002:00011da0       ??_C@_0CK@LPEAKICD@asyncOptions?4promisify?5must?5be?5@ 0000000180053da0     java.obj
 0002:00011dd0       ??_C@_1DA@LHHBPKPC@?$AAp?$AAr?$AAo?$AAm?$AAi?$AAs?$AAi?$AAf?$AAy?$AA?9?$AA?$DO?$AAI?$AAs?$AAF?$AAu@ 0000000180053dd0     java.obj
 0002:00011e00       ??_C@_1DM@JCMNABMN@?$AAm?$AA_?$AAS?$AAy?$AAn?$AAc?$AAS?$AAu?$AAf?$AAf?$AAi?$AAx?$AA?5?$AA?$CB?$AA?$DN@ 0000000180053e00     java.obj
 0002:00011e40       ??_C@_1EA@EPKEJAMA@?$AAm?$AA_?$AAS?$AAy?$AAn?$AAc?$AAS?$AAu?$AAf?$AAf?$AAi?$AAx?$AA?5?$AA?$CB?$AA?$DN@ 0000000180053e40     java.obj
 0002:00011e80       ??_C@_1EC@HFICELCO@?$AAm?$AA_?$AAA?$AAs?$AAy?$AAn?$AAc?$AAS?$AAu?$AAf?$AAf?$AAi?$AAx?$AA?5?$AA?$CB@ 0000000180053e80     java.obj
 0002:00011ec8       ??_C@_0BD@HCEIMOC@?9Djava?4class?4path?$DN@ 0000000180053ec8     java.obj
 0002:00011ee0       ??_C@_0BL@GDBAJBF@Classpath?5must?5be?5an?5array@ 0000000180053ee0     java.obj
 0002:00011efc       ??_C@_01ICJEACDI@?$DL@     0000000180053efc     java.obj
 0002:00011f00       ??_C@_0CE@KMKKCBKL@Classpath?5must?5only?5contain?5str@ 0000000180053f00     java.obj
 0002:00011f28       ??_C@_0BJ@GDEDNOJE@options?5must?5be?5an?5array@ 0000000180053f28     java.obj
 0002:00011f48       ??_C@_0CC@PCJCBFEJ@options?5must?5only?5contain?5strin@ 0000000180053f48     java.obj
 0002:00011f70       ??_C@_0N@PBKJIPPM@onJvmCreated@ 0000000180053f70     java.obj
 0002:00011f80       ??_C@_0BK@JNPFHPGF@Invalid?5call?5to?5accessor?5@ 0000000180053f80     java.obj
 0002:00011fa0       ??_C@_0CI@GEBBDOEH@?5after?5calling?5any?5other?5java?5f@ 0000000180053fa0     java.obj
 0002:00011fc8       ??_C@_0M@GLLEEBIE@Cannot?5set?5@ 0000000180053fc8     java.obj
 0002:00011fd8       ??_C@_0BG@HADLBHEN@java?1lang?1ClassLoader@ 0000000180053fd8     java.obj
 0002:00011ff0       ??_C@_0BK@JHGGPLEI@?$CI?$CJLjava?1lang?1ClassLoader?$DL@ 0000000180053ff0     java.obj
 0002:00012010       ??_C@_0BF@JAHFOJGB@getSystemClassLoader@ 0000000180054010     java.obj
 0002:00012028       ??_C@_0BC@KOHJHMGO@?5must?5be?5a?5string@ 0000000180054028     java.obj
 0002:00012040       ??_C@_09CPBLMGMN@Argument?5@ 0000000180054040     java.obj
 0002:00012050       ??_C@_0BG@GJHLFMKD@Could?5not?5find?5class?5@ 0000000180054050     java.obj
 0002:00012070       ??_C@_0ED@IFPPEJAM@?8?5called?5without?5a?5callback?5did@ 0000000180054070     java.obj
 0002:000120b8       ??_C@_0BJ@EGKHNKFO@?$CCConstructor?5for?5class?5?8@ 00000001800540b8     java.obj
 0002:000120d8       ??_C@_0BI@OIDMFLKO@Could?5not?5create?5class?5@ 00000001800540d8     java.obj
 0002:000120f0       ??_C@_0BD@NNKJDKMD@?5must?5be?5an?5object@ 00000001800540f0     java.obj
 0002:00012108       ??_C@_0BL@MGNPHNLH@node?4NodeDynamicProxyClass@ 0000000180054108     java.obj
 0002:00012128       ??_C@_0DC@MDKGGMKP@Could?5not?5create?5class?5node?1Nod@ 0000000180054128     java.obj
 0002:00012160       ??_C@_0BB@DDFKOHA@java?1lang?1Object@ 0000000180054160     java.obj
 0002:00012180       ??_C@_0EA@BECNBOMM@Could?5not?5find?5constructor?5for?5@ 0000000180054180     java.obj
 0002:000121c0       ??_C@_0BO@OHICDEOH@java?1lang?1reflect?1Constructor@ 00000001800541c0     java.obj
 0002:000121e0       ??_C@_0CI@PPOKABKL@?$CI?$FLLjava?1lang?1Object?$DL?$CJLjava?1lang@ 00000001800541e0     java.obj
 0002:00012208       ??_C@_0BF@GBIDGNFL@Error?5creating?5class@ 0000000180054208     java.obj
 0002:00012220       ??_C@_0BK@FBCLGGGJ@Could?5not?5find?5interface?5@ 0000000180054220     java.obj
 0002:00012240       ??_C@_0BA@JJLOPNCP@java?1lang?1Class@ 0000000180054240     java.obj
 0002:00012250       ??_C@_0CH@HIJNACCB@Could?5not?5create?5class?5array?5fo@ 0000000180054250     java.obj
 0002:00012278       ??_C@_1M@HLGKFCJM@?$AAf?$AAa?$AAl?$AAs?$AAe@ 0000000180054278     java.obj
 0002:00012288       ??_C@_0BE@IIFEGCLG@?$CI?$CJLjava?1lang?1Class?$DL@ 0000000180054288     java.obj
 0002:000122a0       ??_C@_08KFOJNDAP@getClass@ 00000001800542a0     java.obj
 0002:000122b0       ??_C@_0CE@IEAMKNOO@Could?5not?5get?5classloader?5for?5P@ 00000001800542b0     java.obj
 0002:000122d8       ??_C@_0BI@DHIEFHKE@java?1lang?1reflect?1Proxy@ 00000001800542d8     java.obj
 0002:000122f0       ??_C@_0GD@GHAHJLBB@?$CILjava?1lang?1ClassLoader?$DL?$FLLjava?1@ 00000001800542f0     java.obj
 0002:00012358       ??_C@_0BB@OEJPHONA@newProxyInstance@ 0000000180054358     java.obj
 0002:00012370       ??_C@_0CH@HGJMIEIM@Error?5creating?5java?4lang?4reflec@ 0000000180054370     java.obj
 0002:00012398       ??_C@_0BB@HNDIHHHF@?$CCStatic?5method?5?8@ 0000000180054398     java.obj
 0002:000123b0       ??_C@_09NDNEIBAK@?$CCmethod?5?8@ 00000001800543b0     java.obj
 0002:000123c0       ??_C@_0BC@ILENGEMP@?5must?5be?5an?5array@ 00000001800543c0     java.obj
 0002:000123d4       ??_C@_04IHGKJMLH@byte@     00000001800543d4     java.obj
 0002:000123e0       ??_C@_0P@CCHCOPNE@java?1lang?1Byte@ 00000001800543e0     java.obj
 0002:000123f0       ??_C@_03EOOOPHNK@?$CI?$CJB@ 00000001800543f0     java.obj
 0002:000123f8       ??_C@_09CBDGACJH@byteValue@ 00000001800543f8     java.obj
 0002:00012404       ??_C@_04ENMBGAPA@char@     0000000180054404     java.obj
 0002:00012410       ??_C@_0BB@FLFAIHG@java?1lang?1String@ 0000000180054410     java.obj
 0002:00012424       ??_C@_04MCLIBKDJ@?$CII?$CJC@ 0000000180054424     java.obj
 0002:0001242c       ??_C@_06GDAFJGCB@charAt@   000000018005442c     java.obj
 0002:00012434       ??_C@_05BFKKPKCG@short@    0000000180054434     java.obj
 0002:00012440       ??_C@_0BA@MBLENCLH@java?1lang?1Short@ 0000000180054440     java.obj
 0002:00012450       ??_C@_03BNDHNEMK@?$CI?$CJS@ 0000000180054450     java.obj
 0002:00012458       ??_C@_0L@BMFNKDA@shortValue@ 0000000180054458     java.obj
 0002:00012464       ??_C@_06BNJCAIGJ@double@   0000000180054464     java.obj
 0002:00012470       ??_C@_0BB@JKEOLFJD@java?1lang?1Double@ 0000000180054470     java.obj
 0002:00012484       ??_C@_03BILEFAFM@?$CI?$CJD@ 0000000180054484     java.obj
 0002:00012488       ??_C@_0M@BFKIPFKE@doubleValue@ 0000000180054488     java.obj
 0002:00012494       ??_C@_03JBIPMCLC@int@      0000000180054494     java.obj
 0002:00012498       ??_C@_0BC@OHJKABOO@java?1lang?1Integer@ 0000000180054498     java.obj
 0002:000124ac       ??_C@_03KNBKCOBB@?$CI?$CJI@ 00000001800544ac     java.obj
 0002:000124b0       ??_C@_08HBLFFCOK@intValue@ 00000001800544b0     java.obj
 0002:000124bc       ??_C@_05KNFBNCOH@float@    00000001800544bc     java.obj
 0002:000124c8       ??_C@_0BA@HJEPPKHG@java?1lang?1Float@ 00000001800544c8     java.obj
 0002:000124d8       ??_C@_03CKICDCNO@?$CI?$CJF@ 00000001800544d8     java.obj
 0002:000124e0       ??_C@_0L@CFLLCEAL@floatValue@ 00000001800544e0     java.obj
 0002:000124f0       ??_C@_07GOBOHMJA@boolean@  00000001800544f0     java.obj
 0002:000124f8       ??_C@_0BC@DDPBLLCP@java?1lang?1Boolean@ 00000001800544f8     java.obj
 0002:0001250c       ??_C@_03MMPFGPID@?$CI?$CJZ@ 000000018005450c     java.obj
 0002:00012510       ??_C@_0N@FIOMDIJC@booleanValue@ 0000000180054510     java.obj
 0002:00012520       ??_C@_0M@EIDGGIEA@?$CC?5to?5array?4@ 0000000180054520     java.obj
 0002:00012530       ??_C@_0BF@OHBAIGFN@Could?5not?5add?5item?5?$CC@ 0000000180054530     java.obj
 0002:00012548       ??_C@_0BO@IBNPLJEO@newByte?5only?5takes?51?5argument@ 0000000180054548     java.obj
 0002:00012568       ??_C@_0BM@NALPIJKI@Argument?51?5must?5be?5a?5number@ 0000000180054568     java.obj
 0002:00012584       ??_C@_04CCAMHLCM@?$CIB?$CJV@ 0000000180054584     java.obj
 0002:0001258c       ??_C@_06FALKBLGB@?$DMinit?$DO@ 000000018005458c     java.obj
 0002:00012598       ??_C@_0BP@BODLCONB@newShort?5only?5takes?51?5argument@ 0000000180054598     java.obj
 0002:000125b8       ??_C@_04MKKJELNG@?$CIS?$CJV@ 00000001800545b8     java.obj
 0002:000125c0       ??_C@_0BO@FHMJOKEB@newLong?5only?5takes?51?5argument@ 00000001800545c0     java.obj
 0002:000125e0       ??_C@_0P@MLLHBNNC@java?1lang?1Long@ 00000001800545e0     java.obj
 0002:000125f0       ??_C@_04OHLIFDMD@?$CIJ?$CJV@ 00000001800545f0     java.obj
 0002:000125f8       ??_C@_0BO@OKEOOKDB@newChar?5only?5takes?51?5argument@ 00000001800545f8     java.obj
 0002:00012618       ??_C@_0CM@KIHAAOLC@Argument?51?5must?5be?5a?5string?5of?5@ 0000000180054618     java.obj
 0002:00012648       ??_C@_0CG@LFMFPHFN@Argument?51?5must?5be?5a?5number?5or?5@ 0000000180054648     java.obj
 0002:00012670       ??_C@_0BE@GKIHCGPM@java?1lang?1Character@ 0000000180054670     java.obj
 0002:00012684       ??_C@_04JKLABMEJ@?$CIC?$CJV@ 0000000180054684     java.obj
 0002:00012690       ??_C@_0BP@OLNAMBA@newFloat?5only?5takes?51?5argument@ 0000000180054690     java.obj
 0002:000126b0       ??_C@_04KNGOOMHL@?$CIF?$CJV@ 00000001800546b0     java.obj
 0002:000126b8       ??_C@_0CA@NOCEFBLN@newDouble?5only?5takes?51?5argument@ 00000001800546b8     java.obj
 0002:000126d8       ??_C@_04HGHCEPA@?$CID?$CJV@ 00000001800546d8     java.obj
 0002:000126e0       ??_C@_01BJJEKLCA@?$CC@     00000001800546e0     java.obj
 0002:000126e8       ??_C@_0N@DMLGIADO@?$CC?5on?5class?5?$CC@ 00000001800546e8     java.obj
 0002:000126f8       ??_C@_0BH@EGDDMDIO@Could?5not?5find?5field?5?$CC@ 00000001800546f8     java.obj
 0002:00012710       ??_C@_0BI@HOMFJHGF@java?1lang?1reflect?1Field@ 0000000180054710     java.obj
 0002:00012728       ??_C@_0CH@JHKCBJOB@?$CILjava?1lang?1Object?$DL?$CJLjava?1lang?1@ 0000000180054728     java.obj
 0002:00012750       ??_C@_03HNAFFKGA@get@      0000000180054750     java.obj
 0002:00012758       ??_C@_0L@IEFMJMCE@?5on?5class?5@ 0000000180054758     java.obj
 0002:00012768       ??_C@_0BF@PILOCEAG@Could?5not?5get?5field?5@ 0000000180054768     java.obj
 0002:00012780       ??_C@_0L@PPEBJNMH@?5arguments@ 0000000180054780     java.obj
 0002:00012790       ??_C@_0BO@JGBICHGA@setStaticFieldValue?5requires?5@ 0000000180054790     java.obj
 0002:000127b0       ??_C@_0CI@PCHNGLLD@?$CILjava?1lang?1Object?$DLLjava?1lang?1O@ 00000001800547b0     java.obj
 0002:000127d8       ??_C@_03KCHOJKKI@set@      00000001800547d8     java.obj
 0002:000127e0       ??_C@_0BF@OGJBJDEP@Could?5not?5set?5field?5@ 00000001800547e0     java.obj
 0002:000127f8       ??_C@_0CA@EJBFMCPI@java?1lang?1IllegalStateException@ 00000001800547f8     java.obj
 0002:00012818       ??_C@_0DB@OGILFKDO@Could?5not?5retrieve?5JNIEnv?3?5jvm?9@ 0000000180054818     java.obj
 0002:00012850       ??_C@_0BM@LKJNLDJK@java?1lang?1NoSuchMethodError@ 0000000180054850     java.obj
 0002:00012870       ??_C@_0BM@PDEBOCEF@Could?5not?5find?5js?5function?5@ 0000000180054870     java.obj
 0002:00012890       ??_C@_0BD@JJHMIGBM@?5is?5not?5a?5function@ 0000000180054890     java.obj
 0002:000128a8       ??_C@_0BF@FKKIDFOE@node?1NodeJsException@ 00000001800548a8     java.obj
 0002:000128c0       ??_C@_0BJ@JHEFKMOG@java?1lang?1reflect?1Method@ 00000001800548c0     java.obj
 0002:000128e0       ??_C@_0BF@FOHFOJOB@?$CI?$CJLjava?1lang?1String?$DL@ 00000001800548e0     java.obj
 0002:000128f8       ??_C@_07DFBCBEHO@getName@  00000001800548f8     java.obj
 0002:00012900       ??_C@_0BP@OHGCKAMB@dynamicProxyData?5was?5corrupted@ 0000000180054900     java.obj
 0002:00012920       ??_C@_02BBAHNLBA@?$CFp@    0000000180054920     java.obj
 0002:00012924       ??_C@_02MDKMJEGG@eE@       0000000180054924     java.obj
 0002:00012928       ??_C@_02OOPEBDOJ@pP@       0000000180054928     java.obj
 0002:00012930       ??_C@_0BI@CFPLBAOH@invalid?5string?5position@ 0000000180054930     java.obj
 0002:00012948       ??_C@_1CE@LNAGEONJ@?$AA?$CB?$AAo?$AAb?$AAj?$AAe?$AAc?$AAt?$AA?4?$AAI?$AAs?$AAE?$AAm?$AAp?$AAt?$AAy@ 0000000180054948     java.obj
 0002:00012970       ??_7?$basic_streambuf@DU?$char_traits@D@std@@@std@@6B@ 0000000180054970     java.obj
 0002:000129e8       ??_7?$basic_ostringstream@DU?$char_traits@D@std@@V?$allocator@D@2@@std@@6B@ 00000001800549e8     java.obj
 0002:000129f0       ??_7_Iostream_error_category@std@@6B@ 00000001800549f0     java.obj
 0002:00012a20       ??_7ios_base@std@@6B@      0000000180054a20     java.obj
 0002:00012a28       ??_7?$basic_ios@DU?$char_traits@D@std@@@std@@6B@ 0000000180054a28     java.obj
 0002:00012a30       ??_7Java@@6B@              0000000180054a30     java.obj
 0002:00012a48       ??_7exception@stdext@@6B@  0000000180054a48     java.obj
 0002:00012a60       ??_7?$basic_stringbuf@DU?$char_traits@D@std@@V?$allocator@D@2@@std@@6B@ 0000000180054a60     java.obj
 0002:00012ad8       ??_7ObjectWrap@Nan@@6B@    0000000180054ad8     java.obj
 0002:00012af0       ??_8?$basic_ostringstream@DU?$char_traits@D@std@@V?$allocator@D@2@@std@@7B@ 0000000180054af0     java.obj
 0002:00012af8       ??_7?$basic_ostream@DU?$char_traits@D@std@@@std@@6B@ 0000000180054af8     java.obj
 0002:00012b00       ??_7failure@ios_base@std@@6B@ 0000000180054b00     java.obj
 0002:00012b18       ??_C@_09ONFNEIAH@nodeJava_@ 0000000180054b18     javaObject.obj
 0002:00012b30       ??_C@_1IM@BIGEBLMG@?$AAE?$AA?3?$AA?2?$AAD?$AAe?$AAs?$AAk?$AAt?$AAo?$AAp?$AA?2?$AAp?$AAr?$AAo?$AAj@ 0000000180054b30     javaObject.obj
 0002:00012bc0       ??_C@_0FI@MKACDPJI@Promisified?5result?5is?5not?5a?5fun@ 0000000180054bc0     javaObject.obj
 0002:00012c18       ??_C@_1CK@EKGLLGJA@?$AAr?$AAe?$AAs?$AAu?$AAl?$AAt?$AA?9?$AA?$DO?$AAI?$AAs?$AAF?$AAu?$AAn?$AAc?$AAt@ 0000000180054c18     javaObject.obj
 0002:00012c48       ??_C@_07LJDBDAGJ@isArray@  0000000180054c48     javaObject.obj
 0002:00012c50       ??_C@_06IJDLPEM@length@    0000000180054c50     javaObject.obj
 0002:00012c58       ??_C@_0P@OFONBJKG@__isJavaObject@ 0000000180054c58     javaObject.obj
 0002:00012c68       ??_C@_08JCDFGHAO@toString@ 0000000180054c68     javaObject.obj
 0002:00012c78       ??_C@_09FBCFADKJ@?$CCMethod?5?8@ 0000000180054c78     javaObject.obj
 0002:00012c88       ??_C@_0BI@EOIKJBCH@java?1lang?1reflect?1Array@ 0000000180054c88     javaObject.obj
 0002:00012ca0       ??_C@_0BG@FGABBFAG@?$CILjava?1lang?1Object?$DL?$CJI@ 0000000180054ca0     javaObject.obj
 0002:00012cb8       ??_C@_09LEBNHFFA@getLength@ 0000000180054cb8     javaObject.obj
 0002:00012cc8       ??_C@_09JKMDKKLK@?$CC?5for?5get@ 0000000180054cc8     javaObject.obj
 0002:00012cd8       ??_C@_09EFLIGKHC@?$CC?5for?5set@ 0000000180054cd8     javaObject.obj
 0002:00012ce8       ??_C@_0CI@PKDEJHEG@?$CILjava?1lang?1Object?$DLI?$CJLjava?1lang@ 0000000180054ce8     javaObject.obj
 0002:00012d10       ??_C@_0BB@DFKFAGDA@NodeDynamicProxy@ 0000000180054d10     javaObject.obj
 0002:00012d24       ??_C@_05IPFNKGPP@unref@    0000000180054d24     javaObject.obj
 0002:00012d30       ??_C@_0BC@BPPNNGGK@invocationHandler@ 0000000180054d30     javaObject.obj
 0002:00012d48       ??_C@_0DB@KMIGNHOM@dynamicProxyData?5has?5been?5destr@ 0000000180054d48     javaObject.obj
 0002:00012d80       ??_C@_0BE@JONHPENG@map?1set?$DMT?$DO?5too?5long@ 0000000180054d80     javaObject.obj
 0002:00012d98       ??_7JavaObject@@6B@        0000000180054d98     javaObject.obj
 0002:00012db8       __pfnDliNotifyHook2        0000000180054db8     win_delay_load_hook.obj
 0002:00012dc0       ??_7JavaProxyObject@@6B@   0000000180054dc0     javaObject.obj
 0002:00012dd8       ??_C@_0DK@ELCNEEJD@?$CILjava?1lang?1Object?$DL?$FLLjava?1lang?1@ 0000000180054dd8     methodCallBaton.obj
 0002:00012e14       ??_C@_06HJMAOIE@invoke@    0000000180054e14     methodCallBaton.obj
 0002:00012e20       ??_C@_0CM@KCHFLGBC@java?1lang?1reflect?1InvocationTar@ 0000000180054e20     methodCallBaton.obj
 0002:00012e50       ??_C@_0BE@ILKHHCBH@java?1lang?1Throwable@ 0000000180054e50     methodCallBaton.obj
 0002:00012e68       ??_C@_0BI@MHHHDDEP@?$CI?$CJLjava?1lang?1Throwable?$DL@ 0000000180054e68     methodCallBaton.obj
 0002:00012e80       ??_C@_08JOJKGCKB@getCause@ 0000000180054e80     methodCallBaton.obj
 0002:00012e90       ??_C@_0BM@IDACNFLH@Error?5running?5static?5method@ 0000000180054e90     methodCallBaton.obj
 0002:00012eb0       ??_C@_0BO@NIIMBLJB@Error?5running?5instance?5method@ 0000000180054eb0     methodCallBaton.obj
 0002:00012ed0       ??_7AsyncWorker@Nan@@6B@   0000000180054ed0     methodCallBaton.obj
 0002:00012f00       ??_7NewInstanceBaton@@6B@  0000000180054f00     methodCallBaton.obj
 0002:00012f38       ??_7InstanceMethodCallBaton@@6B@ 0000000180054f38     methodCallBaton.obj
 0002:00012f70       ??_7StaticMethodCallBaton@@6B@ 0000000180054f70     methodCallBaton.obj
 0002:00012fa8       ??_7MethodCallBaton@@6B@   0000000180054fa8     methodCallBaton.obj
 0002:00012fe0       ??_C@_0EK@BAFEGGNF@E?3?2Desktop?2project?2KineticModel@ 0000000180054fe0     nodeJavaBridge.obj
 0002:00013030       ??_C@_0BI@KKFJMJIL@nodejavabridge_bindings@ 0000000180055030     nodeJavaBridge.obj
 0002:00013048       ??_C@_0BO@GAAAGEBD@?$CI?$CJ?$FLLjava?1lang?1reflect?1Method?$DL@ 0000000180055048     utils.obj
 0002:00013068       ??_C@_0L@NHIPJPM@getMethods@ 0000000180055068     utils.obj
 0002:00013078       ??_C@_0N@MKAAFCEB@getModifiers@ 0000000180055078     utils.obj
 0002:00013090       ??_C@_1IC@FBLELPFE@?$AAE?$AA?3?$AA?2?$AAD?$AAe?$AAs?$AAk?$AAt?$AAo?$AAp?$AA?2?$AAp?$AAr?$AAo?$AAj@ 0000000180055090     utils.obj
 0002:00013118       ??_C@_0CD@HPPKIBKM@?$CI?$CJ?$FLLjava?1lang?1reflect?1Construct@ 0000000180055118     utils.obj
 0002:00013140       ??_C@_0BA@FPKBDKMK@getConstructors@ 0000000180055140     utils.obj
 0002:00013150       ??_C@_0BN@JHLADMCF@?$CI?$CJ?$FLLjava?1lang?1reflect?1Field?$DL@ 0000000180055150     utils.obj
 0002:00013170       ??_C@_09HCGODEJP@getFields@ 0000000180055170     utils.obj
 0002:00013180       ??_C@_0BH@BOKGLNMJ@?$CILjava?1lang?1String?$DL?$CJ?$FLB@ 0000000180055180     utils.obj
 0002:00013198       ??_C@_08LJNJGADH@getBytes@ 0000000180055198     utils.obj
 0002:000131a4       ??_C@_05EGJIMALK@UTF?98@   00000001800551a4     utils.obj
 0002:000131ac       ??_C@_06OJHGLDPL@?$CInull?$CJ@ 00000001800551ac     utils.obj
 0002:000131b4       ??_C@_02KEGNLNML@?0?5@     00000001800551b4     utils.obj
 0002:000131b8       ??_C@_0BB@NOKBFPFO@java?1lang?1Thread@ 00000001800551b8     utils.obj
 0002:000131d0       ??_C@_0BF@GLBLFFEM@?$CI?$CJLjava?1lang?1Thread?$DL@ 00000001800551d0     utils.obj
 0002:000131e8       ??_C@_0O@GIDKOGNF@currentThread@ 00000001800551e8     utils.obj
 0002:000131f8       ??_C@_0BL@GCEILBB@?$CILjava?1lang?1ClassLoader?$DL?$CJV@ 00000001800551f8     utils.obj
 0002:00013218       ??_C@_0BG@PPOLIIH@setContextClassLoader@ 0000000180055218     utils.obj
 0002:00013230       ??_C@_0BG@PKKIGBMG@getContextClassLoader@ 0000000180055230     utils.obj
 0002:00013248       ??_C@_04GKJNKENE@void@     0000000180055248     utils.obj
 0002:00013250       ??_C@_0BK@KMLEMDPN@class?5java?4lang?4Character@ 0000000180055250     utils.obj
 0002:00013270       ??_C@_0BI@GOCPOGEI@class?5java?4lang?4Integer@ 0000000180055270     utils.obj
 0002:00013288       ??_C@_0BH@PMICPDAK@class?5java?4lang?4Double@ 0000000180055288     utils.obj
 0002:000132a0       ??_C@_0BG@LDDCKJKM@class?5java?4lang?4Float@ 00000001800552a0     utils.obj
 0002:000132b8       ??_C@_04GOKPGOLB@long@     00000001800552b8     utils.obj
 0002:000132c0       ??_C@_0BF@MCGENCD@class?5java?4lang?4Long@ 00000001800552c0     utils.obj
 0002:000132d8       ??_C@_0BI@LKEEFMIJ@class?5java?4lang?4Boolean@ 00000001800552d8     utils.obj
 0002:000132f0       ??_C@_0BG@LMJIBGN@class?5java?4lang?4Short@ 00000001800552f0     utils.obj
 0002:00013308       ??_C@_0BF@OFODLPCF@class?5java?4lang?4Byte@ 0000000180055308     utils.obj
 0002:00013320       ??_C@_0BH@GDHJEOOP@class?5java?4lang?4String@ 0000000180055320     utils.obj
 0002:00013338       ??_C@_0BB@MGLBKIHK@java?1lang?1Number@ 0000000180055338     utils.obj
 0002:00013350       ??_C@_0N@CLCHFBGH@__isJavaLong@ 0000000180055350     utils.obj
 0002:00013360       ??_C@_1CE@DEHNJMDN@?$AAt?$AAy?$AAp?$AAe?$AAs?$AA?4?$AAs?$AAi?$AAz?$AAe?$AA?$CI?$AA?$CJ?$AA?5?$AA?$DO?$AA?$DN@ 0000000180055360     utils.obj
 0002:00013390       ??_C@_1EC@JBIDFGFA@?$AAt?$AAy?$AAp?$AAe?$AAs?$AA?4?$AAf?$AAi?$AAn?$AAd?$AA?$CI?$AAk?$AAO?$AAb?$AAj@ 0000000180055390     utils.obj
 0002:000133d4       ??_C@_04PFANPMCN@?$CII?$CJV@ 00000001800553d4     utils.obj
 0002:000133dc       ??_C@_04LHKBAEFM@?$CIZ?$CJV@ 00000001800553dc     utils.obj
 0002:000133e4       ??_C@_03OFAPEBGM@?$CFs?6@  00000001800553e4     utils.obj
 0002:000133e8       ??_C@_09JKMBDFBF@longValue@ 00000001800553e8     utils.obj
 0002:000133f8       ??_C@_0BG@IKDDPPGD@?$CILjava?1lang?1String?$DL?$CJV@ 00000001800553f8     utils.obj
 0002:00013410       ??_C@_0BF@OPJMBACM@java?1io?1StringWriter@ 0000000180055410     utils.obj
 0002:00013428       ??_C@_03GAEACAIP@?$CI?$CJV@ 0000000180055428     utils.obj
 0002:00013430       ??_C@_0BE@GMFCGBAC@java?1io?1PrintWriter@ 0000000180055430     utils.obj
 0002:00013448       ??_C@_0BE@IEKFLDIB@?$CILjava?1io?1Writer?$DL?$CJV@ 0000000180055448     utils.obj
 0002:00013460       ??_C@_0BJ@JMMNOJNF@?$CILjava?1io?1PrintWriter?$DL?$CJV@ 0000000180055460     utils.obj
 0002:00013480       ??_C@_0BA@NEJFEHFG@printStackTrace@ 0000000180055480     utils.obj
 0002:00013490       ??_C@_01EEMJAFIK@?6@       0000000180055490     utils.obj
 0002:00013494       ??_C@_05HGNDGEBA@cause@    0000000180055494     utils.obj
 0002:000134a0       ??_C@_0BB@GHIIKNJ@getComponentType@ 00000001800554a0     utils.obj
 0002:000134b4       ??_C@_03FHPFMGJL@?$CI?$CJC@ 00000001800554b4     utils.obj
 0002:000134b8       ??_C@_09ODGNKCJE@charValue@ 00000001800554b8     utils.obj
 0002:000134c4       ??_C@_03IGDHHNNC@?$CI?$CJJ@ 00000001800554c4     utils.obj
 0002:000134c8       ??_C@_0CC@HDEBHEJH@javaToV8?3?5unhandled?5type?3?50x?$CF03@ 00000001800554c8     utils.obj
 0002:000134ec       ??_C@_01ODHLEDKK@?$CI@     00000001800554ec     utils.obj
 0002:000134f0       ??_C@_0DG@GJAOEIKK@nodejava?1org?1apache?1commons?1lan@ 00000001800554f0     utils.obj
 0002:00013530       ??_C@_0FC@PLMANFDB@?$CILjava?1lang?1Class?$DLLjava?1lang?1St@ 0000000180055530     utils.obj
 0002:00013588       ??_C@_0BM@KLLOCMKC@getMatchingAccessibleMethod@ 0000000180055588     utils.obj
 0002:000135a8       ??_C@_0BC@NHNODMEK@node?1CastingUtils@ 00000001800555a8     utils.obj
 0002:000135c0       ??_C@_0DB@LKEFMBF@?$CILjava?1lang?1reflect?1Method?$DL?$FLLja@ 00000001800555c0     utils.obj
 0002:000135f4       ??_C@_04HJDBPPOC@cast@     00000001800555f4     utils.obj
 0002:00013600       ??_C@_0DL@LAHEDPIC@nodejava?1org?1apache?1commons?1lan@ 0000000180055600     utils.obj
 0002:00013640       ??_C@_0EF@DDHPEOHK@?$CILjava?1lang?1Class?$DL?$FLLjava?1lang?1C@ 0000000180055640     utils.obj
 0002:00013688       ??_C@_0CB@GNMKJJJL@getMatchingAccessibleConstructo@ 0000000180055688     utils.obj
 0002:000136b0       ??_C@_0IE@LFMLHMEJ@?$CK?$CK?$CK?5ERROR?3?5Lost?5reference?5to?5th@ 00000001800556b0     utils.obj
 0002:00013738       ??_C@_0BI@ECBEKPCP@Could?5not?5find?5method?5?$CC@ 0000000180055738     utils.obj
 0002:00013750       ??_C@_02DAHALNEP@?$CC?4@   0000000180055750     utils.obj
 0002:00013758       ??_C@_0O@IBELDIOD@?$CJ?$CC?5on?5class?5?$CC@ 0000000180055758     utils.obj
 0002:00013768       ??_C@_0BE@HNNKNCJM@?5Possible?5matches?3?6@ 0000000180055768     utils.obj
 0002:00013780       ??_C@_0BJ@IEAHIJHA@java?1lang?1reflect?1Member@ 0000000180055780     utils.obj
 0002:0001379c       ??_C@_02KNHHEEKP@?5?5@     000000018005579c     utils.obj
 0002:000137a0       ??_C@_0BM@CDJHICIL@?5No?5methods?5with?5that?5name?4@ 00000001800557a0     utils.obj
 0002:000137c0       ??_C@_0N@MBJOAELC@node?1VarArgs@ 00000001800557c0     utils.obj
 0002:000137d0       ??_C@_0ED@LLJBLECN@?$CILjava?1lang?1reflect?1Method?$DL?$FLLja@ 00000001800557d0     utils.obj
 0002:00013818       ??_C@_0L@GCFLGPOB@getVarArgs@ 0000000180055818     utils.obj
 0002:00013830       ??_C@_0EI@DJOPIEPP@?$CILjava?1lang?1reflect?1Constructor@ 0000000180055830     utils.obj
 0002:00013878       ??_C@_0BB@MOGOBHAF@list?$DMT?$DO?5too?5long@ 0000000180055878     utils.obj
 0002:00013890       ??_C@_08JDDNMFDB@node?4exe@ 0000000180055890     win_delay_load_hook.obj
 0002:000138a0       __real@4202a05f20000000    00000001800558a0     java.obj
 0002:000138b0       __xmm@000000000000000f0000000000000000 00000001800558b0     java.obj
 0002:000138c0       __xmm@7fffffffffffffff7fffffffffffffff 00000001800558c0     java.obj
 0002:00013928       ??_R4exception@std@@6B@    0000000180055928     libcpmt:xonce.obj
 0002:00013950       ??_R3exception@std@@8      0000000180055950     libcpmt:xonce.obj
 0002:00013968       ??_R2exception@std@@8      0000000180055968     libcpmt:xonce.obj
 0002:00013978       ??_R1A@?0A@EA@exception@std@@8 0000000180055978     libcpmt:xonce.obj
 0002:000139a0       ??_R4runtime_error@std@@6B@ 00000001800559a0     libcpmt:xonce.obj
 0002:000139c8       ??_R3runtime_error@std@@8  00000001800559c8     libcpmt:xonce.obj
 0002:000139e0       ??_R2runtime_error@std@@8  00000001800559e0     libcpmt:xonce.obj
 0002:000139f8       ??_R1A@?0A@EA@runtime_error@std@@8 00000001800559f8     libcpmt:xonce.obj
 0002:00013a20       ??_R4_System_error@std@@6B@ 0000000180055a20     libcpmt:xonce.obj
 0002:00013a48       ??_R3_System_error@std@@8  0000000180055a48     libcpmt:xonce.obj
 0002:00013a60       ??_R2_System_error@std@@8  0000000180055a60     libcpmt:xonce.obj
 0002:00013a80       ??_R1A@?0A@EA@_System_error@std@@8 0000000180055a80     libcpmt:xonce.obj
 0002:00013aa8       ??_R4bad_alloc@std@@6B@    0000000180055aa8     libcpmt:xthrow.obj
 0002:00013ad0       ??_R3bad_alloc@std@@8      0000000180055ad0     libcpmt:xthrow.obj
 0002:00013ae8       ??_R2bad_alloc@std@@8      0000000180055ae8     libcpmt:xthrow.obj
 0002:00013b00       ??_R1A@?0A@EA@bad_alloc@std@@8 0000000180055b00     libcpmt:xthrow.obj
 0002:00013b28       ??_R4logic_error@std@@6B@  0000000180055b28     libcpmt:xthrow.obj
 0002:00013b50       ??_R3logic_error@std@@8    0000000180055b50     libcpmt:xthrow.obj
 0002:00013b68       ??_R2logic_error@std@@8    0000000180055b68     libcpmt:xthrow.obj
 0002:00013b80       ??_R1A@?0A@EA@logic_error@std@@8 0000000180055b80     libcpmt:xthrow.obj
 0002:00013ba8       ??_R4length_error@std@@6B@ 0000000180055ba8     libcpmt:xthrow.obj
 0002:00013bd0       ??_R3length_error@std@@8   0000000180055bd0     libcpmt:xthrow.obj
 0002:00013be8       ??_R2length_error@std@@8   0000000180055be8     libcpmt:xthrow.obj
 0002:00013c08       ??_R1A@?0A@EA@length_error@std@@8 0000000180055c08     libcpmt:xthrow.obj
 0002:00013c30       ??_R4out_of_range@std@@6B@ 0000000180055c30     libcpmt:xthrow.obj
 0002:00013c58       ??_R3out_of_range@std@@8   0000000180055c58     libcpmt:xthrow.obj
 0002:00013c70       ??_R2out_of_range@std@@8   0000000180055c70     libcpmt:xthrow.obj
 0002:00013c90       ??_R1A@?0A@EA@out_of_range@std@@8 0000000180055c90     libcpmt:xthrow.obj
 0002:00013cb8       ??_R4_Facet_base@std@@6B@  0000000180055cb8     libcpmt:locale0.obj
 0002:00013ce0       ??_R3_Facet_base@std@@8    0000000180055ce0     libcpmt:locale0.obj
 0002:00013cf8       ??_R2_Facet_base@std@@8    0000000180055cf8     libcpmt:locale0.obj
 0002:00013d08       ??_R1A@?0A@EA@_Facet_base@std@@8 0000000180055d08     libcpmt:locale0.obj
 0002:00013d30       ??_R4_Locimp@locale@std@@6B@ 0000000180055d30     libcpmt:locale0.obj
 0002:00013d58       ??_R3_Locimp@locale@std@@8 0000000180055d58     libcpmt:locale0.obj
 0002:00013d70       ??_R2_Locimp@locale@std@@8 0000000180055d70     libcpmt:locale0.obj
 0002:00013d98       ??_R1A@?0A@EA@_Locimp@locale@std@@8 0000000180055d98     libcpmt:locale0.obj
 0002:00013dc0       ??_R1A@?0A@EA@facet@locale@std@@8 0000000180055dc0     libcpmt:locale0.obj
 0002:00013de8       ??_R3facet@locale@std@@8   0000000180055de8     libcpmt:locale0.obj
 0002:00013e00       ??_R2facet@locale@std@@8   0000000180055e00     libcpmt:locale0.obj
 0002:00013e20       ??_R17?0A@EA@_Crt_new_delete@std@@8 0000000180055e20     libcpmt:locale0.obj
 0002:00013e48       ??_R3_Crt_new_delete@std@@8 0000000180055e48     libcpmt:locale0.obj
 0002:00013e60       ??_R2_Crt_new_delete@std@@8 0000000180055e60     libcpmt:locale0.obj
 0002:00013e70       ??_R1A@?0A@EA@_Crt_new_delete@std@@8 0000000180055e70     libcpmt:locale0.obj
 0002:00013e98       ??_R3ctype_base@std@@8     0000000180055e98     libcpmt:locale.obj
 0002:00013eb0       ??_R2ctype_base@std@@8     0000000180055eb0     libcpmt:locale.obj
 0002:00013ed8       ??_R1A@?0A@EA@ctype_base@std@@8 0000000180055ed8     libcpmt:locale.obj
 0002:00013f00       ??_R4?$ctype@D@std@@6B@    0000000180055f00     libcpmt:locale.obj
 0002:00013f28       ??_R3?$ctype@D@std@@8      0000000180055f28     libcpmt:locale.obj
 0002:00013f40       ??_R2?$ctype@D@std@@8      0000000180055f40     libcpmt:locale.obj
 0002:00013f70       ??_R1A@?0A@EA@?$ctype@D@std@@8 0000000180055f70     libcpmt:locale.obj
 0002:00013f98       ??_R4?$num_put@DV?$ostreambuf_iterator@DU?$char_traits@D@std@@@std@@@std@@6B@ 0000000180055f98     libcpmt:locale.obj
 0002:00013fc0       ??_R3?$num_put@DV?$ostreambuf_iterator@DU?$char_traits@D@std@@@std@@@std@@8 0000000180055fc0     libcpmt:locale.obj
 0002:00013fd8       ??_R2?$num_put@DV?$ostreambuf_iterator@DU?$char_traits@D@std@@@std@@@std@@8 0000000180055fd8     libcpmt:locale.obj
 0002:00014000       ??_R1A@?0A@EA@?$num_put@DV?$ostreambuf_iterator@DU?$char_traits@D@std@@@std@@@std@@8 0000000180056000     libcpmt:locale.obj
 0002:00014028       ??_R4?$numpunct@D@std@@6B@ 0000000180056028     libcpmt:locale.obj
 0002:00014050       ??_R3?$numpunct@D@std@@8   0000000180056050     libcpmt:locale.obj
 0002:00014068       ??_R2?$numpunct@D@std@@8   0000000180056068     libcpmt:locale.obj
 0002:00014090       ??_R1A@?0A@EA@?$numpunct@D@std@@8 0000000180056090     libcpmt:locale.obj
 0002:000140b8       ??_R4type_info@@6B@        00000001800560b8     LIBCMT:std_type_info_static.obj
 0002:000140e0       ??_R3type_info@@8          00000001800560e0     LIBCMT:std_type_info_static.obj
 0002:000140f8       ??_R2type_info@@8          00000001800560f8     LIBCMT:std_type_info_static.obj
 0002:00014108       ??_R1A@?0A@EA@type_info@@8 0000000180056108     LIBCMT:std_type_info_static.obj
 0002:00014130       ??_R4bad_array_new_length@std@@6B@ 0000000180056130     LIBCMT:throw_bad_alloc.obj
 0002:00014158       ??_R3bad_array_new_length@std@@8 0000000180056158     LIBCMT:throw_bad_alloc.obj
 0002:00014170       ??_R2bad_array_new_length@std@@8 0000000180056170     LIBCMT:throw_bad_alloc.obj
 0002:00014190       ??_R1A@?0A@EA@bad_array_new_length@std@@8 0000000180056190     LIBCMT:throw_bad_alloc.obj
 0002:000141b8       ??_R4bad_exception@std@@6B@ 00000001800561b8     libvcruntime:frame.obj
 0002:000141e0       ??_R3bad_exception@std@@8  00000001800561e0     libvcruntime:frame.obj
 0002:000141f8       ??_R2bad_exception@std@@8  00000001800561f8     libvcruntime:frame.obj
 0002:00014210       ??_R1A@?0A@EA@bad_exception@std@@8 0000000180056210     libvcruntime:frame.obj
 0002:00014660       __rtc_iaa                  0000000180056660     LIBCMT:initsect.obj
 0002:00014668       __rtc_izz                  0000000180056668     LIBCMT:initsect.obj
 0002:00014670       __rtc_taa                  0000000180056670     LIBCMT:initsect.obj
 0002:00014678       __rtc_tzz                  0000000180056678     LIBCMT:initsect.obj
 0002:000174c0       _CT??_R0?AVruntime_error@std@@@8??0runtime_error@std@@QEAA@AEBV01@@Z24 00000001800594c0     libcpmt:xonce.obj
 0002:000174e8       _CT??_R0?AVexception@std@@@8??0exception@std@@QEAA@AEBV01@@Z24 00000001800594e8     libcpmt:xonce.obj
 0002:00017510       _TI2?AVbad_alloc@std@@     0000000180059510     libcpmt:xthrow.obj
 0002:00017530       _CTA2?AVbad_alloc@std@@    0000000180059530     libcpmt:xthrow.obj
 0002:00017548       _CT??_R0?AVbad_alloc@std@@@8??0bad_alloc@std@@QEAA@AEBV01@@Z24 0000000180059548     libcpmt:xthrow.obj
 0002:00017570       _CT??_R0?AVlogic_error@std@@@8??0logic_error@std@@QEAA@AEBV01@@Z24 0000000180059570     libcpmt:xthrow.obj
 0002:00017598       _TI3?AVlength_error@std@@  0000000180059598     libcpmt:xthrow.obj
 0002:000175b8       _CTA3?AVlength_error@std@@ 00000001800595b8     libcpmt:xthrow.obj
 0002:000175d8       _CT??_R0?AVlength_error@std@@@8??0length_error@std@@QEAA@AEBV01@@Z24 00000001800595d8     libcpmt:xthrow.obj
 0002:00017600       _TI3?AVout_of_range@std@@  0000000180059600     libcpmt:xthrow.obj
 0002:00017620       _CTA3?AVout_of_range@std@@ 0000000180059620     libcpmt:xthrow.obj
 0002:00017640       _CT??_R0?AVout_of_range@std@@@8??0out_of_range@std@@QEAA@AEBV01@@Z24 0000000180059640     libcpmt:xthrow.obj
 0002:00017668       _TI2?AVruntime_error@std@@ 0000000180059668     libcpmt:xthrow.obj
 0002:00017688       _CTA2?AVruntime_error@std@@ 0000000180059688     libcpmt:xthrow.obj
 0002:000176a0       _TI3?AVbad_array_new_length@std@@ 00000001800596a0     LIBCMT:throw_bad_alloc.obj
 0002:000176c0       _CTA3?AVbad_array_new_length@std@@ 00000001800596c0     LIBCMT:throw_bad_alloc.obj
 0002:000176e0       _CT??_R0?AVbad_array_new_length@std@@@8??0bad_array_new_length@std@@QEAA@AEBV01@@Z24 00000001800596e0     LIBCMT:throw_bad_alloc.obj
 0002:00017708       _TI2?AVbad_exception@std@@ 0000000180059708     libvcruntime:frame.obj
 0002:00017728       _CTA2?AVbad_exception@std@@ 0000000180059728     libvcruntime:frame.obj
 0002:00017740       _CT??_R0?AVbad_exception@std@@@8??0bad_exception@std@@QEAA@AEBV01@@Z24 0000000180059740     libvcruntime:frame.obj
 0002:00017764       __DELAY_IMPORT_DESCRIPTOR_node_exe 0000000180059764     node:node.exe
 0002:00017784       __NULL_DELAY_IMPORT_DESCRIPTOR 0000000180059784     node:node.exe
 0002:00017ab0       \177node_NULL_THUNK_DATA_DLN 0000000180059ab0     node:node.exe
 0002:00019540       \177node_NULL_THUNK_DATA_DLB 000000018005b540     node:node.exe
 0002:00019924       __IMPORT_DESCRIPTOR_KERNEL32 000000018005b924     kernel32:KERNEL32.dll
 0002:00019938       __IMPORT_DESCRIPTOR_jvm    000000018005b938     jvm:jvm.dll
 0002:0001994c       __NULL_IMPORT_DESCRIPTOR   000000018005b94c     kernel32:KERNEL32.dll
 0003:00000004       ?_Sync@ios_base@std@@0_NA  000000018005d004     libcpmt:ios.obj
 0003:00000010       ?_PJP_CPP_Copyright@@3PADA 000000018005d010     libcpmt:iosptrs.obj
 0003:00000070       __scrt_native_dllmain_reason 000000018005d070     LIBCMT:utility.obj
 0003:00000078       __security_cookie_complement 000000018005d078     LIBCMT:gs_cookie.obj
 0003:00000080       __security_cookie          000000018005d080     LIBCMT:gs_cookie.obj
 0003:00000088       _fltused                   000000018005d088     LIBCMT:fltused.obj
 0003:00000090       __isa_available            000000018005d090     LIBCMT:cpu_disp.obj
 0003:00000094       __isa_enabled              000000018005d094     LIBCMT:cpu_disp.obj
 0003:00000098       __memcpy_nt_iters          000000018005d098     LIBCMT:cpu_disp.obj
 0003:000000a0       __memset_nt_iters          000000018005d0a0     LIBCMT:cpu_disp.obj
 0003:000000c0       __abort_behavior           000000018005d0c0     libucrt:abort.obj
 0003:000000d0       _iob                       000000018005d0d0     libucrt:_file.obj
 0003:000001e0       __acrt_lconv_c             000000018005d1e0     libucrt:localeconv.obj
 0003:00000278       __acrt_lconv               000000018005d278     libucrt:localeconv.obj
 0003:00000280       __acrt_lconv_static_decimal 000000018005d280     libucrt:localeconv.obj
 0003:00000284       __acrt_lconv_static_W_decimal 000000018005d284     libucrt:localeconv.obj
 0003:00000288       _pctype                    000000018005d288     libucrt:ctype.obj
 0003:00000290       _pwctype                   000000018005d290     libucrt:ctype.obj
 0003:000002a0       __badioinfo                000000018005d2a0     libucrt:ioinit.obj
 0003:000002f8       __mb_cur_max               000000018005d2f8     libucrt:nlsdata.obj
 0003:00000300       __acrt_initial_locale_data 000000018005d300     libucrt:nlsdata.obj
 0003:00000458       __acrt_initial_locale_pointers 000000018005d458     libucrt:nlsdata.obj
 0003:00000468       __acrt_wide_c_locale_string 000000018005d468     libucrt:nlsdata.obj
 0003:00000470       __globallocalestatus       000000018005d470     libucrt:glstatus.obj
 0003:00000820       __acrt_initial_multibyte_data 000000018005d820     libucrt:mbctype.obj
 0003:00000a50       _lookuptrailbytes          000000018005da50     libucrt:read.obj
 0003:00000ba0       ??_R0?AV_System_error@std@@@8 000000018005dba0     libcpmt:xonce.obj
 0003:00000bc8       ??_R0?AVruntime_error@std@@@8 000000018005dbc8     libcpmt:xonce.obj
 0003:00000bf0       ??_R0?AVexception@std@@@8  000000018005dbf0     libcpmt:xonce.obj
 0003:00000c18       ??_R0?AVbad_alloc@std@@@8  000000018005dc18     libcpmt:xthrow.obj
 0003:00000c40       ??_R0?AVlogic_error@std@@@8 000000018005dc40     libcpmt:xthrow.obj
 0003:00000c68       ??_R0?AVlength_error@std@@@8 000000018005dc68     libcpmt:xthrow.obj
 0003:00000c90       ??_R0?AVout_of_range@std@@@8 000000018005dc90     libcpmt:xthrow.obj
 0003:00000cb8       ??_R0?AV_Facet_base@std@@@8 000000018005dcb8     libcpmt:locale0.obj
 0003:00000ce0       ??_R0?AV_Locimp@locale@std@@@8 000000018005dce0     libcpmt:locale0.obj
 0003:00000d10       ??_R0?AVfacet@locale@std@@@8 000000018005dd10     libcpmt:locale0.obj
 0003:00000d38       ??_R0?AU_Crt_new_delete@std@@@8 000000018005dd38     libcpmt:locale0.obj
 0003:00000d68       ??_R0?AUctype_base@std@@@8 000000018005dd68     libcpmt:locale.obj
 0003:00000d90       ??_R0?AV?$ctype@D@std@@@8  000000018005dd90     libcpmt:locale.obj
 0003:00000dc0       ??_R0?AV?$num_put@DV?$ostreambuf_iterator@DU?$char_traits@D@std@@@std@@@std@@@8 000000018005ddc0     libcpmt:locale.obj
 0003:00000e20       ??_R0?AV?$numpunct@D@std@@@8 000000018005de20     libcpmt:locale.obj
 0003:00000e48       ??_R0?AVtype_info@@@8      000000018005de48     LIBCMT:std_type_info_static.obj
 0003:00000e68       ??_R0?AVbad_array_new_length@std@@@8 000000018005de68     LIBCMT:throw_bad_alloc.obj
 0003:00000e98       ??_R0?AVbad_exception@std@@@8 000000018005de98     libvcruntime:frame.obj
 0003:00000ec0       __imp_uv_queue_work        000000018005dec0     node:node.exe
 0003:00000ec8       __imp_?Global@Context@v8@@QEAA?AV?$Local@VObject@v8@@@2@XZ 000000018005dec8     node:node.exe
 0003:00000ed0       __imp_?Value@External@v8@@QEBAPEAXXZ 000000018005ded0     node:node.exe
 0003:00000ed8       __imp_?New@External@v8@@SA?AV?$Local@VExternal@v8@@@2@PEAVIsolate@2@PEAX@Z 000000018005ded8     node:node.exe
 0003:00000ee0       __imp_?New@Signature@v8@@SA?AV?$Local@VSignature@v8@@@2@PEAVIsolate@2@V?$Local@VFunctionTemplate@v8@@@2@@Z 000000018005dee0     node:node.exe
 0003:00000ee8       __imp_?ThrowException@Isolate@v8@@QEAA?AV?$Local@VValue@v8@@@2@V32@@Z 000000018005dee8     node:node.exe
 0003:00000ef0       __imp_?GetCurrentContext@Isolate@v8@@QEAA?AV?$Local@VContext@v8@@@2@XZ 000000018005def0     node:node.exe
 0003:00000ef8       __imp_?GetCurrent@Isolate@v8@@SAPEAV12@XZ 000000018005def8     node:node.exe
 0003:00000f00       __imp_?CreateHandle@HandleScope@v8@@KAPEAPEAVObject@internal@2@PEAVIsolate@42@PEAV342@@Z 000000018005df00     node:node.exe
 0003:00000f08       __imp_?CreateHandle@HandleScope@v8@@CAPEAPEAVObject@internal@2@PEAVHeapObject@42@PEAV342@@Z 000000018005df08     node:node.exe
 0003:00000f10       __imp_??1HandleScope@v8@@QEAA@XZ 000000018005df10     node:node.exe
 0003:00000f18       __imp_??0HandleScope@v8@@QEAA@PEAVIsolate@1@@Z 000000018005df18     node:node.exe
 0003:00000f20       __imp_?Set@Template@v8@@QEAAXV?$Local@VName@v8@@@2@V?$Local@VData@v8@@@2@W4PropertyAttribute@2@@Z 000000018005df20     node:node.exe
 0003:00000f28       __imp_?Error@Exception@v8@@SA?AV?$Local@VValue@v8@@@2@V?$Local@VString@v8@@@2@@Z 000000018005df28     node:node.exe
 0003:00000f30       __imp_?TypeError@Exception@v8@@SA?AV?$Local@VValue@v8@@@2@V?$Local@VString@v8@@@2@@Z 000000018005df30     node:node.exe
 0003:00000f38       __imp_?New@Array@v8@@SA?AV?$Local@VArray@v8@@@2@PEAVIsolate@2@H@Z 000000018005df38     node:node.exe
 0003:00000f40       __imp_?Length@Array@v8@@QEBAIXZ 000000018005df40     node:node.exe
 0003:00000f48       __imp_?SetClassName@FunctionTemplate@v8@@QEAAXV?$Local@VString@v8@@@2@@Z 000000018005df48     node:node.exe
 0003:00000f50       __imp_?PrototypeTemplate@FunctionTemplate@v8@@QEAA?AV?$Local@VObjectTemplate@v8@@@2@XZ 000000018005df50     node:node.exe
 0003:00000f58       __imp_?InstanceTemplate@FunctionTemplate@v8@@QEAA?AV?$Local@VObjectTemplate@v8@@@2@XZ 000000018005df58     node:node.exe
 0003:00000f60       __imp_?GetFunction@FunctionTemplate@v8@@QEAA?AV?$Local@VFunction@v8@@@2@XZ 000000018005df60     node:node.exe
 0003:00000f68       __imp_?New@FunctionTemplate@v8@@SA?AV?$Local@VFunctionTemplate@v8@@@2@PEAVIsolate@2@P6AXAEBV?$FunctionCallbackInfo@VValue@v8@@@2@@ZV?$Local@VValue@v8@@@2@V?$Local@VSignature@v8@@@2@HW4ConstructorBehavior@2@@Z 000000018005df68     node:node.exe
 0003:00000f70       __imp_?ToLocalEmpty@V8@v8@@CAXXZ 000000018005df70     node:node.exe
 0003:00000f78       __imp_?FromJustIsNothing@V8@v8@@CAXXZ 000000018005df78     node:node.exe
 0003:00000f80       __imp_?ClearWeak@V8@v8@@CAPEAXPEAPEAVObject@internal@2@@Z 000000018005df80     node:node.exe
 0003:00000f88       __imp_?MakeWeak@V8@v8@@CAXPEAPEAVObject@internal@2@PEAXP6AXAEBV?$WeakCallbackInfo@X@2@@ZW4WeakCallbackType@2@@Z 000000018005df88     node:node.exe
 0003:00000f90       __imp_?DisposeGlobal@V8@v8@@CAXPEAPEAVObject@internal@2@@Z 000000018005df90     node:node.exe
 0003:00000f98       __imp_?GlobalizeReference@V8@v8@@CAPEAPEAVObject@internal@2@PEAVIsolate@42@PEAPEAV342@@Z 000000018005df98     node:node.exe
 0003:00000fa0       __imp_?Int32Value@Value@v8@@QEBA?AV?$Maybe@H@2@V?$Local@VContext@v8@@@2@@Z 000000018005dfa0     node:node.exe
 0003:00000fa8       __imp_?IntegerValue@Value@v8@@QEBA?AV?$Maybe@_J@2@V?$Local@VContext@v8@@@2@@Z 000000018005dfa8     node:node.exe
 0003:00000fb0       __imp_?NumberValue@Value@v8@@QEBA?AV?$Maybe@N@2@V?$Local@VContext@v8@@@2@@Z 000000018005dfb0     node:node.exe
 0003:00000fb8       __imp_?IsNativeError@Value@v8@@QEBA_NXZ 000000018005dfb8     node:node.exe
 0003:00000fc0       __imp_?IsNumber@Value@v8@@QEBA_NXZ 000000018005dfc0     node:node.exe
 0003:00000fc8       __imp_?IsObject@Value@v8@@QEBA_NXZ 000000018005dfc8     node:node.exe
 0003:00000fd0       __imp_?IsArray@Value@v8@@QEBA_NXZ 000000018005dfd0     node:node.exe
 0003:00000fd8       __imp_?IsFunction@Value@v8@@QEBA_NXZ 000000018005dfd8     node:node.exe
 0003:00000fe0       __imp_?Get@Message@v8@@QEBA?AV?$Local@VString@v8@@@2@XZ 000000018005dfe0     node:node.exe
 0003:00000fe8       __imp_?SetCaptureMessage@TryCatch@v8@@QEAAX_N@Z 000000018005dfe8     node:node.exe
 0003:00000ff0       __imp_?Reset@TryCatch@v8@@QEAAXXZ 000000018005dff0     node:node.exe
 0003:00000ff8       __imp_?Message@TryCatch@v8@@QEBA?AV?$Local@VMessage@v8@@@2@XZ 000000018005dff8     node:node.exe
 0003:00001000       __imp_?HasCaught@TryCatch@v8@@QEBA_NXZ 000000018005e000     node:node.exe
 0003:00001008       __imp_??1TryCatch@v8@@QEAA@XZ 000000018005e008     node:node.exe
 0003:00001010       __imp_??0TryCatch@v8@@QEAA@PEAVIsolate@1@@Z 000000018005e010     node:node.exe
 0003:00001018       __imp_?Escape@EscapableHandleScope@v8@@AEAAPEAPEAVObject@internal@2@PEAPEAV342@@Z 000000018005e018     node:node.exe
 0003:00001020       __imp_??0EscapableHandleScope@v8@@QEAA@PEAVIsolate@1@@Z 000000018005e020     node:node.exe
 0003:00001028       __imp_??1Utf8Value@String@v8@@QEAA@XZ 000000018005e028     node:node.exe
 0003:00001030       __imp_??0Utf8Value@String@v8@@QEAA@V?$Local@VValue@v8@@@2@@Z 000000018005e030     node:node.exe
 0003:00001038       __imp_?NewFromUtf8@String@v8@@SA?AV?$MaybeLocal@VString@v8@@@2@PEAVIsolate@2@PEBDW4NewStringType@2@H@Z 000000018005e038     node:node.exe
 0003:00001040       __imp_?Length@String@v8@@QEBAHXZ 000000018005e040     node:node.exe
 0003:00001048       __imp_?SlowGetAlignedPointerFromInternalField@Object@v8@@AEAAPEAXH@Z 000000018005e048     node:node.exe
 0003:00001050       __imp_?SlowGetInternalField@Object@v8@@AEAA?AV?$Local@VValue@v8@@@2@H@Z 000000018005e050     node:node.exe
 0003:00001058       __imp_?New@Object@v8@@SA?AV?$Local@VObject@v8@@@2@PEAVIsolate@2@@Z 000000018005e058     node:node.exe
 0003:00001060       __imp_?SetAlignedPointerInInternalField@Object@v8@@QEAAXHPEAX@Z 000000018005e060     node:node.exe
 0003:00001068       __imp_?SetInternalField@Object@v8@@QEAAXHV?$Local@VValue@v8@@@2@@Z 000000018005e068     node:node.exe
 0003:00001070       __imp_?InternalFieldCount@Object@v8@@QEAAHXZ 000000018005e070     node:node.exe
 0003:00001078       __imp_?SetAccessor@Object@v8@@QEAA?AV?$Maybe@_N@2@V?$Local@VContext@v8@@@2@V?$Local@VName@v8@@@2@P6AX1AEBV?$PropertyCallbackInfo@VValue@v8@@@2@@ZP6AX1V?$Local@VValue@v8@@@2@AEBV?$PropertyCallbackInfo@X@2@@ZV?$MaybeLocal@VValue@v8@@@2@W4AccessControl@2@W4PropertyAttribute@2@@Z 000000018005e078     node:node.exe
 0003:00001080       __imp_?Get@Object@v8@@QEAA?AV?$Local@VValue@v8@@@2@V32@@Z 000000018005e080     node:node.exe
 0003:00001088       __imp_?Get@Object@v8@@QEAA?AV?$Local@VValue@v8@@@2@I@Z 000000018005e088     node:node.exe
 0003:00001090       __imp_?Set@Object@v8@@QEAA_NV?$Local@VValue@v8@@@2@0@Z 000000018005e090     node:node.exe
 0003:00001098       __imp_?Call@Function@v8@@QEAA?AV?$Local@VValue@v8@@@2@V32@HQEAV32@@Z 000000018005e098     node:node.exe
 0003:000010a0       __imp_?SetInternalFieldCount@ObjectTemplate@v8@@QEAAXH@Z 000000018005e0a0     node:node.exe
 0003:000010a8       __imp_?NewInstance@ObjectTemplate@v8@@QEAA?AV?$MaybeLocal@VObject@v8@@@2@V?$Local@VContext@v8@@@2@@Z 000000018005e0a8     node:node.exe
 0003:000010b0       __imp_?New@ObjectTemplate@v8@@SA?AV?$Local@VObjectTemplate@v8@@@2@PEAVIsolate@2@V?$Local@VFunctionTemplate@v8@@@2@@Z 000000018005e0b0     node:node.exe
 0003:000010b8       __imp_uv_default_loop      000000018005e0b8     node:node.exe
 0003:000010c0       __imp_?ToString@Value@v8@@QEBA?AV?$Local@VString@v8@@@2@XZ 000000018005e0c0     node:node.exe
 0003:000010c8       __imp_?New@Integer@v8@@SA?AV?$Local@VInteger@v8@@@2@PEAVIsolate@2@H@Z 000000018005e0c8     node:node.exe
 0003:000010d0       __imp_?GetFunction@FunctionTemplate@v8@@QEAA?AV?$MaybeLocal@VFunction@v8@@@2@V?$Local@VContext@v8@@@2@@Z 000000018005e0d0     node:node.exe
 0003:000010d8       __imp_?SetHandler@ObjectTemplate@v8@@QEAAXAEBUIndexedPropertyHandlerConfiguration@2@@Z 000000018005e0d8     node:node.exe
 0003:000010e0       __imp_?SetAccessor@ObjectTemplate@v8@@QEAAXV?$Local@VName@v8@@@2@P6AX0AEBV?$PropertyCallbackInfo@VValue@v8@@@2@@ZP6AX0V?$Local@VValue@v8@@@2@AEBV?$PropertyCallbackInfo@X@2@@Z3W4AccessControl@2@W4PropertyAttribute@2@V?$Local@VAccessorSignature@v8@@@2@@Z 000000018005e0e0     node:node.exe
 0003:000010e8       __imp_?NewInstance@Function@v8@@QEBA?AV?$MaybeLocal@VObject@v8@@@2@V?$Local@VContext@v8@@@2@@Z 000000018005e0e8     node:node.exe
 0003:000010f0       __imp_?MakeCallback@node@@YA?AV?$Local@VValue@v8@@@v8@@PEAVIsolate@3@V?$Local@VObject@v8@@@3@V?$Local@VFunction@v8@@@3@HPEAV23@@Z 000000018005e0f0     node:node.exe
 0003:000010f8       __imp_?GetCurrentEventLoop@node@@YAPEAUuv_loop_s@@PEAVIsolate@v8@@@Z 000000018005e0f8     node:node.exe
 0003:00001100       __imp_node_module_register 000000018005e100     node:node.exe
 0003:00001108       __imp_?New@Uint8Array@v8@@SA?AV?$Local@VUint8Array@v8@@@2@V?$Local@VArrayBuffer@v8@@@2@_K1@Z 000000018005e108     node:node.exe
 0003:00001110       __imp_?ForApi@Private@v8@@SA?AV?$Local@VPrivate@v8@@@2@PEAVIsolate@2@V?$Local@VString@v8@@@2@@Z 000000018005e110     node:node.exe
 0003:00001118       __imp_?New@Int8Array@v8@@SA?AV?$Local@VInt8Array@v8@@@2@V?$Local@VArrayBuffer@v8@@@2@_K1@Z 000000018005e118     node:node.exe
 0003:00001120       __imp_?New@NumberObject@v8@@SA?AV?$Local@VValue@v8@@@2@PEAVIsolate@2@N@Z 000000018005e120     node:node.exe
 0003:00001128       __imp_?New@Float32Array@v8@@SA?AV?$Local@VFloat32Array@v8@@@2@V?$Local@VArrayBuffer@v8@@@2@_K1@Z 000000018005e128     node:node.exe
 0003:00001130       __imp_?GetContents@ArrayBuffer@v8@@QEAA?AVContents@12@XZ 000000018005e130     node:node.exe
 0003:00001138       __imp_?New@ArrayBuffer@v8@@SA?AV?$Local@VArrayBuffer@v8@@@2@PEAVIsolate@2@_K@Z 000000018005e138     node:node.exe
 0003:00001140       __imp_?BooleanValue@Value@v8@@QEBA?AV?$Maybe@_N@2@V?$Local@VContext@v8@@@2@@Z 000000018005e140     node:node.exe
 0003:00001148       __imp_?ToInteger@Value@v8@@QEBA?AV?$MaybeLocal@VInteger@v8@@@2@V?$Local@VContext@v8@@@2@@Z 000000018005e148     node:node.exe
 0003:00001150       __imp_?IsUint32@Value@v8@@QEBA_NXZ 000000018005e150     node:node.exe
 0003:00001158       __imp_?IsInt32@Value@v8@@QEBA_NXZ 000000018005e158     node:node.exe
 0003:00001160       __imp_?IsBoolean@Value@v8@@QEBA_NXZ 000000018005e160     node:node.exe
 0003:00001168       __imp_?New@Float64Array@v8@@SA?AV?$Local@VFloat64Array@v8@@@2@V?$Local@VArrayBuffer@v8@@@2@_K1@Z 000000018005e168     node:node.exe
 0003:00001170       __imp_?New@Uint16Array@v8@@SA?AV?$Local@VUint16Array@v8@@@2@V?$Local@VArrayBuffer@v8@@@2@_K1@Z 000000018005e170     node:node.exe
 0003:00001178       __imp_??1Value@String@v8@@QEAA@XZ 000000018005e178     node:node.exe
 0003:00001180       __imp_??0Value@String@v8@@QEAA@V?$Local@VValue@v8@@@2@@Z 000000018005e180     node:node.exe
 0003:00001188       __imp_?NewFromTwoByte@String@v8@@SA?AV?$MaybeLocal@VString@v8@@@2@PEAVIsolate@2@PEBGW4NewStringType@2@H@Z 000000018005e188     node:node.exe
 0003:00001190       __imp_?New@Int32Array@v8@@SA?AV?$Local@VInt32Array@v8@@@2@V?$Local@VArrayBuffer@v8@@@2@_K1@Z 000000018005e190     node:node.exe
 0003:00001198       __imp_?New@Number@v8@@SA?AV?$Local@VNumber@v8@@@2@PEAVIsolate@2@N@Z 000000018005e198     node:node.exe
 0003:000011a0       __imp_?GetPrivate@Object@v8@@QEAA?AV?$MaybeLocal@VValue@v8@@@2@V?$Local@VContext@v8@@@2@V?$Local@VPrivate@v8@@@2@@Z 000000018005e1a0     node:node.exe
 0003:000011a8       __imp_?SetPrivate@Object@v8@@QEAA?AV?$Maybe@_N@2@V?$Local@VContext@v8@@@2@V?$Local@VPrivate@v8@@@2@V?$Local@VValue@v8@@@2@@Z 000000018005e1a8     node:node.exe
 0003:000011b0       __imp_?HasPrivate@Object@v8@@QEAA?AV?$Maybe@_N@2@V?$Local@VContext@v8@@@2@V?$Local@VPrivate@v8@@@2@@Z 000000018005e1b0     node:node.exe
 0003:000011b8       __imp_?Set@Object@v8@@QEAA_NIV?$Local@VValue@v8@@@2@@Z 000000018005e1b8     node:node.exe
 0003:000011c0       __imp_?New@Int16Array@v8@@SA?AV?$Local@VInt16Array@v8@@@2@V?$Local@VArrayBuffer@v8@@@2@_K1@Z 000000018005e1c0     node:node.exe
 0003:000011c8       \177node_NULL_THUNK_DATA_DLA 000000018005e1c8     node:node.exe
 0003:000011d0       __hmod__node_exe           000000018005e1d0     node:node.exe
 0003:00001330       ?_Id_cnt@id@locale@std@@0HA 000000018005e330     libcpmt:locale0.obj
 0003:00001338       ?_Clocptr@_Locimp@locale@std@@0PEAV123@EA 000000018005e338     libcpmt:locale0.obj
 0003:00001340       ?id@?$ctype@_W@std@@2V0locale@2@A 000000018005e340     libcpmt:locale0.obj
 0003:00001348       ?id@?$ctype@D@std@@2V0locale@2@A 000000018005e348     libcpmt:locale0.obj
 0003:00001350       ?id@?$codecvt@GDU_Mbstatet@@@std@@2V0locale@2@A 000000018005e350     libcpmt:locale0.obj
 0003:00001358       ?id@?$ctype@G@std@@2V0locale@2@A 000000018005e358     libcpmt:locale0.obj
 0003:00001370       ?id@?$codecvt@_WDU_Mbstatet@@@std@@2V0locale@2@A 000000018005e370     libcpmt:locale0.obj
 0003:000013a0       ?_Index@ios_base@std@@0HA  000000018005e3a0     libcpmt:ios.obj
 0003:00001410       ?_Raise_handler@std@@3P6AXAEBVexception@stdext@@@ZEA 000000018005e410     libcpmt:raisehan.obj
 0003:00001420       __encodedKERNEL32Functions 000000018005e420     libcpmt:winapisupp.obj
 0003:00001560       ?id@?$num_get@DV?$istreambuf_iterator@DU?$char_traits@D@std@@@std@@@std@@2V0locale@2@A 000000018005e560     libcpmt:locale.obj
 0003:00001568       ?id@?$codecvt@DDU_Mbstatet@@@std@@2V0locale@2@A 000000018005e568     libcpmt:locale.obj
 0003:00001570       ?_Ptr_cin@std@@3PEAV?$basic_istream@DU?$char_traits@D@std@@@1@EA 000000018005e570     libcpmt:iosptrs.obj
 0003:00001578       ?_Ptr_cout@std@@3PEAV?$basic_ostream@DU?$char_traits@D@std@@@1@EA 000000018005e578     libcpmt:iosptrs.obj
 0003:00001580       ?_Ptr_cerr@std@@3PEAV?$basic_ostream@DU?$char_traits@D@std@@@1@EA 000000018005e580     libcpmt:iosptrs.obj
 0003:00001588       ?_Ptr_clog@std@@3PEAV?$basic_ostream@DU?$char_traits@D@std@@@1@EA 000000018005e588     libcpmt:iosptrs.obj
 0003:00001590       ?_Ptr_wcin@std@@3PEAV?$basic_istream@_WU?$char_traits@_W@std@@@1@EA 000000018005e590     libcpmt:iosptrs.obj
 0003:00001598       ?_Ptr_wcout@std@@3PEAV?$basic_ostream@_WU?$char_traits@_W@std@@@1@EA 000000018005e598     libcpmt:iosptrs.obj
 0003:000015a0       ?_Ptr_wcerr@std@@3PEAV?$basic_ostream@_WU?$char_traits@_W@std@@@1@EA 000000018005e5a0     libcpmt:iosptrs.obj
 0003:000015a8       ?_Ptr_wclog@std@@3PEAV?$basic_ostream@_WU?$char_traits@_W@std@@@1@EA 000000018005e5a8     libcpmt:iosptrs.obj
 0003:00001610       ?id@?$time_put@_WV?$ostreambuf_iterator@_WU?$char_traits@_W@std@@@std@@@std@@2V0locale@2@A 000000018005e610     libcpmt:wlocale.obj
 0003:00001618       ?id@?$num_get@_WV?$istreambuf_iterator@_WU?$char_traits@_W@std@@@std@@@std@@2V0locale@2@A 000000018005e618     libcpmt:wlocale.obj
 0003:00001620       ?id@?$num_put@_WV?$ostreambuf_iterator@_WU?$char_traits@_W@std@@@std@@@std@@2V0locale@2@A 000000018005e620     libcpmt:wlocale.obj
 0003:00001628       ?id@?$numpunct@_W@std@@2V0locale@2@A 000000018005e628     libcpmt:wlocale.obj
 0003:00001630       ?id@?$collate@_W@std@@2V0locale@2@A 000000018005e630     libcpmt:wlocale.obj
 0003:00001638       ?id@?$messages@_W@std@@2V0locale@2@A 000000018005e638     libcpmt:wlocale.obj
 0003:00001640       ?id@?$money_get@_WV?$istreambuf_iterator@_WU?$char_traits@_W@std@@@std@@@std@@2V0locale@2@A 000000018005e640     libcpmt:wlocale.obj
 0003:00001648       ?id@?$money_put@_WV?$ostreambuf_iterator@_WU?$char_traits@_W@std@@@std@@@std@@2V0locale@2@A 000000018005e648     libcpmt:wlocale.obj
 0003:00001650       ?id@?$moneypunct@_W$0A@@std@@2V0locale@2@A 000000018005e650     libcpmt:wlocale.obj
 0003:00001658       ?id@?$moneypunct@_W$00@std@@2V0locale@2@A 000000018005e658     libcpmt:wlocale.obj
 0003:00001660       ?id@?$time_get@_WV?$istreambuf_iterator@_WU?$char_traits@_W@std@@@std@@@std@@2V0locale@2@A 000000018005e660     libcpmt:wlocale.obj
 0003:00001668       ?id@?$num_get@GV?$istreambuf_iterator@GU?$char_traits@G@std@@@std@@@std@@2V0locale@2@A 000000018005e668     libcpmt:wlocale.obj
 0003:00001670       ?id@?$num_put@GV?$ostreambuf_iterator@GU?$char_traits@G@std@@@std@@@std@@2V0locale@2@A 000000018005e670     libcpmt:wlocale.obj
 0003:00001678       ?id@?$numpunct@G@std@@2V0locale@2@A 000000018005e678     libcpmt:wlocale.obj
 0003:00001680       ?id@?$collate@G@std@@2V0locale@2@A 000000018005e680     libcpmt:wlocale.obj
 0003:00001688       ?id@?$messages@G@std@@2V0locale@2@A 000000018005e688     libcpmt:wlocale.obj
 0003:00001690       ?id@?$money_get@GV?$istreambuf_iterator@GU?$char_traits@G@std@@@std@@@std@@2V0locale@2@A 000000018005e690     libcpmt:wlocale.obj
 0003:00001698       ?id@?$money_put@GV?$ostreambuf_iterator@GU?$char_traits@G@std@@@std@@@std@@2V0locale@2@A 000000018005e698     libcpmt:wlocale.obj
 0003:000016a0       ?id@?$moneypunct@G$0A@@std@@2V0locale@2@A 000000018005e6a0     libcpmt:wlocale.obj
 0003:000016a8       ?id@?$moneypunct@G$00@std@@2V0locale@2@A 000000018005e6a8     libcpmt:wlocale.obj
 0003:000016b0       ?id@?$time_get@GV?$istreambuf_iterator@GU?$char_traits@G@std@@@std@@@std@@2V0locale@2@A 000000018005e6b0     libcpmt:wlocale.obj
 0003:000016b8       ?id@?$time_put@GV?$ostreambuf_iterator@GU?$char_traits@G@std@@@std@@@std@@2V0locale@2@A 000000018005e6b8     libcpmt:wlocale.obj
 0003:000016c0       ?id@?$collate@D@std@@2V0locale@2@A 000000018005e6c0     libcpmt:xlocale.obj
 0003:000016c8       ?id@?$messages@D@std@@2V0locale@2@A 000000018005e6c8     libcpmt:xlocale.obj
 0003:000016d0       ?id@?$money_get@DV?$istreambuf_iterator@DU?$char_traits@D@std@@@std@@@std@@2V0locale@2@A 000000018005e6d0     libcpmt:xlocale.obj
 0003:000016d8       ?id@?$money_put@DV?$ostreambuf_iterator@DU?$char_traits@D@std@@@std@@@std@@2V0locale@2@A 000000018005e6d8     libcpmt:xlocale.obj
 0003:000016e0       ?id@?$moneypunct@D$0A@@std@@2V0locale@2@A 000000018005e6e0     libcpmt:xlocale.obj
 0003:000016e8       ?id@?$moneypunct@D$00@std@@2V0locale@2@A 000000018005e6e8     libcpmt:xlocale.obj
 0003:000016f0       ?id@?$time_get@DV?$istreambuf_iterator@DU?$char_traits@D@std@@@std@@@std@@2V0locale@2@A 000000018005e6f0     libcpmt:xlocale.obj
 0003:000016f8       ?id@?$time_put@DV?$ostreambuf_iterator@DU?$char_traits@D@std@@@std@@@std@@2V0locale@2@A 000000018005e6f8     libcpmt:xlocale.obj
 0003:00001700       __scrt_current_native_startup_state 000000018005e700     LIBCMT:utility.obj
 0003:00001708       __scrt_native_startup_lock 000000018005e708     LIBCMT:utility.obj
 0003:00001cc0       __favor                    000000018005ecc0     LIBCMT:cpu_disp.obj
 0003:00001cc4       __scrt_debugger_hook_flag  000000018005ecc4     LIBCMT:utility_desktop.obj
 0003:00001cd0       ?__type_info_root_node@@3U__type_info_node@@A 000000018005ecd0     LIBCMT:tncleanup.obj
 0003:00001ce0       ?_OptionsStorage@?1??__local_stdio_scanf_options@@9@4_KA 000000018005ece0     LIBCMT:default_local_stdio_options.obj
 0003:00001ce8       ?__WinRTOutOfMemoryExceptionCallback@@3P6APEAXXZEA 000000018005ece8     libvcruntime:ehhelpers.obj
 0003:00001cf0       __pPurecall                000000018005ecf0     libvcruntime:purevirt_data.obj
 0003:00001df0       ?pArgList@UnDecorator@@0PEAVReplicator@@EA 000000018005edf0     libvcruntime:undname.obj
 0003:00001df8       ?pZNameList@UnDecorator@@0PEAVReplicator@@EA 000000018005edf8     libvcruntime:undname.obj
 0003:00001e00       ?pTemplateArgList@UnDecorator@@0PEAVReplicator@@EA 000000018005ee00     libvcruntime:undname.obj
 0003:00001e08       ?gName@UnDecorator@@0PEBDEB 000000018005ee08     libvcruntime:undname.obj
 0003:00001e10       ?name@UnDecorator@@0PEBDEB 000000018005ee10     libvcruntime:undname.obj
 0003:00001e18       ?disableFlags@UnDecorator@@0KA 000000018005ee18     libvcruntime:undname.obj
 0003:00001e1c       ?fExplicitTemplateParams@UnDecorator@@0_NA 000000018005ee1c     libvcruntime:undname.obj
 0003:00001e1d       ?fGetTemplateArgumentList@UnDecorator@@0_NA 000000018005ee1d     libvcruntime:undname.obj
 0003:00001e20       ?m_pGetParameter@UnDecorator@@0P6APEADJ@ZEA 000000018005ee20     libvcruntime:undname.obj
 0003:00001e28       ?m_CHPENameOffset@UnDecorator@@0KA 000000018005ee28     libvcruntime:undname.obj
 0003:00001e2c       ?m_recursionLevel@UnDecorator@@0KA 000000018005ee2c     libvcruntime:undname.obj
 0003:00001e58       _nstream                   000000018005ee58     libucrt:_file.obj
 0003:00001e60       __piob                     000000018005ee60     libucrt:_file.obj
 0003:00001e68       _cflush                    000000018005ee68     libucrt:_file.obj
 0003:00001e78       __acrt_lconv_static_null   000000018005ee78     libucrt:localeconv.obj
 0003:00001e7c       __acrt_lconv_static_W_null 000000018005ee7c     libucrt:localeconv.obj
 0003:000020d0       ?c_exit_complete@?1???R<lambda_6e4b09c48022b2350581041d5f6b0c4c>@@QEBA@XZ@4_NA 000000018005f0d0     libucrt:exit.obj
 0003:000021e8       _environ_table             000000018005f1e8     libucrt:environment_initialization.obj
 0003:000021f0       _wenviron_table            000000018005f1f0     libucrt:environment_initialization.obj
 0003:000021f8       __dcrt_initial_wide_environment 000000018005f1f8     libucrt:environment_initialization.obj
 0003:00002200       __dcrt_initial_narrow_environment 000000018005f200     libucrt:environment_initialization.obj
 0003:00002208       __acrt_atexit_table        000000018005f208     libucrt:onexit.obj
 0003:00002220       __acrt_at_quick_exit_table 000000018005f220     libucrt:onexit.obj
 0003:00002420       __pioinfo                  000000018005f420     libucrt:ioinit.obj
 0003:00002820       _nhandle                   000000018005f820     libucrt:ioinit.obj
 0003:00002838       __acrt_stdout_buffer       000000018005f838     libucrt:_sftbuf.obj
 0003:00002840       __acrt_stderr_buffer       000000018005f840     libucrt:_sftbuf.obj
 0003:00002848       __acrt_locale_changed_data 000000018005f848     libucrt:wsetlocale.obj
 0003:00002850       __acrt_current_locale_data 000000018005f850     libucrt:nlsdata.obj
 0003:00002860       __fma3_is_available        000000018005f860     libucrt:fma3_available.obj
 0003:00002864       __use_fma3_lib             000000018005f864     libucrt:fma3_available.obj
 0003:00002868       ?_timezone@@3V?$dual_state_global@J@__crt_state_management@@A 000000018005f868     libucrt:timeset.obj
 0003:0000286c       ?_daylight@@3V?$dual_state_global@H@__crt_state_management@@A 000000018005f86c     libucrt:timeset.obj
 0003:00002870       ?_dstbias@@3V?$dual_state_global@J@__crt_state_management@@A 000000018005f870     libucrt:timeset.obj
 0003:00002948       _mbctype                   000000018005f948     libucrt:mbctype.obj
 0003:00002950       _mbcasemap                 000000018005f950     libucrt:mbctype.obj
 0003:00002958       __acrt_current_multibyte_data 000000018005f958     libucrt:mbctype.obj
 0003:00002968       _pgmptr                    000000018005f968     libucrt:argv_data.obj
 0003:00002970       __argc                     000000018005f970     libucrt:argv_data.obj
 0003:00002978       __argv                     000000018005f978     libucrt:argv_data.obj
 0003:00002980       __wargv                    000000018005f980     libucrt:argv_data.obj
 0003:00002988       _acmdln                    000000018005f988     libucrt:argv_data.obj
 0003:00002990       _wcmdln                    000000018005f990     libucrt:argv_data.obj
 0003:00002998       __acrt_heap                000000018005f998     libucrt:heap_handle.obj
 0003:000029c0       ?DloadKernel32@@3PEAUHINSTANCE__@@EA 000000018005f9c0     DelayImp:delayhlp.obj
 0003:000029c8       ?DloadAcquireSRWLockExclusive@@3P6AXPEA_K@ZEA 000000018005f9c8     DelayImp:delayhlp.obj
 0003:000029d0       ?DloadReleaseSRWLockExclusive@@3P6AXPEA_K@ZEA 000000018005f9d0     DelayImp:delayhlp.obj
 0003:000029d8       ?DloadSrwLock@@3_KA        000000018005f9d8     DelayImp:delayhlp.obj
 0003:000029e0       ?DloadSectionLockCount@@3KA 000000018005f9e0     DelayImp:delayhlp.obj
 0003:000029e4       ?DloadSectionOldProtection@@3KA 000000018005f9e4     DelayImp:delayhlp.obj
 0003:000029e8       ?DloadSectionCommitPermanent@@3KA 000000018005f9e8     DelayImp:delayhlp.obj
 0003:000029f0       ?v8ThreadId@@3JA           000000018005f9f0     java.obj
 0003:000029f8       ?m_methodInvokeMethodId@MethodCallBaton@@0PEAU_jmethodID@@EA 000000018005f9f8     methodCallBaton.obj
 0003:00002a00       ?s_nativeBindingLocation@Java@@0V?$basic_string@DU?$char_traits@D@std@@V?$allocator@D@2@@std@@A 000000018005fa00     java.obj
 0003:00002a20       ?s_ct@Java@@0V?$Persistent@VFunctionTemplate@v8@@V?$NonCopyablePersistentTraits@VFunctionTemplate@v8@@@2@@Nan@@A 000000018005fa20     java.obj
 0003:00002a28       ?s_proxyCt@JavaProxyObject@@0V?$Persistent@VFunctionTemplate@v8@@V?$NonCopyablePersistentTraits@VFunctionTemplate@v8@@@2@@Nan@@A 000000018005fa28     javaObject.obj
 0003:00002a30       ?sFunctionTemplates@JavaObject@@0V?$map@V?$basic_string@DU?$char_traits@D@std@@V?$allocator@D@2@@std@@PEAV?$Persistent@VFunctionTemplate@v8@@V?$NonCopyablePersistentTraits@VFunctionTemplate@v8@@@2@@Nan@@U?$less@V?$basic_string@DU?$char_traits@D@std@@V?$allocator@D@2@@std@@@2@V?$allocator@U?$pair@$$CBV?$basic_string@DU?$char_traits@D@std@@V?$allocator@D@2@@std@@PEAV?$Persistent@VFunctionTemplate@v8@@V?$NonCopyablePersistentTraits@VFunctionTemplate@v8@@@2@@Nan@@@std@@@2@@std@@A 000000018005fa30     javaObject.obj
 0003:00002b20       ?_OptionsStorage@?1??__local_stdio_printf_options@@9@4_KA 000000018005fb20     java.obj
 0003:00002b28       ?_Storage@?1???$_Immortalize@V_Iostream_error_category@std@@@std@@YAAEAV_Iostream_error_category@1@XZ@4T?$_Align_type@N$0BA@@1@A 000000018005fb28     java.obj
 0003:00002b38       ?_Psave@?$_Facetptr@V?$numpunct@D@std@@@std@@2PEBVfacet@locale@2@EB 000000018005fb38     java.obj
 0003:00002b40       ?_Psave@?$_Facetptr@V?$num_put@DV?$ostreambuf_iterator@DU?$char_traits@D@std@@@std@@@std@@@std@@2PEBVfacet@locale@2@EB 000000018005fb40     java.obj
 0003:00002b48       ?_Psave@?$_Facetptr@V?$ctype@D@std@@@std@@2PEBVfacet@locale@2@EB 000000018005fb48     java.obj
 0003:00002b50       ?_Flag@?1???$_Immortalize@V_Iostream_error_category@std@@@std@@YAAEAV_Iostream_error_category@1@XZ@4PEAXEA 000000018005fb50     java.obj
 0003:00002b58       ?id@?$num_put@DV?$ostreambuf_iterator@DU?$char_traits@D@std@@@std@@@std@@2V0locale@2@A 000000018005fb58     java.obj
 0003:00002b60       ?id@?$numpunct@D@std@@2V0locale@2@A 000000018005fb60     java.obj
 0003:00002b68       __dyn_tls_init_callback    000000018005fb68     <common>
 0003:00002b70       __scrt_ucrt_dll_is_in_use  000000018005fb70     <common>

 entry point at        0001:00020c48

 Static symbols

 0000:fff99000       .debug$S                   0000000180000000     kernel32:KERNEL32.dll
 0000:fff99000       .debug$S                   0000000180000000     node:node.exe
 0000:fff99000       .debug$S                   0000000180000000     node:node.exe
 0000:fff99000       .debug$S                   0000000180000000     kernel32:KERNEL32.dll
 0000:fff99000       .debug$S                   0000000180000000     kernel32:KERNEL32.dll
 0000:fff99000       .debug$S                   0000000180000000     node:node.exe
 0000:fff99000       .debug$S                   0000000180000000     node:node.exe
 0000:fff99000       .debug$S                   0000000180000000     node:node.exe
 0000:fff99000       .debug$S                   0000000180000000     node:node.exe
 0000:fff99000       .debug$S                   0000000180000000     node:node.exe
 0000:fff99000       .debug$S                   0000000180000000     node:node.exe
 0000:fff99000       .debug$S                   0000000180000000     node:node.exe
 0000:fff99000       .debug$S                   0000000180000000     node:node.exe
 0000:fff99000       .debug$S                   0000000180000000     kernel32:KERNEL32.dll
 0000:fff99000       .debug$S                   0000000180000000     node:node.exe
 0000:fff99000       .debug$S                   0000000180000000     kernel32:KERNEL32.dll
 0000:fff99000       .debug$S                   0000000180000000     node:node.exe
 0000:fff99000       .debug$S                   0000000180000000     kernel32:KERNEL32.dll
 0000:fff99000       .debug$S                   0000000180000000     kernel32:KERNEL32.dll
 0000:fff99000       .debug$S                   0000000180000000     kernel32:KERNEL32.dll
 0000:fff99000       .debug$S                   0000000180000000     node:node.exe
 0000:fff99000       .debug$S                   0000000180000000     node:node.exe
 0000:fff99000       .debug$S                   0000000180000000     node:node.exe
 0000:fff99000       .debug$S                   0000000180000000     node:node.exe
 0000:fff99000       .debug$S                   0000000180000000     node:node.exe
 0000:fff99000       .debug$S                   0000000180000000     node:node.exe
 0000:fff99000       .debug$S                   0000000180000000     node:node.exe
 0000:fff99000       .debug$S                   0000000180000000     kernel32:KERNEL32.dll
 0000:fff99000       .debug$S                   0000000180000000     node:node.exe
 0000:fff99000       .debug$S                   0000000180000000     node:node.exe
 0000:fff99000       .debug$S                   0000000180000000     node:node.exe
 0000:fff99000       .debug$S                   0000000180000000     node:node.exe
 0000:fff99000       .debug$S                   0000000180000000     node:node.exe
 0000:fff99000       .debug$S                   0000000180000000     kernel32:KERNEL32.dll
 0000:fff99000       .debug$S                   0000000180000000     node:node.exe
 0000:fff99000       .debug$S                   0000000180000000     node:node.exe
 0000:fff99000       .debug$S                   0000000180000000     kernel32:KERNEL32.dll
 0000:fff99000       .debug$S                   0000000180000000     node:node.exe
 0000:fff99000       .debug$S                   0000000180000000     kernel32:KERNEL32.dll
 0000:fff99000       .debug$S                   0000000180000000     node:node.exe
 0000:fff99000       .debug$S                   0000000180000000     kernel32:KERNEL32.dll
 0000:fff99000       .debug$S                   0000000180000000     node:node.exe
 0000:fff99000       .debug$S                   0000000180000000     node:node.exe
 0000:fff99000       .debug$S                   0000000180000000     kernel32:KERNEL32.dll
 0000:fff99000       .debug$S                   0000000180000000     node:node.exe
 0000:fff99000       .debug$S                   0000000180000000     node:node.exe
 0000:fff99000       .debug$S                   0000000180000000     node:node.exe
 0000:fff99000       .debug$S                   0000000180000000     node:node.exe
 0000:fff99000       .debug$S                   0000000180000000     node:node.exe
 0000:fff99000       .debug$S                   0000000180000000     node:node.exe
 0000:fff99000       .debug$S                   0000000180000000     node:node.exe
 0000:fff99000       .debug$S                   0000000180000000     node:node.exe
 0000:fff99000       .debug$S                   0000000180000000     node:node.exe
 0000:fff99000       .debug$S                   0000000180000000     node:node.exe
 0000:fff99000       .debug$S                   0000000180000000     node:node.exe
 0000:fff99000       .debug$S                   0000000180000000     node:node.exe
 0000:fff99000       .debug$S                   0000000180000000     kernel32:KERNEL32.dll
 0000:fff99000       .debug$S                   0000000180000000     kernel32:KERNEL32.dll
 0000:fff99000       .debug$S                   0000000180000000     node:node.exe
 0000:fff99000       .debug$S                   0000000180000000     kernel32:KERNEL32.dll
 0000:fff99000       .debug$S                   0000000180000000     node:node.exe
 0000:fff99000       .debug$S                   0000000180000000     node:node.exe
 0000:fff99000       .debug$S                   0000000180000000     node:node.exe
 0000:fff99000       .debug$S                   0000000180000000     node:node.exe
 0000:fff99000       .debug$S                   0000000180000000     node:node.exe
 0000:fff99000       .debug$S                   0000000180000000     kernel32:KERNEL32.dll
 0000:fff99000       .debug$S                   0000000180000000     node:node.exe
 0000:fff99000       .debug$S                   0000000180000000     node:node.exe
 0000:fff99000       .debug$S                   0000000180000000     kernel32:KERNEL32.dll
 0000:fff99000       .debug$S                   0000000180000000     node:node.exe
 0000:fff99000       .debug$S                   0000000180000000     node:node.exe
 0000:fff99000       .debug$S                   0000000180000000     node:node.exe
 0000:fff99000       .debug$S                   0000000180000000     kernel32:KERNEL32.dll
 0000:fff99000       .debug$S                   0000000180000000     node:node.exe
 0000:fff99000       .debug$S                   0000000180000000     kernel32:KERNEL32.dll
 0000:fff99000       .debug$S                   0000000180000000     kernel32:KERNEL32.dll
 0000:fff99000       .debug$S                   0000000180000000     kernel32:KERNEL32.dll
 0000:fff99000       .debug$S                   0000000180000000     node:node.exe
 0000:fff99000       .debug$S                   0000000180000000     node:node.exe
 0000:fff99000       .debug$S                   0000000180000000     kernel32:KERNEL32.dll
 0000:fff99000       .debug$S                   0000000180000000     node:node.exe
 0000:fff99000       .debug$S                   0000000180000000     kernel32:KERNEL32.dll
 0000:fff99000       .debug$S                   0000000180000000     node:node.exe
 0000:fff99000       .debug$S                   0000000180000000     node:node.exe
 0000:fff99000       .debug$S                   0000000180000000     node:node.exe
 0000:fff99000       .debug$S                   0000000180000000     kernel32:KERNEL32.dll
 0000:fff99000       .debug$S                   0000000180000000     node:node.exe
 0000:fff99000       .debug$S                   0000000180000000     kernel32:KERNEL32.dll
 0000:fff99000       .debug$S                   0000000180000000     kernel32:KERNEL32.dll
 0000:fff99000       .debug$S                   0000000180000000     node:node.exe
 0000:fff99000       .debug$S                   0000000180000000     kernel32:KERNEL32.dll
 0000:fff99000       .debug$S                   0000000180000000     kernel32:KERNEL32.dll
 0000:fff99000       .debug$S                   0000000180000000     node:node.exe
 0000:fff99000       .debug$S                   0000000180000000     kernel32:KERNEL32.dll
 0000:fff99000       .debug$S                   0000000180000000     node:node.exe
 0000:fff99000       .debug$S                   0000000180000000     kernel32:KERNEL32.dll
 0000:fff99000       .debug$S                   0000000180000000     node:node.exe
 0000:fff99000       .debug$S                   0000000180000000     kernel32:KERNEL32.dll
 0000:fff99000       .debug$S                   0000000180000000     node:node.exe
 0000:fff99000       .debug$S                   0000000180000000     node:node.exe
 0000:fff99000       .debug$S                   0000000180000000     node:node.exe
 0000:fff99000       .debug$S                   0000000180000000     node:node.exe
 0000:fff99000       .debug$S                   0000000180000000     jvm:jvm.dll
 0000:fff99000       .debug$S                   0000000180000000     node:node.exe
 0000:fff99000       .debug$S                   0000000180000000     node:node.exe
 0000:fff99000       .debug$S                   0000000180000000     kernel32:KERNEL32.dll
 0000:fff99000       .debug$S                   0000000180000000     node:node.exe
 0000:fff99000       .debug$S                   0000000180000000     kernel32:KERNEL32.dll
 0000:fff99000       .debug$S                   0000000180000000     node:node.exe
 0000:fff99000       .debug$S                   0000000180000000     nodejavabridge_bindings.exp
 0000:fff99000       .debug$S                   0000000180000000     kernel32:KERNEL32.dll
 0000:fff99000       .debug$S                   0000000180000000     kernel32:KERNEL32.dll
 0000:fff99000       .debug$S                   0000000180000000     kernel32:KERNEL32.dll
 0000:fff99000       .debug$S                   0000000180000000     kernel32:KERNEL32.dll
 0000:fff99000       .debug$S                   0000000180000000     kernel32:KERNEL32.dll
 0000:fff99000       .debug$S                   0000000180000000     kernel32:KERNEL32.dll
 0000:fff99000       .debug$S                   0000000180000000     kernel32:KERNEL32.dll
 0000:fff99000       .debug$S                   0000000180000000     kernel32:KERNEL32.dll
 0000:fff99000       .debug$S                   0000000180000000     kernel32:KERNEL32.dll
 0000:fff99000       .debug$S                   0000000180000000     kernel32:KERNEL32.dll
 0000:fff99000       .debug$S                   0000000180000000     kernel32:KERNEL32.dll
 0000:fff99000       .debug$S                   0000000180000000     kernel32:KERNEL32.dll
 0000:fff99000       .debug$S                   0000000180000000     kernel32:KERNEL32.dll
 0000:fff99000       .debug$S                   0000000180000000     kernel32:KERNEL32.dll
 0000:fff99000       .debug$S                   0000000180000000     kernel32:KERNEL32.dll
 0000:fff99000       .debug$S                   0000000180000000     kernel32:KERNEL32.dll
 0000:fff99000       .debug$S                   0000000180000000     kernel32:KERNEL32.dll
 0000:fff99000       .debug$S                   0000000180000000     kernel32:KERNEL32.dll
 0000:fff99000       .debug$S                   0000000180000000     kernel32:KERNEL32.dll
 0000:fff99000       .debug$S                   0000000180000000     kernel32:KERNEL32.dll
 0000:fff99000       .debug$S                   0000000180000000     kernel32:KERNEL32.dll
 0000:fff99000       .debug$S                   0000000180000000     kernel32:KERNEL32.dll
 0000:fff99000       .debug$S                   0000000180000000     kernel32:KERNEL32.dll
 0000:fff99000       .debug$S                   0000000180000000     kernel32:KERNEL32.dll
 0000:fff99000       .debug$S                   0000000180000000     kernel32:KERNEL32.dll
 0000:fff99000       .debug$S                   0000000180000000     kernel32:KERNEL32.dll
 0000:fff99000       .debug$S                   0000000180000000     kernel32:KERNEL32.dll
 0000:fff99000       .debug$S                   0000000180000000     kernel32:KERNEL32.dll
 0000:fff99000       .debug$S                   0000000180000000     kernel32:KERNEL32.dll
 0000:fff99000       .debug$S                   0000000180000000     kernel32:KERNEL32.dll
 0000:fff99000       .debug$S                   0000000180000000     kernel32:KERNEL32.dll
 0000:fff99000       .debug$S                   0000000180000000     kernel32:KERNEL32.dll
 0000:fff99000       .debug$S                   0000000180000000     kernel32:KERNEL32.dll
 0000:fff99000       .debug$S                   0000000180000000     kernel32:KERNEL32.dll
 0000:fff99000       .debug$S                   0000000180000000     kernel32:KERNEL32.dll
 0000:fff99000       .debug$S                   0000000180000000     kernel32:KERNEL32.dll
 0000:fff99000       .debug$S                   0000000180000000     kernel32:KERNEL32.dll
 0000:fff99000       .debug$S                   0000000180000000     kernel32:KERNEL32.dll
 0000:fff99000       .debug$S                   0000000180000000     kernel32:KERNEL32.dll
 0000:fff99000       .debug$S                   0000000180000000     kernel32:KERNEL32.dll
 0000:fff99000       .debug$S                   0000000180000000     kernel32:KERNEL32.dll
 0000:fff99000       .debug$S                   0000000180000000     kernel32:KERNEL32.dll
 0000:fff99000       .debug$S                   0000000180000000     kernel32:KERNEL32.dll
 0000:fff99000       .debug$S                   0000000180000000     kernel32:KERNEL32.dll
 0000:fff99000       .debug$S                   0000000180000000     kernel32:KERNEL32.dll
 0000:fff99000       .debug$S                   0000000180000000     kernel32:KERNEL32.dll
 0000:fff99000       .debug$S                   0000000180000000     kernel32:KERNEL32.dll
 0000:fff99000       .debug$S                   0000000180000000     kernel32:KERNEL32.dll
 0000:fff99000       .debug$S                   0000000180000000     kernel32:KERNEL32.dll
 0000:fff99000       .debug$S                   0000000180000000     kernel32:KERNEL32.dll
 0000:fff99000       .debug$S                   0000000180000000     kernel32:KERNEL32.dll
 0000:fff99000       .debug$S                   0000000180000000     kernel32:KERNEL32.dll
 0000:fff99000       .debug$S                   0000000180000000     kernel32:KERNEL32.dll
 0000:fff99000       .debug$S                   0000000180000000     kernel32:KERNEL32.dll
 0000:fff99000       .debug$S                   0000000180000000     kernel32:KERNEL32.dll
 0000:fff99000       .debug$S                   0000000180000000     kernel32:KERNEL32.dll
 0000:fff99000       .debug$S                   0000000180000000     kernel32:KERNEL32.dll
 0000:fff99000       .debug$S                   0000000180000000     kernel32:KERNEL32.dll
 0000:fff99000       .debug$S                   0000000180000000     kernel32:KERNEL32.dll
 0000:fff99000       .debug$S                   0000000180000000     node:node.exe
 0000:fff99000       .debug$S                   0000000180000000     kernel32:KERNEL32.dll
 0000:fff99000       .debug$S                   0000000180000000     node:node.exe
 0000:fff99000       .debug$S                   0000000180000000     node:node.exe
 0000:fff99000       .debug$S                   0000000180000000     node:node.exe
 0000:fff99000       .debug$S                   0000000180000000     node:node.exe
 0000:fff99000       .debug$S                   0000000180000000     node:node.exe
 0000:fff99000       .debug$S                   0000000180000000     node:node.exe
 0000:fff99000       .debug$S                   0000000180000000     node:node.exe
 0000:fff99000       .debug$S                   0000000180000000     node:node.exe
 0000:fff99000       .debug$S                   0000000180000000     node:node.exe
 0000:fff99000       .debug$S                   0000000180000000     node:node.exe
 0000:fff99000       .debug$S                   0000000180000000     node:node.exe
 0000:fff99000       .debug$S                   0000000180000000     node:node.exe
 0000:fff99000       .debug$S                   0000000180000000     node:node.exe
 0000:fff99000       .debug$S                   0000000180000000     node:node.exe
 0000:fff99000       .debug$S                   0000000180000000     node:node.exe
 0000:fff99000       .debug$S                   0000000180000000     node:node.exe
 0000:fff99000       .debug$S                   0000000180000000     node:node.exe
 0000:fff99000       .debug$S                   0000000180000000     node:node.exe
 0000:fff99000       .debug$S                   0000000180000000     node:node.exe
 0000:fff99000       .debug$S                   0000000180000000     node:node.exe
 0000:fff99000       .debug$S                   0000000180000000     node:node.exe
 0000:fff99000       .debug$S                   0000000180000000     node:node.exe
 0000:fff99000       .debug$S                   0000000180000000     node:node.exe
 0000:fff99000       .debug$S                   0000000180000000     node:node.exe
 0000:fff99000       .debug$S                   0000000180000000     node:node.exe
 0000:fff99000       .debug$S                   0000000180000000     node:node.exe
 0000:fff99000       .debug$S                   0000000180000000     node:node.exe
 0000:fff99000       .debug$S                   0000000180000000     node:node.exe
 0000:fff99000       .debug$S                   0000000180000000     node:node.exe
 0000:fff99000       .debug$S                   0000000180000000     node:node.exe
 0000:fff99000       .debug$S                   0000000180000000     node:node.exe
 0000:fff99000       .debug$S                   0000000180000000     node:node.exe
 0000:fff99000       .debug$S                   0000000180000000     node:node.exe
 0000:fff99000       .debug$S                   0000000180000000     node:node.exe
 0000:fff99000       .debug$S                   0000000180000000     node:node.exe
 0000:fff99000       .debug$S                   0000000180000000     node:node.exe
 0000:fff99000       .debug$S                   0000000180000000     node:node.exe
 0000:fff99000       .debug$S                   0000000180000000     node:node.exe
 0000:fff99000       .debug$S                   0000000180000000     node:node.exe
 0000:fff99000       .debug$S                   0000000180000000     node:node.exe
 0000:fff99000       .debug$S                   0000000180000000     node:node.exe
 0000:fff99000       .debug$S                   0000000180000000     node:node.exe
 0000:fff99000       .debug$S                   0000000180000000     node:node.exe
 0000:fff99000       .debug$S                   0000000180000000     kernel32:KERNEL32.dll
 0000:fff99000       .debug$S                   0000000180000000     node:node.exe
 0001:00000000       ??__E?s_ct@Java@@0V?$Persistent@VFunctionTemplate@v8@@V?$NonCopyablePersistentTraits@VFunctionTemplate@v8@@@2@@Nan@@A@@YAXXZ 0000000180001000 f   java.obj
 0001:00000020       ??__E?s_nativeBindingLocation@Java@@0V?$basic_string@DU?$char_traits@D@std@@V?$allocator@D@2@@std@@A@@YAXXZ 0000000180001020 f   java.obj
 0001:00000050       ??__E?sFunctionTemplates@JavaObject@@0V?$map@V?$basic_string@DU?$char_traits@D@std@@V?$allocator@D@2@@std@@PEAV?$Persistent@VFunctionTemplate@v8@@V?$NonCopyablePersistentTraits@VFunctionTemplate@v8@@@2@@Nan@@U?$less@V?$basic_string@DU?$char_traits@D@std@@V?$allocator@D@2@@std@@@2@V?$allocator@U?$pair@$$CBV?$basic_string@DU?$char_traits@D@std@@V?$allocator@D@2@@std@@PEAV?$Persistent@VFunctionTemplate@v8@@V?$NonCopyablePersistentTraits@VFunctionTemplate@v8@@@2@@Nan@@@std@@@2@@std@@A@@YAXXZ 0000000180001050 f   javaObject.obj
 0001:000000a0       ??__E?s_proxyCt@JavaProxyObject@@0V?$Persistent@VFunctionTemplate@v8@@V?$NonCopyablePersistentTraits@VFunctionTemplate@v8@@@2@@Nan@@A@@YAXXZ 00000001800010a0 f   javaObject.obj
 0001:000000c0       ??__EkObject@@YAXXZ        00000001800010c0 f   utils.obj
 0001:00000110       ??__EkString@@YAXXZ        0000000180001110 f   utils.obj
 0001:00000160       ??__EkInteger@@YAXXZ       0000000180001160 f   utils.obj
 0001:000001b0       ??__EkNumber@@YAXXZ        00000001800011b0 f   utils.obj
 0001:00000200       ??__EkLong@@YAXXZ          0000000180001200 f   utils.obj
 0001:00000250       ??__EkDouble@@YAXXZ        0000000180001250 f   utils.obj
 0001:000002a0       ??__EkBoolean@@YAXXZ       00000001800012a0 f   utils.obj
 0001:000002e4       ??__Einitlocks@std@@YAXXZ  00000001800012e4 f   libcpmt:xlock.obj
 0001:00000304       ??__E_Fac_tidy_reg@std@@YAXXZ 0000000180001304 f   libcpmt:locale0.obj
 0001:00000310       ??__Eclassic_locale@std@@YAXXZ 0000000180001310 f   libcpmt:locale0.obj
 0001:0000031c       ??__Einit_atexit@@YAXXZ    000000018000131c f   libcpmt:iosptrs.obj
 0001:00000328       ??__Einitlocks@std@@YAXXZ  0000000180001328 f   libcpmt:iosptrs.obj
 0001:00000690       ?FunctionCallbackWrapper@imp@Nan@@YAXAEBV?$FunctionCallbackInfo@VValue@v8@@@v8@@@Z 0000000180001690 f   java.obj
 0001:00000760       ?GetterCallbackWrapper@imp@Nan@@YAXV?$Local@VName@v8@@@v8@@AEBV?$PropertyCallbackInfo@VValue@v8@@@4@@Z 0000000180001760 f   javaObject.obj
 0001:00000760       ?GetterCallbackWrapper@imp@Nan@@YAXV?$Local@VName@v8@@@v8@@AEBV?$PropertyCallbackInfo@VValue@v8@@@4@@Z 0000000180001760 f   java.obj
 0001:00000830       ?SetterCallbackWrapper@imp@Nan@@YAXV?$Local@VName@v8@@@v8@@V?$Local@VValue@v8@@@4@AEBV?$PropertyCallbackInfo@X@4@@Z 0000000180001830 f   javaObject.obj
 0001:00000830       ?SetterCallbackWrapper@imp@Nan@@YAXV?$Local@VName@v8@@@v8@@V?$Local@VValue@v8@@@4@AEBV?$PropertyCallbackInfo@X@4@@Z 0000000180001830 f   java.obj
 0001:000105d0       no_op_initialize           00000001800115d0 f i libucrt:wsetlocale.obj
 0001:000142b0       ?IndexGetterCallbackWrapper@imp@Nan@@YAXIAEBV?$PropertyCallbackInfo@VValue@v8@@@v8@@@Z 00000001800152b0 f   javaObject.obj
 0001:000198e0       init                       000000018001a8e0 f   nodeJavaBridge.obj
 0001:000198f0       _register_nodejavabridge_bindings 000000018001a8f0 f   nodeJavaBridge.obj
 0001:0001a560       ?getArrayElementType@@YA?AV?$basic_string@DU?$char_traits@D@std@@V?$allocator@D@2@@std@@V?$Local@VArray@v8@@@v8@@I@Z 000000018001b560 f   utils.obj
 0001:0001bf1c       $LN209                     000000018001cf1c     utils.obj
 0001:0001c820       $LN676                     000000018001d820     utils.obj
 0001:0001e7d0       ?load_exe_hook@@YAP6A_JXZIPEAUDelayLoadInfo@@@Z 000000018001f7d0 f   win_delay_load_hook.obj
 0001:0001f518       tidy_global                0000000180020518 f   libcpmt:locale0.obj
 0001:0001fa68       ?initialize_pointers@@YAHXZ 0000000180020a68 f   libcpmt:winapisupp.obj
 0001:000204f0       $$000000                   00000001800214f0     LIBCMT:amdsecgs.obj
 0001:00020928       ?dllmain_crt_dispatch@@YAHQEAUHINSTANCE__@@KQEAX@Z 0000000180021928 f   LIBCMT:dll_dllmain.obj
 0001:00020978       ?dllmain_crt_process_attach@@YAHQEAUHINSTANCE__@@QEAX@Z 0000000180021978 f   LIBCMT:dll_dllmain.obj
 0001:00020a90       ?dllmain_crt_process_detach@@YAH_N@Z 0000000180021a90 f   LIBCMT:dll_dllmain.obj
 0001:00020b14       ?dllmain_dispatch@@YAHQEAUHINSTANCE__@@KQEAX@Z 0000000180021b14 f   LIBCMT:dll_dllmain.obj
 0001:00020db0       $$000000                   0000000180021db0     LIBCMT:chkstk.obj
 0001:00020fcc       capture_current_context    0000000180021fcc f   LIBCMT:gs_report.obj
 0001:0002103c       capture_previous_context   000000018002203c f   LIBCMT:gs_report.obj
 0001:00021d00       $$000000                   0000000180022d00     libvcruntime:memcpy.obj
 0001:00022110       $$000000                   0000000180023110     libvcruntime:memset.obj
 0001:00022400       $$000000                   0000000180023400     libvcruntime:memchr.obj
 0001:00022480       $$000000                   0000000180023480     libvcruntime:memcmp.obj
 0001:00022b18       ??$BuildCatchObjectHelperInternal@V__FrameHandler3@@@@YAHPEAUEHExceptionRecord@@PEAXPEBU_s_HandlerType@@PEBU_s_CatchableType@@@Z 0000000180023b18 f   libvcruntime:frame.obj
 0001:00022d18       ??$BuildCatchObjectInternal@V__FrameHandler3@@@@YAXPEAUEHExceptionRecord@@PEAXPEBU_s_HandlerType@@PEBU_s_CatchableType@@@Z 0000000180023d18 f   libvcruntime:frame.obj
 0001:00022dd8       ??$CatchIt@V__FrameHandler3@@@@YAXPEAUEHExceptionRecord@@PEA_KPEAU_CONTEXT@@PEAU_xDISPATCHER_CONTEXT@@PEBU_s_FuncInfo@@PEBU_s_HandlerType@@PEBU_s_CatchableType@@PEBU_s_TryBlockMapEntry@@H1EE@Z 0000000180023dd8 f   libvcruntime:frame.obj
 0001:00022eac       ??$FindHandler@V__FrameHandler3@@@@YAXPEAUEHExceptionRecord@@PEA_KPEAU_CONTEXT@@PEAU_xDISPATCHER_CONTEXT@@PEBU_s_FuncInfo@@EH1@Z 0000000180023eac f   libvcruntime:frame.obj
 0001:00023388       ??$FindHandlerForForeignException@V__FrameHandler3@@@@YAXPEAUEHExceptionRecord@@PEA_KPEAU_CONTEXT@@PEAU_xDISPATCHER_CONTEXT@@PEBU_s_FuncInfo@@HH1@Z 0000000180024388 f   libvcruntime:frame.obj
 0001:00023b70       ?ExFilterRethrow@@YAHPEAU_EXCEPTION_POINTERS@@PEAUEHExceptionRecord@@PEAH@Z 0000000180024b70 f   libvcruntime:frame.obj
 0001:00023e1c       ?IsInExceptionSpec@@YAEPEAUEHExceptionRecord@@PEBU_s_ESTypeList@@@Z 0000000180024e1c f   libvcruntime:frame.obj
 0001:00023f0c       ?Is_bad_exception_allowed@@YAEPEBU_s_ESTypeList@@@Z 0000000180024f0c f   libvcruntime:frame.obj
 0001:00024030       ?try_get_function@@YAPEAXW4function_id@?A0xa2c11a0a@@QEBDQEBW4module_id@2@2@Z 0000000180025030 f   libvcruntime:winapi_downlevel.obj
 0001:00024410       $$000000                   0000000180025410     libvcruntime:notify.obj
 0001:00024490       $$000000                   0000000180025490     libvcruntime:handlers.obj
 0001:000249ec       fallbackMethod             00000001800259ec f   libucrt:strcspn.obj
 0001:00024d98       $LN78                      0000000180025d98     libucrt:strcspn.obj
 0001:00024dd4       $LN77                      0000000180025dd4     libucrt:strcspn.obj
 0001:00024e14       $LN76                      0000000180025e14     libucrt:strcspn.obj
 0001:00024e54       ??$?RV<lambda_0d412022a4b28cc8a401ea49574e8ae6>@@AEAV<lambda_a775ed57af18ba8e4d5dc780aa9068fe>@@V<lambda_975a71a6baa488a08f4e15f6b0339b9e>@@@?$__crt_seh_guarded_call@H@@QEAAH$$QEAV<lambda_0d412022a4b28cc8a401ea49574e8ae6>@@AEAV<lambda_a775ed57af18ba8e4d5dc780aa9068fe>@@$$QEAV<lambda_975a71a6baa488a08f4e15f6b0339b9e>@@@Z 0000000180025e54 f   libucrt:output.obj
 0001:00024e94       ??$?RV<lambda_a62c933ada0517137acf5807a1eeac1f>@@AEAV<lambda_a31071773b9a94e445cbd5d04ef99106>@@V<lambda_56065050dbf3ada7e59a83db45153de3>@@@?$__crt_seh_guarded_call@H@@QEAAH$$QEAV<lambda_a62c933ada0517137acf5807a1eeac1f>@@AEAV<lambda_a31071773b9a94e445cbd5d04ef99106>@@$$QEAV<lambda_56065050dbf3ada7e59a83db45153de3>@@@Z 0000000180025e94 f   libucrt:output.obj
 0001:00024ed4       ??$common_vsprintf@Vformat_validation_base@__crt_stdio_output@@D@@YAH_KQEAD0QEBDQEAU__crt_locale_pointers@@1@Z 0000000180025ed4 f   libucrt:output.obj
 0001:000250a0       ??$common_vsprintf@Vstandard_base@__crt_stdio_output@@_W@@YAH_KQEA_W0QEB_WQEAU__crt_locale_pointers@@QEAD@Z 00000001800260a0 f   libucrt:output.obj
 0001:00025938       ??R<lambda_a31071773b9a94e445cbd5d04ef99106>@@QEBAHXZ 0000000180026938 f   libucrt:output.obj
 0001:00025a68       ??R<lambda_a775ed57af18ba8e4d5dc780aa9068fe>@@QEBAHXZ 0000000180026a68 f   libucrt:output.obj
 0001:00029014       ??$common_assert_to_message_box@_W@@YAXQEB_W0IQEAX@Z 000000018002a014 f   libucrt:assert.obj
 0001:000290d8       ??$common_assert_to_message_box_build_string@_W@@YAXQEA_W_KQEB_W2IQEAX@Z 000000018002a0d8 f   libucrt:assert.obj
 0001:000295dc       ??$common_assert_to_stderr@_W@@YAXQEB_W0I@Z 000000018002a5dc f   libucrt:assert.obj
 0001:0002974c       ?get_assert_format@@YAPEB_W_W@Z 000000018002a74c f   libucrt:assert.obj
 0001:00029aa8       ??$?RV<lambda_9bd929c17696992ce54f1d748594fc62>@@AEAV<lambda_082c17da81b0962e08c0587ee0fac50c>@@V<lambda_9c08ac857f4975304d44e9f601d9b878>@@@?$__crt_seh_guarded_call@PEAD@@QEAAPEAD$$QEAV<lambda_9bd929c17696992ce54f1d748594fc62>@@AEAV<lambda_082c17da81b0962e08c0587ee0fac50c>@@$$QEAV<lambda_9c08ac857f4975304d44e9f601d9b878>@@@Z 000000018002aaa8 f   libucrt:setlocale.obj
 0001:00029ae8       ??R<lambda_082c17da81b0962e08c0587ee0fac50c>@@QEBAPEADXZ 000000018002aae8 f   libucrt:setlocale.obj
 0001:0002ac2c       memcpy_s                   000000018002bc2c f   libucrt:strtod.obj
 0001:0002ac2c       memcpy_s                   000000018002bc2c f   libucrt:cfout.obj
 0001:0002acc0       $$000000                   000000018002bcc0     libucrt:pow.obj
 0001:0002c360       $$000000                   000000018002d360     libucrt:powf.obj
 0001:0002d4cc       ?internal_isupper_l@@YA_NHQEAU__crt_locale_pointers@@@Z 000000018002e4cc f   libucrt:tolower_toupper.obj
 0001:0002dc2c       ??$?RV<lambda_d80eeec6fff315bfe5c115232f3240e3>@@AEAV<lambda_6e4b09c48022b2350581041d5f6b0c4c>@@V<lambda_2358e3775559c9db80273638284d5e45>@@@?$__crt_seh_guarded_call@X@@QEAAX$$QEAV<lambda_d80eeec6fff315bfe5c115232f3240e3>@@AEAV<lambda_6e4b09c48022b2350581041d5f6b0c4c>@@$$QEAV<lambda_2358e3775559c9db80273638284d5e45>@@@Z 000000018002ec2c f   libucrt:exit.obj
 0001:0002dc64       ??R<lambda_6e4b09c48022b2350581041d5f6b0c4c>@@QEBA@XZ 000000018002ec64 f   libucrt:exit.obj
 0001:0002dd28       ?atexit_exception_filter@@YAHK@Z 000000018002ed28 f   libucrt:exit.obj
 0001:0002dd34       ?common_exit@@YAXHW4_crt_exit_cleanup_mode@@W4_crt_exit_return_mode@@@Z 000000018002ed34 f   libucrt:exit.obj
 0001:0002ddf0       ?exit_or_terminate_process@@YAXI@Z 000000018002edf0 f   libucrt:exit.obj
 0001:0002de3c       ?try_cor_exit_process@@YAXI@Z 000000018002ee3c f   libucrt:exit.obj
 0001:0002dec4       ??$parse_command_line@D@@YAXPEADPEAPEAD0PEA_K2@Z 000000018002eec4 f   libucrt:argv_parsing.obj
 0001:0002e270       ??$common_initialize_environment_nolock@D@@YAHXZ 000000018002f270 f   libucrt:environment_initialization.obj
 0001:0002e2dc       ??$create_environment@D@@YAQEAPEADQEAD@Z 000000018002f2dc f   libucrt:environment_initialization.obj
 0001:0002e3e4       ??$free_environment@D@@YAXQEAPEAD@Z 000000018002f3e4 f   libucrt:environment_initialization.obj
 0001:0002e3e4       ??$free_environment@_W@@YAXQEAPEA_W@Z 000000018002f3e4 f   libucrt:environment_initialization.obj
 0001:0002e428       ??$uninitialize_environment_internal@D@@YAXAEAPEAPEAD@Z 000000018002f428 f   libucrt:environment_initialization.obj
 0001:0002e444       ??$uninitialize_environment_internal@_W@@YAXAEAPEAPEA_W@Z 000000018002f444 f   libucrt:environment_initialization.obj
 0001:0002e4a0       ??$?RV<lambda_638799b9deba96c50f710eeac98168cd>@@AEAV<lambda_22ebabd17bc4fa466a2aca6d8deb888d>@@V<lambda_a6f7d7db0129f75315ebf26d50c089f1>@@@?$__crt_seh_guarded_call@H@@QEAAH$$QEAV<lambda_638799b9deba96c50f710eeac98168cd>@@AEAV<lambda_22ebabd17bc4fa466a2aca6d8deb888d>@@$$QEAV<lambda_a6f7d7db0129f75315ebf26d50c089f1>@@@Z 000000018002f4a0 f   libucrt:onexit.obj
 0001:0002e4dc       ??$?RV<lambda_7777bce6b2f8c936911f934f8298dc43>@@AEAV<lambda_f03950bc5685219e0bcd2087efbe011e>@@V<lambda_3883c3dff614d5e0c5f61bb1ac94921c>@@@?$__crt_seh_guarded_call@H@@QEAAH$$QEAV<lambda_7777bce6b2f8c936911f934f8298dc43>@@AEAV<lambda_f03950bc5685219e0bcd2087efbe011e>@@$$QEAV<lambda_3883c3dff614d5e0c5f61bb1ac94921c>@@@Z 000000018002f4dc f   libucrt:onexit.obj
 0001:0002e518       ??R<lambda_22ebabd17bc4fa466a2aca6d8deb888d>@@QEBAHXZ 000000018002f518 f   libucrt:onexit.obj
 0001:0002e6c8       ??R<lambda_f03950bc5685219e0bcd2087efbe011e>@@QEBAHXZ 000000018002f6c8 f   libucrt:onexit.obj
 0001:0002e89c       initialize_global_variables 000000018002f89c f   libucrt:initialization.obj
 0001:0002e8b0       initialize_c               000000018002f8b0 f   libucrt:initialization.obj
 0001:0002e8d4       uninitialize_global_state_isolation 000000018002f8d4 f   libucrt:initialization.obj
 0001:0002e8d4       initialize_global_state_isolation 000000018002f8d4 f   libucrt:initialization.obj
 0001:0002e8d4       report_memory_leaks        000000018002f8d4 f   libucrt:initialization.obj
 0001:0002e8d4       initialize_environment     000000018002f8d4 f   libucrt:initialization.obj
 0001:0002e8d4       uninitialize_c             000000018002f8d4 f   libucrt:initialization.obj
 0001:0002e8d8       uninitialize_environment   000000018002f8d8 f   libucrt:initialization.obj
 0001:0002e8e8       initialize_pointers        000000018002f8e8 f   libucrt:initialization.obj
 0001:0002e928       uninitialize_vcruntime     000000018002f928 f   libucrt:initialization.obj
 0001:0002e930       uninitialize_allocated_memory 000000018002f930 f   libucrt:initialization.obj
 0001:0002e970       uninitialize_allocated_io_buffers 000000018002f970 f   libucrt:initialization.obj
 0001:0002f610       $$000000                   0000000180030610     libucrt:strncmp.obj
 0001:0002f6a0       ??$?RV<lambda_450d765d439847d4c735a33c368b5fc0>@@AEAV<lambda_44731a7d0e6d81c3e6aa82d741081786>@@V<lambda_601a2a7da3b7a96e9554ac7215c4b07c>@@@?$__crt_seh_guarded_call@P6AXH@Z@@QEAAP6AXH@Z$$QEAV<lambda_450d765d439847d4c735a33c368b5fc0>@@AEAV<lambda_44731a7d0e6d81c3e6aa82d741081786>@@$$QEAV<lambda_601a2a7da3b7a96e9554ac7215c4b07c>@@@Z 00000001800306a0 f   libucrt:signal.obj
 0001:0002fa5c       ?<lambda_invoker_cdecl>@<lambda_795c6bd18aed400428efeb9a5f0e1479>@@CAHPEA_W@Z 0000000180030a5c f   libucrt:winapi_thunks.obj
 0001:0002fa84       ??$?RV<lambda_bd00b5aa228bd7e7e5b2b5db5fd2933b>@@AEAV<lambda_777d11615145f89ee95b9466d285deeb>@@V<lambda_6e5e48fbd24f9f8f81b203eb3d877683>@@@?$__crt_seh_guarded_call@H@@QEAAH$$QEAV<lambda_bd00b5aa228bd7e7e5b2b5db5fd2933b>@@AEAV<lambda_777d11615145f89ee95b9466d285deeb>@@$$QEAV<lambda_6e5e48fbd24f9f8f81b203eb3d877683>@@@Z 0000000180030a84 f   libucrt:winapi_thunks.obj
 0001:0002fb00       ?try_get_function@@YAPEAXW4function_id@?A0x391cf84c@@QEBDQEBW4module_id@2@2@Z 0000000180030b00 f   libucrt:winapi_thunks.obj
 0001:000307e4       ??$?RV<lambda_842d9ff0dc9ef11c61343bbaebe7f885>@@AEAV<lambda_c5860995281e5c4ce005b3de8f5874ee>@@V<lambda_d90129c13df834fdcbf8d2b88dafcf2d>@@@?$__crt_seh_guarded_call@X@@QEAAX$$QEAV<lambda_842d9ff0dc9ef11c61343bbaebe7f885>@@AEAV<lambda_c5860995281e5c4ce005b3de8f5874ee>@@$$QEAV<lambda_d90129c13df834fdcbf8d2b88dafcf2d>@@@Z 00000001800317e4 f   libucrt:fflush.obj
 0001:00030880       ??$?RV<lambda_886d6c58226a84441f68b9f2b8217b83>@@AEAV<lambda_ab61a845afdef5b7c387490eaf3616ee>@@V<lambda_f7f22ab5edc0698d5f6905b0d3f44752>@@@?$__crt_seh_guarded_call@X@@QEAAX$$QEAV<lambda_886d6c58226a84441f68b9f2b8217b83>@@AEAV<lambda_ab61a845afdef5b7c387490eaf3616ee>@@$$QEAV<lambda_f7f22ab5edc0698d5f6905b0d3f44752>@@@Z 0000000180031880 f   libucrt:fflush.obj
 0001:00030960       ??$?RV<lambda_c376a267cfb53b6959b3b692ec76b120>@@AEAV<lambda_9a32fed5bf61b6b509b2d3f6003082a1>@@V<lambda_572fbb9fa0ab338edf41edfd4b5fcc8d>@@@?$__crt_seh_guarded_call@H@@QEAAH$$QEAV<lambda_c376a267cfb53b6959b3b692ec76b120>@@AEAV<lambda_9a32fed5bf61b6b509b2d3f6003082a1>@@$$QEAV<lambda_572fbb9fa0ab338edf41edfd4b5fcc8d>@@@Z 0000000180031960 f   libucrt:fflush.obj
 0001:000309a0       ?common_flush_all@@YAH_N@Z 00000001800319a0 f   libucrt:fflush.obj
 0001:00030b78       ?initialize_inherited_file_handles_nolock@@YAXXZ 0000000180031b78 f   libucrt:ioinit.obj
 0001:00030c68       ?initialize_stdio_handles_nolock@@YAXXZ 0000000180031c68 f   libucrt:ioinit.obj
 0001:00030df0       ??$?RV<lambda_0ae27a3a962d80f24befdcbee591983d>@@AEAV<lambda_8d0ee55de4b1038c4002e0adecdf1839>@@V<lambda_dc504788e8f1664fe9b84e20bfb512f2>@@@?$__crt_seh_guarded_call@X@@QEAAX$$QEAV<lambda_0ae27a3a962d80f24befdcbee591983d>@@AEAV<lambda_8d0ee55de4b1038c4002e0adecdf1839>@@$$QEAV<lambda_dc504788e8f1664fe9b84e20bfb512f2>@@@Z 0000000180031df0 f   libucrt:per_thread_data.obj
 0001:00030e30       ??$?RV<lambda_2d41944a1d46af3157314b8a01080d33>@@AEAV<lambda_8f455de75cd7d7f24b4096f044d8b9e6>@@V<lambda_aa500f224e6afead328df44964fe2772>@@@?$__crt_seh_guarded_call@X@@QEAAX$$QEAV<lambda_2d41944a1d46af3157314b8a01080d33>@@AEAV<lambda_8f455de75cd7d7f24b4096f044d8b9e6>@@$$QEAV<lambda_aa500f224e6afead328df44964fe2772>@@@Z 0000000180031e30 f   libucrt:per_thread_data.obj
 0001:00030e70       ??$?RV<lambda_aa87e3671a710a21b5dc78c0bdf72e11>@@AEAV<lambda_92619d2358a28f41a33ba319515a20b9>@@V<lambda_6992ecaafeb10aed2b74cb1fae11a551>@@@?$__crt_seh_guarded_call@X@@QEAAX$$QEAV<lambda_aa87e3671a710a21b5dc78c0bdf72e11>@@AEAV<lambda_92619d2358a28f41a33ba319515a20b9>@@$$QEAV<lambda_6992ecaafeb10aed2b74cb1fae11a551>@@@Z 0000000180031e70 f   libucrt:per_thread_data.obj
 0001:00030eb8       ??$?RV<lambda_f2e299630e499de9f9a165e60fcd3db5>@@AEAV<lambda_2ae9d31cdba2644fcbeaf08da7c24588>@@V<lambda_40d01ff24d0e7b3814fdbdcee8eab3c7>@@@?$__crt_seh_guarded_call@X@@QEAAX$$QEAV<lambda_f2e299630e499de9f9a165e60fcd3db5>@@AEAV<lambda_2ae9d31cdba2644fcbeaf08da7c24588>@@$$QEAV<lambda_40d01ff24d0e7b3814fdbdcee8eab3c7>@@@Z 0000000180031eb8 f   libucrt:per_thread_data.obj
 0001:00030f18       ?construct_ptd_array@@YAXQEAU__acrt_ptd@@@Z 0000000180031f18 f   libucrt:per_thread_data.obj
 0001:00030fe8       ?destroy_fls@@YAXPEAX@Z    0000000180031fe8 f   libucrt:per_thread_data.obj
 0001:00031008       ?destroy_ptd_array@@YAXQEAU__acrt_ptd@@@Z 0000000180032008 f   libucrt:per_thread_data.obj
 0001:00031100       ?replace_current_thread_locale_nolock@@YAXQEAU__acrt_ptd@@QEAU__crt_locale_data@@@Z 0000000180032100 f   libucrt:per_thread_data.obj
 0001:000318ac       ?fp_format_a@@YAHQEBNPEAD_KQEAD2H_NIQEAU__crt_locale_pointers@@@Z 00000001800328ac f   libucrt:cvt.obj
 0001:00031c1c       ?fp_format_e@@YAHQEBNQEAD_K12H_NIQEAU__crt_locale_pointers@@@Z 0000000180032c1c f   libucrt:cvt.obj
 0001:00031cf8       ?fp_format_e_internal@@YAHQEAD_KH_NIQEAU_strflt@@2QEAU__crt_locale_pointers@@@Z 0000000180032cf8 f   libucrt:cvt.obj
 0001:00031ecc       ?fp_format_f_internal@@YAHQEAD_KHQEAU_strflt@@_NQEAU__crt_locale_pointers@@@Z 0000000180032ecc f   libucrt:cvt.obj
 0001:00032010       ?fp_format_g@@YAHQEBNQEAD_K12H_NIQEAU__crt_locale_pointers@@@Z 0000000180033010 f   libucrt:cvt.obj
 0001:00032144       ?fp_format_nan_or_infinity@@YAHW4__acrt_fp_class@@_NPEAD_K1@Z 0000000180033144 f   libucrt:cvt.obj
 0001:000327e8       ??$?RV<lambda_1d892b297fdedeee07ed8124eeb2f2fa>@@AEAV<lambda_ffc046909424fd52df0ac47e64813305>@@V<lambda_01a7098693036236037e7cdb9bca3d73>@@@?$__crt_seh_guarded_call@X@@QEAAX$$QEAV<lambda_1d892b297fdedeee07ed8124eeb2f2fa>@@AEAV<lambda_ffc046909424fd52df0ac47e64813305>@@$$QEAV<lambda_01a7098693036236037e7cdb9bca3d73>@@@Z 00000001800337e8 f   libucrt:wsetlocale.obj
 0001:00032924       ??$?RV<lambda_410d79af7f07d98d83a3f525b3859a53>@@AEAV<lambda_3e16ef9562a7dcce91392c22ab16ea36>@@V<lambda_38119f0e861e05405d8a144b9b982f0a>@@@?$__crt_seh_guarded_call@X@@QEAAX$$QEAV<lambda_410d79af7f07d98d83a3f525b3859a53>@@AEAV<lambda_3e16ef9562a7dcce91392c22ab16ea36>@@$$QEAV<lambda_38119f0e861e05405d8a144b9b982f0a>@@@Z 0000000180033924 f   libucrt:wsetlocale.obj
 0001:00032994       ??$?RV<lambda_7f2adfce497ff2baa965cd4f576ecfd1>@@AEAV<lambda_2a444430fde8c29194d880d93eed5e8f>@@AEAV<lambda_8dff2cf36a5417162780cd64fa2883ef>@@@?$__crt_seh_guarded_call@X@@QEAAX$$QEAV<lambda_7f2adfce497ff2baa965cd4f576ecfd1>@@AEAV<lambda_2a444430fde8c29194d880d93eed5e8f>@@AEAV<lambda_8dff2cf36a5417162780cd64fa2883ef>@@@Z 0000000180033994 f   libucrt:wsetlocale.obj
 0001:000329c0       ??R<lambda_2a444430fde8c29194d880d93eed5e8f>@@QEBA@XZ 00000001800339c0 f   libucrt:wsetlocale.obj
 0001:00032d30       _copytlocinfo_nolock       0000000180033d30 f   libucrt:wsetlocale.obj
 0001:000332e0       _wsetlocale_get_all        00000001800342e0 f   libucrt:wsetlocale.obj
 0001:000334cc       _wsetlocale_nolock         00000001800344cc f   libucrt:wsetlocale.obj
 0001:00033760       _wsetlocale_set_cat        0000000180034760 f   libucrt:wsetlocale.obj
 0001:00034558       ??$common_xtox@K_W@@YAHKQEA_W_KI_N@Z 0000000180035558 f   libucrt:xtoa.obj
 0001:0003462c       ??$common_xtox_s@K_W@@YAHKQEA_W_KI_N@Z 000000018003562c f   libucrt:xtoa.obj
 0001:00034a3c       ??$?RV<lambda_84ec643ea9557e2f7dc01bb0e9624395>@@AEAV<lambda_ca71763b3c0644891230e4f79ea54fa6>@@V<lambda_439a761618c59b0600e24586724d733b>@@@?$__crt_seh_guarded_call@H@@QEAAH$$QEAV<lambda_84ec643ea9557e2f7dc01bb0e9624395>@@AEAV<lambda_ca71763b3c0644891230e4f79ea54fa6>@@$$QEAV<lambda_439a761618c59b0600e24586724d733b>@@@Z 0000000180035a3c f   libucrt:setvbuf.obj
 0001:00034a7c       ??R<lambda_ca71763b3c0644891230e4f79ea54fa6>@@QEBAHXZ 0000000180035a7c f   libucrt:setvbuf.obj
 0001:00034bf8       ?_mbstowcs_l_helper@@YA_KPEA_WPEBD_KPEAU__crt_locale_pointers@@@Z 0000000180035bf8 f   libucrt:mbstowcs.obj
 0001:00034f50       ?_wcstombs_l_helper@@YA_KPEADPEB_W_KPEAU__crt_locale_pointers@@@Z 0000000180035f50 f   libucrt:wcstombs.obj
 0001:000354b4       ?InternalGetLocaleInfoA@@YAHQEAU__crt_locale_pointers@@QEB_WKQEADH@Z 00000001800364b4 f   libucrt:getlocaleinfoa.obj
 0001:00035988       ?__acrt_LCMapStringA_stat@@YAHPEAU__crt_locale_pointers@@PEB_WKPEBDHPEADHHH@Z 0000000180036988 f   libucrt:lcmapstringa.obj
 0001:00036568       ?<lambda_invoker_cdecl>@<lambda_c2303d2482d7c3675ea2e24c4cfb6115>@@CAHPEBX0@Z 0000000180037568 f   libucrt:argv_wildcards.obj
 0001:00036708       ??$common_expand_argv_wildcards@D@@YAHQEAPEADQEAPEAPEAD@Z 0000000180037708 f   libucrt:argv_wildcards.obj
 0001:00036914       ??$copy_and_add_argument_to_buffer@D@@YAHQEBD0_KAEAV?$argument_list@D@?A0x5f5c8891@@@Z 0000000180037914 f   libucrt:argv_wildcards.obj
 0001:00036a9c       ??$expand_argument_wildcards@D@@YAHQEAD0AEAV?$argument_list@D@?A0x5f5c8891@@@Z 0000000180037a9c f   libucrt:argv_wildcards.obj
 0001:00036db4       ??$?RV<lambda_efdfa57d1f175319df784efa44bb7b81>@@AEAV<lambda_5f0a4c1567f8adc6734073e5d1e1b35c>@@V<lambda_2e8a7d3640ea6ccb4c2413664c2db6fd>@@@?$__crt_seh_guarded_call@X@@QEAAX$$QEAV<lambda_efdfa57d1f175319df784efa44bb7b81>@@AEAV<lambda_5f0a4c1567f8adc6734073e5d1e1b35c>@@$$QEAV<lambda_2e8a7d3640ea6ccb4c2413664c2db6fd>@@@Z 0000000180037db4 f   libucrt:mbctype.obj
 0001:00036f70       ?getSystemCP@@YAHH@Z       0000000180037f70 f   libucrt:mbctype.obj
 0001:00036ff0       ?setSBCS@@YAXPEAU__crt_multibyte_data@@@Z 0000000180037ff0 f   libucrt:mbctype.obj
 0001:00037080       ?setSBUpLow@@YAXPEAU__crt_multibyte_data@@@Z 0000000180038080 f   libucrt:mbctype.obj
 0001:00037264       ?setmbcp_internal@@YAHH_NQEAU__acrt_ptd@@QEAPEAU__crt_multibyte_data@@@Z 0000000180038264 f   libucrt:mbctype.obj
 0001:00037428       ?update_thread_multibyte_data_internal@@YAPEAU__crt_multibyte_data@@QEAU__acrt_ptd@@QEAPEAU1@@Z 0000000180038428 f   libucrt:mbctype.obj
 0001:00037818       ?x_ismbbtype_l@@YAHPEAU__crt_locale_pointers@@IHH@Z 0000000180038818 f   libucrt:ismbbyte.obj
 0001:00037bac       ?GetTableIndexFromLocaleName@@YAHPEB_W@Z 0000000180038bac f   libucrt:lcidtoname_downlevel.obj
 0001:00037ea4       ??$?RV<lambda_a37b2b86f63e897a80ea819b0eb08c01>@@AEAV<lambda_38ce7e780aa69e748d6df282ebc68efe>@@V<lambda_99fb1378e971ab6e7edea83e3a7a83a2>@@@?$__crt_seh_guarded_call@H@@QEAAH$$QEAV<lambda_a37b2b86f63e897a80ea819b0eb08c01>@@AEAV<lambda_38ce7e780aa69e748d6df282ebc68efe>@@$$QEAV<lambda_99fb1378e971ab6e7edea83e3a7a83a2>@@@Z 0000000180038ea4 f   libucrt:commit.obj
 0001:00037fc4       ?write_double_translated_ansi_nolock@@YA?AUwrite_result@?A0x17268360@@HQEBDI@Z 0000000180038fc4 f   libucrt:write.obj
 0001:000384a0       ?write_text_ansi_nolock@@YA?AUwrite_result@?A0x17268360@@HQEBDI@Z 00000001800394a0 f   libucrt:write.obj
 0001:000385a4       ?write_text_utf16le_nolock@@YA?AUwrite_result@?A0x17268360@@HQEBDI@Z 00000001800395a4 f   libucrt:write.obj
 0001:000386c0       ?write_text_utf8_nolock@@YA?AUwrite_result@?A0x17268360@@HQEBDI@Z 00000001800396c0 f   libucrt:write.obj
 0001:0003a8b4       ??$write_buffer_nolock@D@@YA_NDV__crt_stdio_stream@@@Z 000000018003b8b4 f   libucrt:_flsbuf.obj
 0001:0003a998       ??$write_buffer_nolock@_W@@YA_N_WV__crt_stdio_stream@@@Z 000000018003b998 f   libucrt:_flsbuf.obj
 0001:0003aa80       ?stream_is_at_end_of_file_nolock@@YA_NV__crt_stdio_stream@@@Z 000000018003ba80 f   libucrt:_flsbuf.obj
 0001:0003b6c4       ?free_crt_array_internal@@YAXQEAPEBX_K@Z 000000018003c6c4 f   libucrt:inittime.obj
 0001:0003b71c       ?initialize_lc_time@@YA_NQEAU__crt_lc_time_data@@QEAU__crt_locale_data@@@Z 000000018003c71c f   libucrt:inittime.obj
 0001:0003bd58       GetLocaleNameFromDefault   000000018003cd58 f   libucrt:get_qualified_locale.obj
 0001:0003be00       GetLocaleNameFromLangCountry 000000018003ce00 f   libucrt:get_qualified_locale.obj
 0001:0003bed0       GetLocaleNameFromLanguage  000000018003ced0 f   libucrt:get_qualified_locale.obj
 0001:0003bf68       LangCountryEnumProcEx      000000018003cf68 f   libucrt:get_qualified_locale.obj
 0001:0003c254       LanguageEnumProcEx         000000018003d254 f   libucrt:get_qualified_locale.obj
 0001:0003c340       ProcessCodePage            000000018003d340 f   libucrt:get_qualified_locale.obj
 0001:0003c40c       TestDefaultCountry         000000018003d40c f   libucrt:get_qualified_locale.obj
 0001:0003c470       TranslateName              000000018003d470 f   libucrt:get_qualified_locale.obj
 0001:0003c770       CountryEnumProc            000000018003d770 f   libucrt:getqloc_downlevel.obj
 0001:0003c858       GetLcidFromLangCountry     000000018003d858 f   libucrt:getqloc_downlevel.obj
 0001:0003c928       GetLcidFromLanguage        000000018003d928 f   libucrt:getqloc_downlevel.obj
 0001:0003c9c0       LangCountryEnumProc        000000018003d9c0 f   libucrt:getqloc_downlevel.obj
 0001:0003cc0c       LanguageEnumProc           000000018003dc0c f   libucrt:getqloc_downlevel.obj
 0001:0003cd14       LcidFromHexString          000000018003dd14 f   libucrt:getqloc_downlevel.obj
 0001:0003cd64       ProcessCodePage            000000018003dd64 f   libucrt:getqloc_downlevel.obj
 0001:0003ce14       TestDefaultLanguage        000000018003de14 f   libucrt:getqloc_downlevel.obj
 0001:0003cec0       TranslateName              000000018003dec0 f   libucrt:getqloc_downlevel.obj
 0001:0003d1c0       $$000000                   000000018003e1c0     libucrt:fpsr.obj
 0001:0003d72c       _call_matherr              000000018003e72c f   libucrt:libm_error.obj
 0001:0003d794       _exception_enabled         000000018003e794 f   libucrt:libm_error.obj
 0001:0003df60       fallbackMethod             000000018003ef60 f   libucrt:strpbrk.obj
 0001:0003e324       $LN78                      000000018003f324     libucrt:strpbrk.obj
 0001:0003e360       $LN77                      000000018003f360     libucrt:strpbrk.obj
 0001:0003e3a0       $LN76                      000000018003f3a0     libucrt:strpbrk.obj
 0001:0003e47c       ?initialize_multibyte@@YAHXZ 000000018003f47c f   libucrt:multibyte_initializer.obj
 0001:0003e4d0       ??$?RV<lambda_751a882b2c74d4b022dec766aa51a29a>@@AEAV<lambda_628dfdc04ba53c8bfc02c9951375f3f5>@@V<lambda_f6c7be5f7998530c34de24c7437d6b54>@@@?$__crt_seh_guarded_call@H@@QEAAH$$QEAV<lambda_751a882b2c74d4b022dec766aa51a29a>@@AEAV<lambda_628dfdc04ba53c8bfc02c9951375f3f5>@@$$QEAV<lambda_f6c7be5f7998530c34de24c7437d6b54>@@@Z 000000018003f4d0 f   libucrt:close.obj
 0001:0003e6c4       ??$common_lseek@_J@@YA_JH_JH@Z 000000018003f6c4 f   libucrt:lseek.obj
 0001:0003e7b4       ??$common_lseek_nolock@_J@@YA_JH_JH@Z 000000018003f7b4 f   libucrt:lseek.obj
 0001:0003ec00       $$000000                   000000018003fc00     libucrt:log10.obj
 0001:0003f710       _log_special_common        0000000180040710 f   libucrt:log_special.obj
 0001:00040090       $$000000                   0000000180041090     libucrt:strcmp.obj
 0001:00040110       $$000000                   0000000180041110     LIBCMT:guard_dispatch.obj
 0001:00040130       ?dtor$0@?0??_Init@locale@std@@CAPEAV_Locimp@12@_N@Z@4HA 0000000180041130 f   libcpmt:locale0.obj
 0001:0004013c       __scrt_is_nonwritable_in_current_image$filt$0 000000018004113c f   LIBCMT:utility.obj
 0001:00040154       ?fin$0@?0??dllmain_crt_process_attach@@YAHQEAUHINSTANCE__@@QEAX@Z@4HA 0000000180041154 f   LIBCMT:dll_dllmain.obj
 0001:0004016b       ?fin$0@?0??dllmain_crt_process_detach@@YAH_N@Z@4HA 000000018004116b f   LIBCMT:dll_dllmain.obj
 0001:00040187       ?filt$0@?0??dllmain_dispatch@@YAHQEAUHINSTANCE__@@KQEAX@Z@4HA 0000000180041187 f   LIBCMT:dll_dllmain.obj
 0001:000401bd       ?filt$0@?0???$_CallSETranslator@V__FrameHandler3@@@@YAHPEAUEHExceptionRecord@@PEA_KPEAU_CONTEXT@@PEAU_xDISPATCHER_CONTEXT@@PEBU_s_FuncInfo@@K1@Z@4HA 00000001800411bd f   libvcruntime:risctrnsctrl.obj
 0001:0004024e       __DestructExceptionObject$filt$0 000000018004124e f   libvcruntime:ehhelpers.obj
 0001:00040266       ?filt$0@?0??CxxCallCatchBlock@__FrameHandler3@@SAPEAXPEAU_EXCEPTION_RECORD@@@Z@4HA 0000000180041266 f   libvcruntime:frame.obj
 0001:0004028b       ?fin$1@?0??CxxCallCatchBlock@__FrameHandler3@@SAPEAXPEAU_EXCEPTION_RECORD@@@Z@4HA 000000018004128b f   libvcruntime:frame.obj
 0001:00040303       ?filt$0@?0??FrameUnwindToState@__FrameHandler3@@SAXPEA_KPEAU_xDISPATCHER_CONTEXT@@PEBU_s_FuncInfo@@H@Z@4HA 0000000180041303 f   libvcruntime:frame.obj
 0001:00040319       ?fin$1@?0??FrameUnwindToState@__FrameHandler3@@SAXPEA_KPEAU_xDISPATCHER_CONTEXT@@PEBU_s_FuncInfo@@H@Z@4HA 0000000180041319 f   libvcruntime:frame.obj
 0001:0004033c       ?fin$0@?0???$?RV<lambda_a62c933ada0517137acf5807a1eeac1f>@@AEAV<lambda_a31071773b9a94e445cbd5d04ef99106>@@V<lambda_56065050dbf3ada7e59a83db45153de3>@@@?$__crt_seh_guarded_call@H@@QEAAH$$QEAV<lambda_a62c933ada0517137acf5807a1eeac1f>@@AEAV<lambda_a31071773b9a94e445cbd5d04ef99106>@@$$QEAV<lambda_56065050dbf3ada7e59a83db45153de3>@@@Z@4HA 000000018004133c f   libucrt:output.obj
 0001:0004033c       ?fin$0@?0???$?RV<lambda_c376a267cfb53b6959b3b692ec76b120>@@AEAV<lambda_9a32fed5bf61b6b509b2d3f6003082a1>@@V<lambda_572fbb9fa0ab338edf41edfd4b5fcc8d>@@@?$__crt_seh_guarded_call@H@@QEAAH$$QEAV<lambda_c376a267cfb53b6959b3b692ec76b120>@@AEAV<lambda_9a32fed5bf61b6b509b2d3f6003082a1>@@$$QEAV<lambda_572fbb9fa0ab338edf41edfd4b5fcc8d>@@@Z@4HA 000000018004133c f   libucrt:fflush.obj
 0001:0004033c       ?fin$0@?0???$?RV<lambda_84ec643ea9557e2f7dc01bb0e9624395>@@AEAV<lambda_ca71763b3c0644891230e4f79ea54fa6>@@V<lambda_439a761618c59b0600e24586724d733b>@@@?$__crt_seh_guarded_call@H@@QEAAH$$QEAV<lambda_84ec643ea9557e2f7dc01bb0e9624395>@@AEAV<lambda_ca71763b3c0644891230e4f79ea54fa6>@@$$QEAV<lambda_439a761618c59b0600e24586724d733b>@@@Z@4HA 000000018004133c f   libucrt:setvbuf.obj
 0001:0004033c       ?fin$0@?0???$?RV<lambda_842d9ff0dc9ef11c61343bbaebe7f885>@@AEAV<lambda_c5860995281e5c4ce005b3de8f5874ee>@@V<lambda_d90129c13df834fdcbf8d2b88dafcf2d>@@@?$__crt_seh_guarded_call@X@@QEAAX$$QEAV<lambda_842d9ff0dc9ef11c61343bbaebe7f885>@@AEAV<lambda_c5860995281e5c4ce005b3de8f5874ee>@@$$QEAV<lambda_d90129c13df834fdcbf8d2b88dafcf2d>@@@Z@4HA 000000018004133c f   libucrt:fflush.obj
 0001:0004033c       ?fin$0@?0???$?RV<lambda_0d412022a4b28cc8a401ea49574e8ae6>@@AEAV<lambda_a775ed57af18ba8e4d5dc780aa9068fe>@@V<lambda_975a71a6baa488a08f4e15f6b0339b9e>@@@?$__crt_seh_guarded_call@H@@QEAAH$$QEAV<lambda_0d412022a4b28cc8a401ea49574e8ae6>@@AEAV<lambda_a775ed57af18ba8e4d5dc780aa9068fe>@@$$QEAV<lambda_975a71a6baa488a08f4e15f6b0339b9e>@@@Z@4HA 000000018004133c f   libucrt:output.obj
 0001:00040357       ?fin$0@?0???$?RV<lambda_1d892b297fdedeee07ed8124eeb2f2fa>@@AEAV<lambda_ffc046909424fd52df0ac47e64813305>@@V<lambda_01a7098693036236037e7cdb9bca3d73>@@@?$__crt_seh_guarded_call@X@@QEAAX$$QEAV<lambda_1d892b297fdedeee07ed8124eeb2f2fa>@@AEAV<lambda_ffc046909424fd52df0ac47e64813305>@@$$QEAV<lambda_01a7098693036236037e7cdb9bca3d73>@@@Z@4HA 0000000180041357 f   libucrt:wsetlocale.obj
 0001:00040357       ?fin$0@?0???$?RV<lambda_d80eeec6fff315bfe5c115232f3240e3>@@AEAV<lambda_6e4b09c48022b2350581041d5f6b0c4c>@@V<lambda_2358e3775559c9db80273638284d5e45>@@@?$__crt_seh_guarded_call@X@@QEAAX$$QEAV<lambda_d80eeec6fff315bfe5c115232f3240e3>@@AEAV<lambda_6e4b09c48022b2350581041d5f6b0c4c>@@$$QEAV<lambda_2358e3775559c9db80273638284d5e45>@@@Z@4HA 0000000180041357 f   libucrt:exit.obj
 0001:00040357       ?fin$0@?0???$?RV<lambda_9bd929c17696992ce54f1d748594fc62>@@AEAV<lambda_082c17da81b0962e08c0587ee0fac50c>@@V<lambda_9c08ac857f4975304d44e9f601d9b878>@@@?$__crt_seh_guarded_call@PEAD@@QEAAPEAD$$QEAV<lambda_9bd929c17696992ce54f1d748594fc62>@@AEAV<lambda_082c17da81b0962e08c0587ee0fac50c>@@$$QEAV<lambda_9c08ac857f4975304d44e9f601d9b878>@@@Z@4HA 0000000180041357 f   libucrt:setlocale.obj
 0001:00040357       ?fin$0@?0???$?RV<lambda_450d765d439847d4c735a33c368b5fc0>@@AEAV<lambda_44731a7d0e6d81c3e6aa82d741081786>@@V<lambda_601a2a7da3b7a96e9554ac7215c4b07c>@@@?$__crt_seh_guarded_call@P6AXH@Z@@QEAAP6AXH@Z$$QEAV<lambda_450d765d439847d4c735a33c368b5fc0>@@AEAV<lambda_44731a7d0e6d81c3e6aa82d741081786>@@$$QEAV<lambda_601a2a7da3b7a96e9554ac7215c4b07c>@@@Z@4HA 0000000180041357 f   libucrt:signal.obj
 0001:00040357       ?fin$0@?0???$?RV<lambda_7777bce6b2f8c936911f934f8298dc43>@@AEAV<lambda_f03950bc5685219e0bcd2087efbe011e>@@V<lambda_3883c3dff614d5e0c5f61bb1ac94921c>@@@?$__crt_seh_guarded_call@H@@QEAAH$$QEAV<lambda_7777bce6b2f8c936911f934f8298dc43>@@AEAV<lambda_f03950bc5685219e0bcd2087efbe011e>@@$$QEAV<lambda_3883c3dff614d5e0c5f61bb1ac94921c>@@@Z@4HA 0000000180041357 f   libucrt:onexit.obj
 0001:00040357       ?fin$0@?0???$?RV<lambda_bd00b5aa228bd7e7e5b2b5db5fd2933b>@@AEAV<lambda_777d11615145f89ee95b9466d285deeb>@@V<lambda_6e5e48fbd24f9f8f81b203eb3d877683>@@@?$__crt_seh_guarded_call@H@@QEAAH$$QEAV<lambda_bd00b5aa228bd7e7e5b2b5db5fd2933b>@@AEAV<lambda_777d11615145f89ee95b9466d285deeb>@@$$QEAV<lambda_6e5e48fbd24f9f8f81b203eb3d877683>@@@Z@4HA 0000000180041357 f   libucrt:winapi_thunks.obj
 0001:00040357       ?fin$0@?0???$?RV<lambda_aa87e3671a710a21b5dc78c0bdf72e11>@@AEAV<lambda_92619d2358a28f41a33ba319515a20b9>@@V<lambda_6992ecaafeb10aed2b74cb1fae11a551>@@@?$__crt_seh_guarded_call@X@@QEAAX$$QEAV<lambda_aa87e3671a710a21b5dc78c0bdf72e11>@@AEAV<lambda_92619d2358a28f41a33ba319515a20b9>@@$$QEAV<lambda_6992ecaafeb10aed2b74cb1fae11a551>@@@Z@4HA 0000000180041357 f   libucrt:per_thread_data.obj
 0001:00040357       ?fin$0@?0???$?RV<lambda_f2e299630e499de9f9a165e60fcd3db5>@@AEAV<lambda_2ae9d31cdba2644fcbeaf08da7c24588>@@V<lambda_40d01ff24d0e7b3814fdbdcee8eab3c7>@@@?$__crt_seh_guarded_call@X@@QEAAX$$QEAV<lambda_f2e299630e499de9f9a165e60fcd3db5>@@AEAV<lambda_2ae9d31cdba2644fcbeaf08da7c24588>@@$$QEAV<lambda_40d01ff24d0e7b3814fdbdcee8eab3c7>@@@Z@4HA 0000000180041357 f   libucrt:per_thread_data.obj
 0001:00040357       ?fin$0@?0???$?RV<lambda_efdfa57d1f175319df784efa44bb7b81>@@AEAV<lambda_5f0a4c1567f8adc6734073e5d1e1b35c>@@V<lambda_2e8a7d3640ea6ccb4c2413664c2db6fd>@@@?$__crt_seh_guarded_call@X@@QEAAX$$QEAV<lambda_efdfa57d1f175319df784efa44bb7b81>@@AEAV<lambda_5f0a4c1567f8adc6734073e5d1e1b35c>@@$$QEAV<lambda_2e8a7d3640ea6ccb4c2413664c2db6fd>@@@Z@4HA 0000000180041357 f   libucrt:mbctype.obj
 0001:00040357       ?fin$0@?0???$?RV<lambda_0ae27a3a962d80f24befdcbee591983d>@@AEAV<lambda_8d0ee55de4b1038c4002e0adecdf1839>@@V<lambda_dc504788e8f1664fe9b84e20bfb512f2>@@@?$__crt_seh_guarded_call@X@@QEAAX$$QEAV<lambda_0ae27a3a962d80f24befdcbee591983d>@@AEAV<lambda_8d0ee55de4b1038c4002e0adecdf1839>@@$$QEAV<lambda_dc504788e8f1664fe9b84e20bfb512f2>@@@Z@4HA 0000000180041357 f   libucrt:per_thread_data.obj
 0001:00040357       ?fin$0@?0???$?RV<lambda_2d41944a1d46af3157314b8a01080d33>@@AEAV<lambda_8f455de75cd7d7f24b4096f044d8b9e6>@@V<lambda_aa500f224e6afead328df44964fe2772>@@@?$__crt_seh_guarded_call@X@@QEAAX$$QEAV<lambda_2d41944a1d46af3157314b8a01080d33>@@AEAV<lambda_8f455de75cd7d7f24b4096f044d8b9e6>@@$$QEAV<lambda_aa500f224e6afead328df44964fe2772>@@@Z@4HA 0000000180041357 f   libucrt:per_thread_data.obj
 0001:00040357       ?fin$0@?0???$?RV<lambda_638799b9deba96c50f710eeac98168cd>@@AEAV<lambda_22ebabd17bc4fa466a2aca6d8deb888d>@@V<lambda_a6f7d7db0129f75315ebf26d50c089f1>@@@?$__crt_seh_guarded_call@H@@QEAAH$$QEAV<lambda_638799b9deba96c50f710eeac98168cd>@@AEAV<lambda_22ebabd17bc4fa466a2aca6d8deb888d>@@$$QEAV<lambda_a6f7d7db0129f75315ebf26d50c089f1>@@@Z@4HA 0000000180041357 f   libucrt:onexit.obj
 0001:00040371       _query_new_handler$fin$0   0000000180041371 f   libucrt:new_handler.obj
 0001:00040387       ?filt$0@?0???R<lambda_6e4b09c48022b2350581041d5f6b0c4c>@@QEBA@XZ@4HA 0000000180041387 f   libucrt:exit.obj
 0001:000403a2       raise$fin$0                00000001800413a2 f   libucrt:signal.obj
 0001:000403c3       _fcloseall$fin$0           00000001800413c3 f   libucrt:closeall.obj
 0001:000403dc       ?fin$0@?0???$?RV<lambda_886d6c58226a84441f68b9f2b8217b83>@@AEAV<lambda_ab61a845afdef5b7c387490eaf3616ee>@@V<lambda_f7f22ab5edc0698d5f6905b0d3f44752>@@@?$__crt_seh_guarded_call@X@@QEAAX$$QEAV<lambda_886d6c58226a84441f68b9f2b8217b83>@@AEAV<lambda_ab61a845afdef5b7c387490eaf3616ee>@@$$QEAV<lambda_f7f22ab5edc0698d5f6905b0d3f44752>@@@Z@4HA 00000001800413dc f   libucrt:fflush.obj
 0001:000403f9       __acrt_initialize_lowio$fin$0 00000001800413f9 f   libucrt:ioinit.obj
 0001:000403f9       __acrt_lowio_ensure_fh_exists$fin$0 00000001800413f9 f   libucrt:osfinfo.obj
 0001:00040412       ?fin$0@?0???$?RV<lambda_410d79af7f07d98d83a3f525b3859a53>@@AEAV<lambda_3e16ef9562a7dcce91392c22ab16ea36>@@V<lambda_38119f0e861e05405d8a144b9b982f0a>@@@?$__crt_seh_guarded_call@X@@QEAAX$$QEAV<lambda_410d79af7f07d98d83a3f525b3859a53>@@AEAV<lambda_3e16ef9562a7dcce91392c22ab16ea36>@@$$QEAV<lambda_38119f0e861e05405d8a144b9b982f0a>@@@Z@4HA 0000000180041412 f   libucrt:wsetlocale.obj
 0001:0004042c       ?fin$0@?0???$?RV<lambda_7f2adfce497ff2baa965cd4f576ecfd1>@@AEAV<lambda_2a444430fde8c29194d880d93eed5e8f>@@AEAV<lambda_8dff2cf36a5417162780cd64fa2883ef>@@@?$__crt_seh_guarded_call@X@@QEAAX$$QEAV<lambda_7f2adfce497ff2baa965cd4f576ecfd1>@@AEAV<lambda_2a444430fde8c29194d880d93eed5e8f>@@AEAV<lambda_8dff2cf36a5417162780cd64fa2883ef>@@@Z@4HA 000000018004142c f   libucrt:wsetlocale.obj
 0001:0004044d       _ctrlfp$filt$0             000000018004144d f   libucrt:fpctrl.obj
 0001:00040479       ?dtor$0@?0??_wcstombs_l_helper@@YA_KPEADPEB_W_KPEAU__crt_locale_pointers@@@Z@4HA 0000000180041479 f   libucrt:wcstombs.obj
 0001:00040485       ?fin$0@?0??update_thread_multibyte_data_internal@@YAPEAU__crt_multibyte_data@@QEAU__acrt_ptd@@QEAPEAU1@@Z@4HA 0000000180041485 f   libucrt:mbctype.obj
 0001:0004049e       fclose$fin$0               000000018004149e f   libucrt:fclose.obj
 0001:000404b6       ?fin$0@?0???$?RV<lambda_751a882b2c74d4b022dec766aa51a29a>@@AEAV<lambda_628dfdc04ba53c8bfc02c9951375f3f5>@@V<lambda_f6c7be5f7998530c34de24c7437d6b54>@@@?$__crt_seh_guarded_call@H@@QEAAH$$QEAV<lambda_751a882b2c74d4b022dec766aa51a29a>@@AEAV<lambda_628dfdc04ba53c8bfc02c9951375f3f5>@@$$QEAV<lambda_f6c7be5f7998530c34de24c7437d6b54>@@@Z@4HA 00000001800414b6 f   libucrt:close.obj
 0001:000404b6       ?fin$0@?0???$?RV<lambda_a37b2b86f63e897a80ea819b0eb08c01>@@AEAV<lambda_38ce7e780aa69e748d6df282ebc68efe>@@V<lambda_99fb1378e971ab6e7edea83e3a7a83a2>@@@?$__crt_seh_guarded_call@H@@QEAAH$$QEAV<lambda_a37b2b86f63e897a80ea819b0eb08c01>@@AEAV<lambda_38ce7e780aa69e748d6df282ebc68efe>@@$$QEAV<lambda_99fb1378e971ab6e7edea83e3a7a83a2>@@@Z@4HA 00000001800414b6 f   libucrt:commit.obj
 0001:000404d0       _write$fin$0               00000001800414d0 f   libucrt:write.obj
 0001:000404d0       ?fin$0@?0???$common_lseek@_J@@YA_JH_JH@Z@4HA 00000001800414d0 f   libucrt:lseek.obj
 0001:000404e7       __acrt_update_thread_locale_data$fin$0 00000001800414e7 f   libucrt:locale_refcounting.obj
 0001:00040500       _IsNonwritableInCurrentImage$filt$0 0000000180041500 f   LIBCMT:pesect.obj
 0001:00040520       ??__F?s_ct@Java@@0V?$Persistent@VFunctionTemplate@v8@@V?$NonCopyablePersistentTraits@VFunctionTemplate@v8@@@2@@Nan@@A@@YAXXZ 0000000180041520 f   java.obj
 0001:00040530       ??__F?s_nativeBindingLocation@Java@@0V?$basic_string@DU?$char_traits@D@std@@V?$allocator@D@2@@std@@A@@YAXXZ 0000000180041530 f   java.obj
 0001:000405a0       ??__F?sFunctionTemplates@JavaObject@@0V?$map@V?$basic_string@DU?$char_traits@D@std@@V?$allocator@D@2@@std@@PEAV?$Persistent@VFunctionTemplate@v8@@V?$NonCopyablePersistentTraits@VFunctionTemplate@v8@@@2@@Nan@@U?$less@V?$basic_string@DU?$char_traits@D@std@@V?$allocator@D@2@@std@@@2@V?$allocator@U?$pair@$$CBV?$basic_string@DU?$char_traits@D@std@@V?$allocator@D@2@@std@@PEAV?$Persistent@VFunctionTemplate@v8@@V?$NonCopyablePersistentTraits@VFunctionTemplate@v8@@@2@@Nan@@@std@@@2@@std@@A@@YAXXZ 00000001800415a0 f   javaObject.obj
 0001:000405e0       ??__F?s_proxyCt@JavaProxyObject@@0V?$Persistent@VFunctionTemplate@v8@@V?$NonCopyablePersistentTraits@VFunctionTemplate@v8@@@2@@Nan@@A@@YAXXZ 00000001800415e0 f   javaObject.obj
 0001:000405f0       ??__FkObject@@YAXXZ        00000001800415f0 f   utils.obj
 0001:00040660       ??__FkString@@YAXXZ        0000000180041660 f   utils.obj
 0001:000406d0       ??__FkInteger@@YAXXZ       00000001800416d0 f   utils.obj
 0001:00040740       ??__FkNumber@@YAXXZ        0000000180041740 f   utils.obj
 0001:000407b0       ??__FkLong@@YAXXZ          00000001800417b0 f   utils.obj
 0001:00040820       ??__FkDouble@@YAXXZ        0000000180041820 f   utils.obj
 0001:00040890       ??__FkBoolean@@YAXXZ       0000000180041890 f   utils.obj
 0001:000408f4       ??__Finitlocks@std@@YAXXZ  00000001800418f4 f   libcpmt:xlock.obj
 0001:00040900       ??__F_Fac_tidy_reg@std@@YAXXZ 0000000180041900 f   libcpmt:locale0.obj
 0001:0004095c       ??__Fclassic_locale@std@@YAXXZ 000000018004195c f   libcpmt:locale0.obj
 0001:0004099c       ??__Finit_atexit@@YAXXZ    000000018004199c f   libcpmt:iosptrs.obj
 0001:000409e4       ??__Finitlocks@std@@YAXXZ  00000001800419e4 f   libcpmt:iosptrs.obj
 0002:000002c0       ?initlocks$initializer$@std@@3P6AXXZEA 00000001800422c0     libcpmt:xlock.obj
 0002:000002c8       ?initlocks$initializer$@std@@3P6AXXZEA 00000001800422c8     libcpmt:iosptrs.obj
 0002:000002d0       ?init_atexit$initializer$@@3P6AXXZEA 00000001800422d0     libcpmt:iosptrs.obj
 0002:000002d8       ?_Fac_tidy_reg$initializer$@std@@3P6AXXZEA 00000001800422d8     libcpmt:locale0.obj
 0002:000002e0       ?classic_locale$initializer$@std@@3P6AXXZEA 00000001800422e0     libcpmt:locale0.obj
 0002:000002e8       ??s_ct$initializer$@Java@@0P6AXXZEA@@3P6AXXZEA 00000001800422e8     java.obj
 0002:000002f0       ??s_nativeBindingLocation$initializer$@Java@@0P6AXXZEA@@3P6AXXZEA 00000001800422f0     java.obj
 0002:000002f8       ??s_proxyCt$initializer$@JavaProxyObject@@0P6AXXZEA@@3P6AXXZEA 00000001800422f8     javaObject.obj
 0002:00000300       ??sFunctionTemplates$initializer$@JavaObject@@0P6AXXZEA@@3P6AXXZEA 0000000180042300     javaObject.obj
 0002:00000308       ?kNumber$initializer$@@3P6AXXZEA 0000000180042308     utils.obj
 0002:00000310       ?kDouble$initializer$@@3P6AXXZEA 0000000180042310     utils.obj
 0002:00000318       ?kInteger$initializer$@@3P6AXXZEA 0000000180042318     utils.obj
 0002:00000320       ?kLong$initializer$@@3P6AXXZEA 0000000180042320     utils.obj
 0002:00000328       ?kBoolean$initializer$@@3P6AXXZEA 0000000180042328     utils.obj
 0002:00000330       ?kString$initializer$@@3P6AXXZEA 0000000180042330     utils.obj
 0002:00000338       ?kObject$initializer$@@3P6AXXZEA 0000000180042338     utils.obj
 0002:00000358       ?pinit@@3P6AHXZEA          0000000180042358     libcpmt:winapisupp.obj
 0002:000004b0       $cppxdata$??_G_Locimp@locale@std@@MEAAPEAXI@Z 00000001800424b0     libcpmt:locale0.obj
 0002:000004d8       $cppxdata$?_Init@locale@std@@CAPEAV_Locimp@12@_N@Z 00000001800424d8     libcpmt:locale0.obj
 0002:00000550       $cppxdata$?_Tidy@ios_base@std@@AEAAXXZ 0000000180042550     libcpmt:ios.obj
 0002:00000580       ?_Win_errtab@std@@3QBU_Win_errtab_t@1@B 0000000180042580     libcpmt:syserror.obj
 0002:000007f0       ?_Sys_errtab@std@@3QBU_Sys_errtab_t@1@B 00000001800427f0     libcpmt:syserror.obj
 0002:00001880       $cppxdata$??__Finit_atexit@@YAXXZ 0000000180043880     libcpmt:iosptrs.obj
 0002:000018c0       digits                     00000001800438c0     libcpmt:xstoul.obj
 0002:000018e8       ndigs                      00000001800438e8     libcpmt:xstoul.obj
 0002:00001910       digits                     0000000180043910     libcpmt:xstoull.obj
 0002:00001938       ndigs                      0000000180043938     libcpmt:xstoull.obj
 0002:00001960       ?LcidToLocaleNameTable@@3QBULcidToLocaleName@@B 0000000180043960     libcpmt:winapinls.obj
 0002:000027a0       ?LocaleNameToIndexTable@@3QBULocaleNameIndex@@B 00000001800447a0     libcpmt:winapinls.obj
 0002:00004cb8       GS_ExceptionPointers       0000000180046cb8     LIBCMT:gs_report.obj
 0002:00004d00       ?ExceptionTemplate@?1??_CxxThrowException@@9@4UEHExceptionRecord@@B 0000000180046d00     libvcruntime:throw.obj
 0002:00004d40       ?ExceptionTemplate@?1??UnwindNestedFrames@__FrameHandler3@@SAXPEA_KPEAUEHExceptionRecord@@PEAU_CONTEXT@@0PEAXPEBU_s_FuncInfo@@HHPEBU_s_HandlerType@@PEAU_xDISPATCHER_CONTEXT@@E@Z@4U_EXCEPTION_RECORD@@B 0000000180046d40     libvcruntime:risctrnsctrl.obj
 0002:00004e08       ?module_names@?A0xa2c11a0a@@3QBQEB_WB 0000000180046e08     libvcruntime:winapi_downlevel.obj
 0002:00004ed8       ?candidate_modules@?1??try_get_FlsAlloc@@YAP6AKP6AXPEAX@Z@ZXZ@4QBW4module_id@?A0xa2c11a0a@@B 0000000180046ed8     libvcruntime:winapi_downlevel.obj
 0002:00004ee0       ?candidate_modules@?1??try_get_FlsFree@@YAP6AHK@ZXZ@4QBW4module_id@?A0xa2c11a0a@@B 0000000180046ee0     libvcruntime:winapi_downlevel.obj
 0002:00004ee8       ?candidate_modules@?1??try_get_FlsGetValue@@YAP6APEAXK@ZXZ@4QBW4module_id@?A0xa2c11a0a@@B 0000000180046ee8     libvcruntime:winapi_downlevel.obj
 0002:00004ef0       ?candidate_modules@?1??try_get_FlsSetValue@@YAP6AHKPEAX@ZXZ@4QBW4module_id@?A0xa2c11a0a@@B 0000000180046ef0     libvcruntime:winapi_downlevel.obj
 0002:00004ef8       ?candidate_modules@?1??try_get_InitializeCriticalSectionEx@@YAP6AHPEAU_RTL_CRITICAL_SECTION@@KK@ZXZ@4QBW4module_id@?A0xa2c11a0a@@B 0000000180046ef8     libvcruntime:winapi_downlevel.obj
 0002:00004f00       ?tokenTable@@3QBQEBDB      0000000180046f00     libvcruntime:undname.obj
 0002:00004f80       ?nameTable@@3QBQEBDB       0000000180046f80     libvcruntime:undname.obj
 0002:00005218       ?rttiTable@@3QBQEBDB       0000000180047218     libvcruntime:undname.obj
 0002:000064c0       ?errtable@@3QBUerrentry@?A0x31fdb9ec@@B 00000001800484c0     libucrt:errno.obj
 0002:00007000       __flag_x_one_y_snan        0000000180049000     libucrt:pow.obj
 0002:00007004       __flag_x_zero_z_inf        0000000180049004     libucrt:pow.obj
 0002:00007008       __flag_x_nan               0000000180049008     libucrt:pow.obj
 0002:0000700c       __flag_y_nan               000000018004900c     libucrt:pow.obj
 0002:00007010       __flag_x_nan_y_nan         0000000180049010     libucrt:pow.obj
 0002:00007014       __flag_x_neg_y_notint      0000000180049014     libucrt:pow.obj
 0002:00007018       __flag_z_zero              0000000180049018     libucrt:pow.obj
 0002:0000701c       __flag_z_denormal          000000018004901c     libucrt:pow.obj
 0002:00007020       __flag_z_inf               0000000180049020     libucrt:pow.obj
 0002:00007030       __ay_max_bound             0000000180049030     libucrt:pow.obj
 0002:00007038       __ay_min_bound             0000000180049038     libucrt:pow.obj
 0002:00007040       __sign_mask                0000000180049040     libucrt:pow.obj
 0002:00007048       __sign_and_exp_mask        0000000180049048     libucrt:pow.obj
 0002:00007050       __exp_mask                 0000000180049050     libucrt:pow.obj
 0002:00007058       __neg_inf                  0000000180049058     libucrt:pow.obj
 0002:00007060       __pos_inf                  0000000180049060     libucrt:pow.obj
 0002:00007068       __pos_one                  0000000180049068     libucrt:pow.obj
 0002:00007070       __pos_zero                 0000000180049070     libucrt:pow.obj
 0002:00007078       __exp_mant_mask            0000000180049078     libucrt:pow.obj
 0002:00007080       __mant_mask                0000000180049080     libucrt:pow.obj
 0002:00007088       __ind_pattern              0000000180049088     libucrt:pow.obj
 0002:00007090       __neg_qnan                 0000000180049090     libucrt:pow.obj
 0002:00007098       __qnan                     0000000180049098     libucrt:pow.obj
 0002:000070a0       __qnan_set                 00000001800490a0     libucrt:pow.obj
 0002:000070a8       __neg_one                  00000001800490a8     libucrt:pow.obj
 0002:000070b0       __neg_zero                 00000001800490b0     libucrt:pow.obj
 0002:000070b8       __exp_shift                00000001800490b8     libucrt:pow.obj
 0002:000070c0       __exp_bias                 00000001800490c0     libucrt:pow.obj
 0002:000070c8       __exp_bias_m1              00000001800490c8     libucrt:pow.obj
 0002:000070d0       __yexp_53                  00000001800490d0     libucrt:pow.obj
 0002:000070d8       __mant_full                00000001800490d8     libucrt:pow.obj
 0002:000070e0       __1_before_mant            00000001800490e0     libucrt:pow.obj
 0002:000070e8       __mask_mant_all8           00000001800490e8     libucrt:pow.obj
 0002:000070f0       __mask_mant9               00000001800490f0     libucrt:pow.obj
 0002:00007100       __real_fffffffff8000000    0000000180049100     libucrt:pow.obj
 0002:00007110       __mask_8000000000000000    0000000180049110     libucrt:pow.obj
 0002:00007120       __real_4090040000000000    0000000180049120     libucrt:pow.obj
 0002:00007130       __real_C090C80000000000    0000000180049130     libucrt:pow.obj
 0002:00007140       __real_ninf                0000000180049140     libucrt:pow.obj
 0002:00007150       __real_inf                 0000000180049150     libucrt:pow.obj
 0002:00007160       __real_nan                 0000000180049160     libucrt:pow.obj
 0002:00007170       __real_mant                0000000180049170     libucrt:pow.obj
 0002:00007180       __mask_1023                0000000180049180     libucrt:pow.obj
 0002:00007190       __mask_001                 0000000180049190     libucrt:pow.obj
 0002:000071a0       __real_log2_lead           00000001800491a0     libucrt:pow.obj
 0002:000071b0       __real_log2_tail           00000001800491b0     libucrt:pow.obj
 0002:000071c0       __real_two                 00000001800491c0     libucrt:pow.obj
 0002:000071d0       __real_one                 00000001800491d0     libucrt:pow.obj
 0002:000071e0       __real_half                00000001800491e0     libucrt:pow.obj
 0002:000071f0       __mask_100                 00000001800491f0     libucrt:pow.obj
 0002:00007200       __real_1_over_2            0000000180049200     libucrt:pow.obj
 0002:00007210       __real_1_over_3            0000000180049210     libucrt:pow.obj
 0002:00007220       __real_1_over_4            0000000180049220     libucrt:pow.obj
 0002:00007230       __real_1_over_5            0000000180049230     libucrt:pow.obj
 0002:00007240       __real_1_over_6            0000000180049240     libucrt:pow.obj
 0002:00007250       __real_1_over_7            0000000180049250     libucrt:pow.obj
 0002:00007260       __mask_1023_f              0000000180049260     libucrt:pow.obj
 0002:00007270       __mask_2045                0000000180049270     libucrt:pow.obj
 0002:00007280       __real_threshold           0000000180049280     libucrt:pow.obj
 0002:00007290       __real_notsign             0000000180049290     libucrt:pow.obj
 0002:000072a0       __log_F_inv_head           00000001800492a0     libucrt:pow.obj
 0002:00007ab0       __log_F_inv_tail           0000000180049ab0     libucrt:pow.obj
 0002:000082c0       __denormal_threshold       000000018004a2c0     libucrt:pow.obj
 0002:000082d0       __enable_almost_inf        000000018004a2d0     libucrt:pow.obj
 0002:000082e0       __real_zero                000000018004a2e0     libucrt:pow.obj
 0002:000082f0       __real_smallest_denormal   000000018004a2f0     libucrt:pow.obj
 0002:00008300       __denormal_tiny_threshold  000000018004a300     libucrt:pow.obj
 0002:00008310       __real_p65536              000000018004a310     libucrt:pow.obj
 0002:00008320       __real_m68800              000000018004a320     libucrt:pow.obj
 0002:00008330       __real_64_by_log2          000000018004a330     libucrt:pow.obj
 0002:00008340       __real_log2_by_64_head     000000018004a340     libucrt:pow.obj
 0002:00008350       __real_log2_by_64_tail     000000018004a350     libucrt:pow.obj
 0002:00008360       __real_1_by_720            000000018004a360     libucrt:pow.obj
 0002:00008370       __real_1_by_120            000000018004a370     libucrt:pow.obj
 0002:00008380       __real_1_by_24             000000018004a380     libucrt:pow.obj
 0002:00008390       __real_1_by_6              000000018004a390     libucrt:pow.obj
 0002:000083a0       __real_1_by_2              000000018004a3a0     libucrt:pow.obj
 0002:000083b0       __flag_x_one_y_snan        000000018004a3b0     libucrt:powf.obj
 0002:000083b4       __flag_x_zero_z_inf        000000018004a3b4     libucrt:powf.obj
 0002:000083b8       __flag_x_nan               000000018004a3b8     libucrt:powf.obj
 0002:000083bc       __flag_y_nan               000000018004a3bc     libucrt:powf.obj
 0002:000083c0       __flag_x_nan_y_nan         000000018004a3c0     libucrt:powf.obj
 0002:000083c4       __flag_x_neg_y_notint      000000018004a3c4     libucrt:powf.obj
 0002:000083c8       __flag_z_zero              000000018004a3c8     libucrt:powf.obj
 0002:000083cc       __flag_z_denormal          000000018004a3cc     libucrt:powf.obj
 0002:000083d0       __flag_z_inf               000000018004a3d0     libucrt:powf.obj
 0002:000083d4       L__1_by_3                  000000018004a3d4     libucrt:powf.obj
 0002:000083dc       L__log2                    000000018004a3dc     libucrt:powf.obj
 0002:000083e4       L__max_exp_arg             000000018004a3e4     libucrt:powf.obj
 0002:000083ec       L__min_exp_arg             000000018004a3ec     libucrt:powf.obj
 0002:000083f4       L__real_log2_by_64         000000018004a3f4     libucrt:powf.obj
 0002:000083fc       L__1_by_6                  000000018004a3fc     libucrt:powf.obj
 0002:00008404       L__real_threshold          000000018004a404     libucrt:powf.obj
 0002:0000840c       L__real_one                000000018004a40c     libucrt:powf.obj
 0002:00008414       L__real_two                000000018004a414     libucrt:powf.obj
 0002:0000841c       L__neg_zero                000000018004a41c     libucrt:powf.obj
 0002:00008430       L__real_ca42               000000018004a430     libucrt:powf.obj
 0002:00008438       L__real_ca4                000000018004a438     libucrt:powf.obj
 0002:00008440       L__real_ca31               000000018004a440     libucrt:powf.obj
 0002:00008448       L__real_ca3                000000018004a448     libucrt:powf.obj
 0002:00008450       L__clear_sign              000000018004a450     libucrt:powf.obj
 0002:00008460       L__real_64_by_log2         000000018004a460     libucrt:powf.obj
 0002:00008470       L__1_by_2                  000000018004a470     libucrt:powf.obj
 0002:00008480       L__1023                    000000018004a480     libucrt:powf.obj
 0002:00008490       L__xexp_bits_xmantissa_bits 000000018004a490     libucrt:powf.obj
 0002:00008db0       __acrt_initializers        000000018004adb0     libucrt:initialization.obj
 0002:00008eb0       ?module_names@?A0x391cf84c@@3QBQEB_WB 000000018004aeb0     libucrt:winapi_thunks.obj
 0002:00009458       ?candidate_modules@?1??try_get_AreFileApisANSI@@YAP6AHXZXZ@4QBW4module_id@?A0x391cf84c@@B 000000018004b458     libucrt:winapi_thunks.obj
 0002:00009470       ?candidate_modules@?1??try_get_CompareStringEx@@YAP6AHPEB_WK0H0HPEAU_nlsversioninfo@@PEAX_J@ZXZ@4QBW4module_id@?A0x391cf84c@@B 000000018004b470     libucrt:winapi_thunks.obj
 0002:00009488       ?candidate_modules@?1??try_get_EnumSystemLocalesEx@@YAP6AHP6AHPEA_WK_J@ZK1PEAX@ZXZ@4QBW4module_id@?A0x391cf84c@@B 000000018004b488     libucrt:winapi_thunks.obj
 0002:000094a8       ?candidate_modules@?1??try_get_FlsAlloc@@YAP6AKP6AXPEAX@Z@ZXZ@4QBW4module_id@?A0x391cf84c@@B 000000018004b4a8     libucrt:winapi_thunks.obj
 0002:000094c0       ?candidate_modules@?1??try_get_FlsFree@@YAP6AHK@ZXZ@4QBW4module_id@?A0x391cf84c@@B 000000018004b4c0     libucrt:winapi_thunks.obj
 0002:000094d0       ?candidate_modules@?1??try_get_FlsGetValue@@YAP6APEAXK@ZXZ@4QBW4module_id@?A0x391cf84c@@B 000000018004b4d0     libucrt:winapi_thunks.obj
 0002:000094e8       ?candidate_modules@?1??try_get_FlsSetValue@@YAP6AHKPEAX@ZXZ@4QBW4module_id@?A0x391cf84c@@B 000000018004b4e8     libucrt:winapi_thunks.obj
 0002:00009500       ?candidate_modules@?1??try_get_GetActiveWindow@@YAP6APEAUHWND__@@XZXZ@4QBW4module_id@?A0x391cf84c@@B 000000018004b500     libucrt:winapi_thunks.obj
 0002:00009518       ?candidate_modules@?1??try_get_GetDateFormatEx@@YAP6AHPEB_WKPEBU_SYSTEMTIME@@0PEA_WH0@ZXZ@4QBW4module_id@?A0x391cf84c@@B 000000018004b518     libucrt:winapi_thunks.obj
 0002:00009530       ?candidate_modules@?1??try_get_GetLastActivePopup@@YAP6APEAUHWND__@@PEAU2@@ZXZ@4QBW4module_id@?A0x391cf84c@@B 000000018004b530     libucrt:winapi_thunks.obj
 0002:00009550       ?candidate_modules@?1??try_get_GetLocaleInfoEx@@YAP6AHPEB_WKPEA_WH@ZXZ@4QBW4module_id@?A0x391cf84c@@B 000000018004b550     libucrt:winapi_thunks.obj
 0002:00009568       ?candidate_modules@?1??try_get_GetProcessWindowStation@@YAP6APEAUHWINSTA__@@XZXZ@4QBW4module_id@?A0x391cf84c@@B 000000018004b568     libucrt:winapi_thunks.obj
 0002:00009588       ?candidate_modules@?1??try_get_GetTimeFormatEx@@YAP6AHPEB_WKPEBU_SYSTEMTIME@@0PEA_WH@ZXZ@4QBW4module_id@?A0x391cf84c@@B 000000018004b588     libucrt:winapi_thunks.obj
 0002:000095a0       ?candidate_modules@?1??try_get_GetUserDefaultLocaleName@@YAP6AHPEA_WH@ZXZ@4QBW4module_id@?A0x391cf84c@@B 000000018004b5a0     libucrt:winapi_thunks.obj
 0002:000095c8       ?candidate_modules@?1??try_get_GetUserObjectInformationW@@YAP6AHPEAXH0KPEAK@ZXZ@4QBW4module_id@?A0x391cf84c@@B 000000018004b5c8     libucrt:winapi_thunks.obj
 0002:000095f0       ?candidate_modules@?1??try_get_InitializeCriticalSectionEx@@YAP6AHPEAU_RTL_CRITICAL_SECTION@@KK@ZXZ@4QBW4module_id@?A0x391cf84c@@B 000000018004b5f0     libucrt:winapi_thunks.obj
 0002:00009618       ?candidate_modules@?1??try_get_IsValidLocaleName@@YAP6AHPEB_W@ZXZ@4QBW4module_id@?A0x391cf84c@@B 000000018004b618     libucrt:winapi_thunks.obj
 0002:00009638       ?candidate_modules@?1??try_get_LCMapStringEx@@YAP6AHPEB_WK0HPEA_WHPEAU_nlsversioninfo@@PEAX_J@ZXZ@4QBW4module_id@?A0x391cf84c@@B 000000018004b638     libucrt:winapi_thunks.obj
 0002:00009650       ?candidate_modules@?1??try_get_LCIDToLocaleName@@YAP6AHKPEA_WHK@ZXZ@4QBW4module_id@?A0x391cf84c@@B 000000018004b650     libucrt:winapi_thunks.obj
 0002:00009670       ?candidate_modules@?1??try_get_LocaleNameToLCID@@YAP6AKPEB_WK@ZXZ@4QBW4module_id@?A0x391cf84c@@B 000000018004b670     libucrt:winapi_thunks.obj
 0002:00009690       ?candidate_modules@?1??try_get_MessageBoxA@@YAP6AHPEAUHWND__@@PEBD1I@ZXZ@4QBW4module_id@?A0x391cf84c@@B 000000018004b690     libucrt:winapi_thunks.obj
 0002:000096a8       ?candidate_modules@?1??try_get_MessageBoxW@@YAP6AHPEAUHWND__@@PEB_W1I@ZXZ@4QBW4module_id@?A0x391cf84c@@B 000000018004b6a8     libucrt:winapi_thunks.obj
 0002:000096bc       ?candidate_modules@?1??try_get_AppPolicyGetProcessTerminationMethod@@YAP6AJPEAXPEAW4AppPolicyProcessTerminationMethod@@@ZXZ@4QBW4module_id@?A0x391cf84c@@B 000000018004b6bc     libucrt:winapi_thunks.obj
 0002:000096e8       ?candidate_modules@?1??try_get_AppPolicyGetShowDeveloperDiagnostic@@YAP6AJPEAXPEAW4AppPolicyShowDeveloperDiagnostic@@@ZXZ@4QBW4module_id@?A0x391cf84c@@B 000000018004b6e8     libucrt:winapi_thunks.obj
 0002:00009714       ?candidate_modules@?1??try_get_AppPolicyGetWindowingModel@@YAP6AJPEAXPEAW4AppPolicyWindowingModel@@@ZXZ@4QBW4module_id@?A0x391cf84c@@B 000000018004b714     libucrt:winapi_thunks.obj
 0002:00009790       _first_127char             000000018004b790     libucrt:wsetlocale.obj
 0002:00009ff0       ?_names@?1??_get_fname@@9@9 000000018004bff0     libucrt:fpexcept.obj
 0002:0000a2a0       $cppxdata$?_wcstombs_l_helper@@YA_KPEADPEB_W_KPEAU__crt_locale_pointers@@@Z 000000018004c2a0     libucrt:wcstombs.obj
 0002:0000c110       ?_mb_locale_names@@3QBQEB_WB 000000018004e110     libucrt:mbctype.obj
 0002:0000c170       ?LcidToLocaleNameTable@?A0x881e4c05@@3QBULcidToLocaleName@1@B 000000018004e170     libucrt:lcidtoname_downlevel.obj
 0002:0000dbd0       ?LocaleNameToIndexTable@?A0x881e4c05@@3QBULocaleNameIndex@1@B 000000018004fbd0     libucrt:lcidtoname_downlevel.obj
 0002:00010460       __real@433fffffffffffff    0000000180052460     libucrt:fpsr.obj
 0002:00010468       __real@c33fffffffffffff    0000000180052468     libucrt:fpsr.obj
 0002:00010470       __real_ninf                0000000180052470     libucrt:log10.obj
 0002:00010480       __real_inf                 0000000180052480     libucrt:log10.obj
 0002:00010490       __real_neg_qnan            0000000180052490     libucrt:log10.obj
 0002:000104a0       __real_qnanbit             00000001800524a0     libucrt:log10.obj
 0002:000104b0       __int_1023                 00000001800524b0     libucrt:log10.obj
 0002:000104c0       __mask_001                 00000001800524c0     libucrt:log10.obj
 0002:000104d0       __mask_mant                00000001800524d0     libucrt:log10.obj
 0002:000104e0       __mask_mant_top8           00000001800524e0     libucrt:log10.obj
 0002:000104f0       __mask_mant9               00000001800524f0     libucrt:log10.obj
 0002:00010500       __real_log10_e             0000000180052500     libucrt:log10.obj
 0002:00010510       __real_log10_e_lead        0000000180052510     libucrt:log10.obj
 0002:00010520       __real_log10_e_tail        0000000180052520     libucrt:log10.obj
 0002:00010530       __real_log10_2_lead        0000000180052530     libucrt:log10.obj
 0002:00010540       __real_log10_2_tail        0000000180052540     libucrt:log10.obj
 0002:00010550       __real_two                 0000000180052550     libucrt:log10.obj
 0002:00010560       __real_one                 0000000180052560     libucrt:log10.obj
 0002:00010570       __real_half                0000000180052570     libucrt:log10.obj
 0002:00010580       __mask_100                 0000000180052580     libucrt:log10.obj
 0002:00010590       __real_1_over_512          0000000180052590     libucrt:log10.obj
 0002:000105a0       __real_1_over_2            00000001800525a0     libucrt:log10.obj
 0002:000105b0       __real_1_over_3            00000001800525b0     libucrt:log10.obj
 0002:000105c0       __real_1_over_4            00000001800525c0     libucrt:log10.obj
 0002:000105d0       __real_1_over_5            00000001800525d0     libucrt:log10.obj
 0002:000105e0       __real_1_over_6            00000001800525e0     libucrt:log10.obj
 0002:000105f0       __real_neg_1023            00000001800525f0     libucrt:log10.obj
 0002:00010600       __mask_2045                0000000180052600     libucrt:log10.obj
 0002:00010610       __real_threshold           0000000180052610     libucrt:log10.obj
 0002:00010620       __real_near_one_lt         0000000180052620     libucrt:log10.obj
 0002:00010630       __real_near_one_gt         0000000180052630     libucrt:log10.obj
 0002:00010640       __real_min_norm            0000000180052640     libucrt:log10.obj
 0002:00010650       __real_notsign             0000000180052650     libucrt:log10.obj
 0002:00010660       __real_ca1                 0000000180052660     libucrt:log10.obj
 0002:00010670       __real_ca2                 0000000180052670     libucrt:log10.obj
 0002:00010680       __real_ca3                 0000000180052680     libucrt:log10.obj
 0002:00010690       __real_ca4                 0000000180052690     libucrt:log10.obj
 0002:000106a0       __mask_lower               00000001800526a0     libucrt:log10.obj
 0002:000106b0       __flag_x_zero              00000001800526b0     libucrt:log10.obj
 0002:000106b4       __flag_x_neg               00000001800526b4     libucrt:log10.obj
 0002:000106b8       __flag_x_nan               00000001800526b8     libucrt:log10.obj
 0002:00012db0       ?piecewise_construct@std@@3Upiecewise_construct_t@1@B 0000000180054db0     javaObject.obj
 0002:00014680       $unwind$fprintf            0000000180056680     java.obj
 0002:00014680       $unwind$fwprintf           0000000180056680     libucrt:assert.obj
 0002:0001468c       $unwind$sprintf_s          000000018005668c     java.obj
 0002:0001468c       $unwind$swprintf           000000018005668c     libucrt:assert.obj
 0002:0001469c       $unwind$?equivalent@error_category@std@@UEBA_NHAEBVerror_condition@2@@Z 000000018005669c     java.obj
 0002:0001469c       $unwind$??0runtime_error@std@@QEAA@PEBD@Z 000000018005669c     libcpmt:xthrow.obj
 0002:0001469c       $unwind$??$common_xtox_s@K_W@@YAHKQEA_W_KI_N@Z 000000018005669c     libucrt:xtoa.obj
 0002:0001469c       $unwind$??0out_of_range@std@@QEAA@PEBD@Z 000000018005669c     libcpmt:xthrow.obj
 0002:0001469c       $unwind$?__mbrtowc_utf8@__crt_mbstring@@YA_KPEA_WPEBD_KPEAU_Mbstatet@@@Z 000000018005669c     libucrt:mbrtowc.obj
 0002:0001469c       $unwind$??0length_error@std@@QEAA@PEBD@Z 000000018005669c     libcpmt:xthrow.obj
 0002:0001469c       $unwind$__stdio_common_vsprintf_s 000000018005669c     libucrt:output.obj
 0002:0001469c       $unwind$?_Raise@exception@stdext@@QEBAXXZ 000000018005669c     java.obj
 0002:000146a4       $unwind$?Unref@ObjectWrap@Nan@@MEAAXXZ 00000001800566a4     java.obj
 0002:000146a4       $unwind$uninitialize_allocated_memory 00000001800566a4     libucrt:initialization.obj
 0002:000146a4       $unwind$__acrt_FlsGetValue 00000001800566a4     libucrt:winapi_thunks.obj
 0002:000146a4       $unwind$?Ref@ObjectWrap@Nan@@MEAAXXZ 00000001800566a4     java.obj
 0002:000146a4       $unwind$__acrt_FlsFree     00000001800566a4     libucrt:winapi_thunks.obj
 0002:000146a4       $unwind$__acrt_FlsAlloc    00000001800566a4     libucrt:winapi_thunks.obj
 0002:000146a4       $unwind$?type_case_s@?$output_processor@DV?$string_output_adapter@D@__crt_stdio_output@@V?$format_validation_base@DV?$string_output_adapter@D@__crt_stdio_output@@@2@@__crt_stdio_output@@AEAA_NXZ 00000001800566a4     libucrt:output.obj
 0002:000146a4       $unwind$__acrt_uninitialize_winapi_thunks 00000001800566a4     libucrt:winapi_thunks.obj
 0002:000146a4       $unwind$wcscat_s           00000001800566a4     libucrt:wcscat_s.obj
 0002:000146a4       $unwind$?initialize_pointers@@YAHXZ 00000001800566a4     libcpmt:winapisupp.obj
 0002:000146a4       $unwind$??_G_System_error@std@@UEAAPEAXI@Z 00000001800566a4     java.obj
 0002:000146a4       $unwind$__acrt_freeptd     00000001800566a4     libucrt:per_thread_data.obj
 0002:000146a4       $unwind$?message@_Iostream_error_category@std@@UEBA?AV?$basic_string@DU?$char_traits@D@std@@V?$allocator@D@2@@2@H@Z 00000001800566a4     java.obj
 0002:000146a4       $unwind$_Getctype          00000001800566a4     libcpmt:_tolower.obj
 0002:000146a4       $unwind$??$Unwrap@VJavaObject@@@ObjectWrap@Nan@@SAPEAVJavaObject@@V?$Local@VObject@v8@@@v8@@@Z 00000001800566a4     java.obj
 0002:000146a4       $unwind$??_G_Iostream_error_category@std@@UEAAPEAXI@Z 00000001800566a4     java.obj
 0002:000146a4       $unwind$?_Ios_base_dtor@ios_base@std@@CAXPEAV12@@Z 00000001800566a4     libcpmt:ios.obj
 0002:000146a4       $unwind$?type_case_c_tchar@?$output_processor@DV?$string_output_adapter@D@__crt_stdio_output@@V?$format_validation_base@DV?$string_output_adapter@D@__crt_stdio_output@@@2@@__crt_stdio_output@@AEAA_ND@Z 00000001800566a4     libucrt:output.obj
 0002:000146a4       $unwind$??_G_Facet_base@std@@UEAAPEAXI@Z 00000001800566a4     java.obj
 0002:000146a4       $unwind$??0exception@std@@QEAA@AEBV01@@Z 00000001800566a4     libcpmt:xonce.obj
 0002:000146a4       $unwind$?_Setgloballocale@locale@std@@CAXPEAX@Z 00000001800566a4     libcpmt:locale0.obj
 0002:000146a4       $unwind$__acrt_get_parent_window 00000001800566a4     libucrt:winapi_thunks.obj
 0002:000146a4       $unwind$??$Unwrap@VJava@@@ObjectWrap@Nan@@SAPEAVJava@@V?$Local@VObject@v8@@@v8@@@Z 00000001800566a4     java.obj
 0002:000146a4       $unwind$??__F_Fac_tidy_reg@std@@YAXXZ 00000001800566a4     libcpmt:locale0.obj
 0002:000146a4       $unwind$?_Facet_Register@std@@YAXPEAV_Facet_base@1@@Z 00000001800566a4     libcpmt:locale0.obj
 0002:000146a4       $unwind$?uflow@?$basic_streambuf@DU?$char_traits@D@std@@@std@@MEAAHXZ 00000001800566a4     java.obj
 0002:000146a4       $unwind$_malloc_base       00000001800566a4     libucrt:malloc_base.obj
 0002:000146a4       $unwind$?DloadAcquireSectionWriteAccess@@YAXXZ 00000001800566a4     DelayImp:delayhlp.obj
 0002:000146a4       $unwind$__acrt_AppPolicyGetWindowingModelInternal 00000001800566a4     libucrt:winapi_thunks.obj
 0002:000146a4       $unwind$__acrt_AppPolicyGetShowDeveloperDiagnosticInternal 00000001800566a4     libucrt:winapi_thunks.obj
 0002:000146a4       $unwind$__acrt_AppPolicyGetProcessTerminationMethodInternal 00000001800566a4     libucrt:winapi_thunks.obj
 0002:000146a4       $unwind$??0out_of_range@std@@QEAA@AEBV01@@Z 00000001800566a4     libcpmt:xthrow.obj
 0002:000146a4       $unwind$??0length_error@std@@QEAA@AEBV01@@Z 00000001800566a4     libcpmt:xthrow.obj
 0002:000146a4       $unwind$??0logic_error@std@@QEAA@AEBV01@@Z 00000001800566a4     libcpmt:xthrow.obj
 0002:000146a4       $unwind$??0bad_alloc@std@@QEAA@AEBV01@@Z 00000001800566a4     libcpmt:xthrow.obj
 0002:000146a4       $unwind$??0runtime_error@std@@QEAA@AEBV01@@Z 00000001800566a4     libcpmt:xonce.obj
 0002:000146a4       $unwind$?do_grouping@?$numpunct@D@std@@MEBA?AV?$basic_string@DU?$char_traits@D@std@@V?$allocator@D@2@@2@XZ 00000001800566a4     java.obj
 0002:000146a4       $unwind$?do_falsename@?$numpunct@D@std@@MEBA?AV?$basic_string@DU?$char_traits@D@std@@V?$allocator@D@2@@2@XZ 00000001800566a4     java.obj
 0002:000146a4       $unwind$??0_Lockit@std@@QEAA@H@Z 00000001800566a4     libcpmt:xlock.obj
 0002:000146a4       $unwind$?do_truename@?$numpunct@D@std@@MEBA?AV?$basic_string@DU?$char_traits@D@std@@V?$allocator@D@2@@2@XZ 00000001800566a4     java.obj
 0002:000146a4       $unwind$__acrt_allocate_buffer_for_argv 00000001800566a4     libucrt:argv_parsing.obj
 0002:000146a4       $unwind$?WeakCallback@ObjectWrap@Nan@@CAXAEBV?$WeakCallbackInfo@VObjectWrap@Nan@@@v8@@@Z 00000001800566a4     java.obj
 0002:000146a4       $unwind$??_G?$num_put@DV?$ostreambuf_iterator@DU?$char_traits@D@std@@@std@@@std@@MEAAPEAXI@Z 00000001800566a4     java.obj
 0002:000146a4       $unwind$initialize_pointers 00000001800566a4     libucrt:initialization.obj
 0002:000146a4       $unwind$__acrt_IsValidLocaleName 00000001800566a4     libucrt:winapi_thunks.obj
 0002:000146a4       $unwind$?do_widen@?$ctype@D@std@@MEBAPEBDPEBD0PEAD@Z 00000001800566a4     java.obj
 0002:000146a4       $unwind$__acrt_getptd_head 00000001800566a4     libucrt:per_thread_data.obj
 0002:000146a4       $unwind$?do_narrow@?$ctype@D@std@@MEBAPEBDPEBD0DPEAD@Z 00000001800566a4     java.obj
 0002:000146a4       $unwind$??_Gexception@stdext@@UEAAPEAXI@Z 00000001800566a4     java.obj
 0002:000146a4       $unwind$?internal_isupper_l@@YA_NHQEAU__crt_locale_pointers@@@Z 00000001800566a4     libucrt:tolower_toupper.obj
 0002:000146a4       $unwind$?doUnref@JavaProxyObject@@CAXAEBV?$FunctionCallbackInfo@VValue@v8@@@Nan@@@Z 00000001800566a4     javaObject.obj
 0002:000146a4       $unwind$??$_Insert_at@AEAU?$pair@$$CBV?$basic_string@DU?$char_traits@D@std@@V?$allocator@D@2@@std@@PEAV?$Persistent@VFunctionTemplate@v8@@V?$NonCopyablePersistentTraits@VFunctionTemplate@v8@@@2@@Nan@@@std@@PEAU?$_Tree_node@U?$pair@$$CBV?$basic_string@DU?$char_traits@D@std@@V?$allocator@D@2@@std@@PEAV?$Persistent@VFunctionTemplate@v8@@V?$NonCopyablePersistentTraits@VFunctionTemplate@v8@@@2@@Nan@@@std@@PEAX@2@@?$_Tree@V?$_Tmap_traits@V?$basic_string@DU?$char_traits@D@std@@V?$allocator@D@2@@std@@PEAV?$Persistent@VFunctionTemplate@v8@@V?$NonCopyablePersistentTraits@VFunctionTemplate@v8@@@2@@Nan@@U?$less@V?$basic_string@DU?$char_traits@D@std@@V?$allocator@D@2@@std@@@2@V?$allocator@U?$pair@$$CBV?$basic_string@DU?$char_traits@D@std@@V?$allocator@D@2@@std@@PEAV?$Persistent@VFunctionTemplate@v8@@V?$NonCopyablePersistentTraits@VFunctionTemplate@v8@@@2@@Nan@@@std@@@2@$0A@@std@@@std@@IEAA?AV?$_Tree_iterator@V?$_Tree_val@U?$_Tree_simple_types@U?$pair@$$CBV?$basic_string@DU?$char_traits@D@std@@V?$allocator@D@2@@std@@PEAV?$Persistent@VFunctionTemplate@v8@@V?$NonCopyablePersistentTraits@VFunctionTemplate@v8@@@2@@Nan@@@std@@@std@@@std@@@1@_NPEAU?$_Tree_node@U?$pair@$$CBV?$basic_string@DU?$char_traits@D@std@@V?$allocator@D@2@@std@@PEAV?$Persistent@VFunctionTemplate@v8@@V?$NonCopyablePersistentTraits@VFunctionTemplate@v8@@@2@@Nan@@@std@@PEAX@1@AEAU?$pair@$$CBV?$basic_string@DU?$char_traits@D@std@@V?$allocator@D@2@@std@@PEAV?$Persistent@VFunctionTemplate@v8@@V?$NonCopyablePersistentTraits@VFunctionTemplate@v8@@@2@@Nan@@@1@1@Z 00000001800566a4     javaObject.obj
 0002:000146a4       $unwind$?_Destroy_if_node@?$_Tree@V?$_Tmap_traits@V?$basic_string@DU?$char_traits@D@std@@V?$allocator@D@2@@std@@PEAV?$Persistent@VFunctionTemplate@v8@@V?$NonCopyablePersistentTraits@VFunctionTemplate@v8@@@2@@Nan@@U?$less@V?$basic_string@DU?$char_traits@D@std@@V?$allocator@D@2@@std@@@2@V?$allocator@U?$pair@$$CBV?$basic_string@DU?$char_traits@D@std@@V?$allocator@D@2@@std@@PEAV?$Persistent@VFunctionTemplate@v8@@V?$NonCopyablePersistentTraits@VFunctionTemplate@v8@@@2@@Nan@@@std@@@2@$0A@@std@@@std@@IEAAXPEAU?$_Tree_node@U?$pair@$$CBV?$basic_string@DU?$char_traits@D@std@@V?$allocator@D@2@@std@@PEAV?$Persistent@VFunctionTemplate@v8@@V?$NonCopyablePersistentTraits@VFunctionTemplate@v8@@@2@@Nan@@@std@@PEAX@2@@Z 00000001800566a4     javaObject.obj
 0002:000146a4       $unwind$??_Gfailure@ios_base@std@@UEAAPEAXI@Z 00000001800566a4     java.obj
 0002:000146a4       $unwind$wcscpy_s           00000001800566a4     libucrt:wcscpy_s.obj
 0002:000146a4       $unwind$??$Unwrap@VJavaProxyObject@@@ObjectWrap@Nan@@SAPEAVJavaProxyObject@@V?$Local@VObject@v8@@@v8@@@Z 00000001800566a4     javaObject.obj
 0002:000146a4       $unwind$_fflush_nolock     00000001800566a4     libucrt:fflush.obj
 0002:000146a4       $unwind$_clearfp           00000001800566a4     libucrt:ieee.obj
 0002:000146a4       $unwind$?Unref@JavaObject@@UEAAXXZ 00000001800566a4     javaObject.obj
 0002:000146a4       $unwind$?Ref@JavaObject@@UEAAXXZ 00000001800566a4     javaObject.obj
 0002:000146a4       $unwind$_callnewh          00000001800566a4     libucrt:new_handler.obj
 0002:000146a4       $unwind$?__c16rtomb_utf8@__crt_mbstring@@YA_KPEAD_SPEAU_Mbstatet@@@Z 00000001800566a4     libucrt:c16rtomb.obj
 0002:000146a4       $unwind$?AsyncExecuteComplete@Nan@@YAXPEAUuv_work_s@@@Z 00000001800566a4     methodCallBaton.obj
 0002:000146a4       $unwind$__acrt_get_developer_information_policy 00000001800566a4     libucrt:win_policies.obj
 0002:000146a4       $unwind$?run@MethodCallBaton@@QEAAXXZ 00000001800566a4     methodCallBaton.obj
 0002:000146a4       $unwind$feholdexcept       00000001800566a4     libucrt:feholdexcept.obj
 0002:000146a4       $unwind$fesetenv           00000001800566a4     libucrt:fesetenv.obj
 0002:000146a4       $unwind$__acrt_stdio_free_buffer_nolock 00000001800566a4     libucrt:_freebuf.obj
 0002:000146a4       $unwind$?stream_is_at_end_of_file_nolock@@YA_NV__crt_stdio_stream@@@Z 00000001800566a4     libucrt:_flsbuf.obj
 0002:000146a4       $unwind$?type_case_s@?$output_processor@DV?$stream_output_adapter@D@__crt_stdio_output@@V?$standard_base@DV?$stream_output_adapter@D@__crt_stdio_output@@@2@@__crt_stdio_output@@AEAA_NXZ 00000001800566a4     libucrt:output.obj
 0002:000146a4       $unwind$??_D?$basic_ostringstream@DU?$char_traits@D@std@@V?$allocator@D@2@@std@@QEAAXXZ 00000001800566a4     java.obj
 0002:000146a4       $unwind$?type_case_c_tchar@?$output_processor@DV?$stream_output_adapter@D@__crt_stdio_output@@V?$standard_base@DV?$stream_output_adapter@D@__crt_stdio_output@@@2@@__crt_stdio_output@@AEAA_ND@Z 00000001800566a4     libucrt:output.obj
 0002:000146a4       $unwind$?state_case_normal_tchar@?$output_processor@DV?$stream_output_adapter@D@__crt_stdio_output@@V?$standard_base@DV?$stream_output_adapter@D@__crt_stdio_output@@@2@@__crt_stdio_output@@AEAA_ND@Z 00000001800566a4     libucrt:output.obj
 0002:000146a4       $unwind$?state_case_normal@?$output_processor@DV?$stream_output_adapter@D@__crt_stdio_output@@V?$standard_base@DV?$stream_output_adapter@D@__crt_stdio_output@@@2@@__crt_stdio_output@@AEAA_NXZ 00000001800566a4     libucrt:output.obj
 0002:000146a4       $unwind$__acrt_uninitialize_stdio 00000001800566a4     libucrt:_file.obj
 0002:000146a4       $unwind$fegetenv           00000001800566a4     libucrt:fegetenv.obj
 0002:000146a4       $unwind$__vcrt_FlsGetValue 00000001800566a4     libvcruntime:winapi_downlevel.obj
 0002:000146a4       $unwind$__vcrt_FlsFree     00000001800566a4     libvcruntime:winapi_downlevel.obj
 0002:000146a4       $unwind$__vcrt_FlsAlloc    00000001800566a4     libvcruntime:winapi_downlevel.obj
 0002:000146a4       $unwind$__acrt_update_multibyte_info 00000001800566a4     libucrt:locale_update.obj
 0002:000146a4       $unwind$??1?$basic_string@DU?$char_traits@D@std@@V?$allocator@D@2@@std@@QEAA@XZ 00000001800566a4     java.obj
 0002:000146a4       $unwind$__acrt_update_locale_info 00000001800566a4     libucrt:locale_update.obj
 0002:000146a4       $unwind$__vcrt_uninitialize_locks 00000001800566a4     libvcruntime:locks.obj
 0002:000146a4       $unwind$__acrt_get_windowing_model_policy 00000001800566a4     libucrt:win_policies.obj
 0002:000146a4       $unwind$__vcrt_initialize_locks 00000001800566a4     libvcruntime:locks.obj
 0002:000146a4       $unwind$?ExFilterRethrow@@YAHPEAU_EXCEPTION_POINTERS@@PEAUEHExceptionRecord@@PEAH@Z 00000001800566a4     libvcruntime:frame.obj
 0002:000146a4       $unwind$??0bad_exception@std@@QEAA@AEBV01@@Z 00000001800566a4     libvcruntime:frame.obj
 0002:000146a4       $unwind$?str@?$basic_ostringstream@DU?$char_traits@D@std@@V?$allocator@D@2@@std@@QEBA?AV?$basic_string@DU?$char_traits@D@std@@V?$allocator@D@2@@2@XZ 00000001800566a4     java.obj
 0002:000146a4       $unwind$_clrfp             00000001800566a4     libucrt:fpctrl.obj
 0002:000146a4       $unwind$__acrt_get_process_end_policy 00000001800566a4     libucrt:win_policies.obj
 0002:000146a4       $unwind$__acrt_uninitialize_locks 00000001800566a4     libucrt:locks.obj
 0002:000146a4       $unwind$?try_cor_exit_process@@YAXI@Z 00000001800566a4     libucrt:exit.obj
 0002:000146a4       $unwind$_set_statfp        00000001800566a4     libucrt:fpctrl.obj
 0002:000146a4       $unwind$__acrt_initialize_locks 00000001800566a4     libucrt:locks.obj
 0002:000146a4       $unwind$?GetUnwindTryBlock@__FrameHandler3@@SAHPEA_KPEAU_xDISPATCHER_CONTEXT@@PEBU_s_FuncInfo@@@Z 00000001800566a4     libvcruntime:ehstate.obj
 0002:000146a4       $unwind$?exit_or_terminate_process@@YAXI@Z 00000001800566a4     libucrt:exit.obj
 0002:000146a4       $unwind$?StateFromIp@__FrameHandler3@@SAHPEBU_s_FuncInfo@@PEAU_xDISPATCHER_CONTEXT@@_K@Z 00000001800566a4     libvcruntime:ehstate.obj
 0002:000146a4       $unwind$__vcrt_freeptd     00000001800566a4     libvcruntime:per_thread_data.obj
 0002:000146a4       $unwind$__std_type_info_destroy_list 00000001800566a4     libvcruntime:std_type_info.obj
 0002:000146a4       $unwind$_IsExceptionObjectToBeDestroyed 00000001800566a4     libvcruntime:ehhelpers.obj
 0002:000146a4       $unwind$_CreateFrameInfo   00000001800566a4     libvcruntime:risctrnsctrl.obj
 0002:000146a4       $unwind$_SetThrowImageBase 00000001800566a4     libvcruntime:risctrnsctrl.obj
 0002:000146a4       $unwind$_SetImageBase      00000001800566a4     libvcruntime:risctrnsctrl.obj
 0002:000146a4       $unwind$?ExecutionInCatch@__FrameHandler3@@SA_NPEAU_xDISPATCHER_CONTEXT@@PEBU_s_FuncInfo@@@Z 00000001800566a4     libvcruntime:risctrnsctrl.obj
 0002:000146a4       $unwind$??1?$basic_stringbuf@DU?$char_traits@D@std@@V?$allocator@D@2@@std@@UEAA@XZ 00000001800566a4     java.obj
 0002:000146a4       $unwind$__std_exception_destroy 00000001800566a4     libvcruntime:std_exception.obj
 0002:000146a4       $unwind$??0bad_array_new_length@std@@QEAA@AEBV01@@Z 00000001800566a4     LIBCMT:throw_bad_alloc.obj
 0002:000146a4       $unwind$__raise_securityfailure 00000001800566a4     LIBCMT:gs_report.obj
 0002:000146a4       $unwind$??_Gtype_info@@UEAAPEAXI@Z 00000001800566a4     LIBCMT:std_type_info_static.obj
 0002:000146a4       $unwind$__scrt_initialize_onexit_tables 00000001800566a4     LIBCMT:utility.obj
 0002:000146a4       $unwind$__scrt_uninitialize_crt 00000001800566a4     LIBCMT:utility.obj
 0002:000146a4       $unwind$__scrt_initialize_crt 00000001800566a4     LIBCMT:utility.obj
 0002:000146a4       $unwind$??_Gruntime_error@std@@UEAAPEAXI@Z 00000001800566a4     java.obj
 0002:000146a4       $unwind$__scrt_release_startup_lock 00000001800566a4     LIBCMT:utility.obj
 0002:000146a4       $unwind$_onexit            00000001800566a4     LIBCMT:utility.obj
 0002:000146a4       $unwind$??2@YAPEAX_K@Z     00000001800566a4     LIBCMT:new_scalar.obj
 0002:000146a4       $unwind$strcpy_s           00000001800566a4     libucrt:strcpy_s.obj
 0002:000146a4       $unwind$_calloc_base       00000001800566a4     libucrt:calloc_base.obj
 0002:000146a4       $unwind$?unref@@YAXPEAUDynamicProxyData@@@Z 00000001800566a4     utils.obj
 0002:000146a4       $unwind$?state_case_normal@?$output_processor@DV?$string_output_adapter@D@__crt_stdio_output@@V?$format_validation_base@DV?$string_output_adapter@D@__crt_stdio_output@@@2@@__crt_stdio_output@@AEAA_NXZ 00000001800566a4     libucrt:output.obj
 0002:000146ac       $unwind$?CallStaticObjectMethod@JNIEnv_@@QEAAPEAV_jobject@@PEAV_jclass@@PEAU_jmethodID@@ZZ 00000001800566ac     java.obj
 0002:000146ac       $unwind$?CallDoubleMethod@JNIEnv_@@QEAANPEAV_jobject@@PEAU_jmethodID@@ZZ 00000001800566ac     java.obj
 0002:000146ac       $unwind$?CallFloatMethod@JNIEnv_@@QEAAMPEAV_jobject@@PEAU_jmethodID@@ZZ 00000001800566ac     java.obj
 0002:000146ac       $unwind$?CallIntMethod@JNIEnv_@@QEAAJPEAV_jobject@@PEAU_jmethodID@@ZZ 00000001800566ac     java.obj
 0002:000146ac       $unwind$?CallShortMethod@JNIEnv_@@QEAAFPEAV_jobject@@PEAU_jmethodID@@ZZ 00000001800566ac     java.obj
 0002:000146ac       $unwind$?CallCharMethod@JNIEnv_@@QEAAGPEAV_jobject@@PEAU_jmethodID@@ZZ 00000001800566ac     java.obj
 0002:000146ac       $unwind$?CallByteMethod@JNIEnv_@@QEAACPEAV_jobject@@PEAU_jmethodID@@ZZ 00000001800566ac     java.obj
 0002:000146ac       $unwind$?CallBooleanMethod@JNIEnv_@@QEAAEPEAV_jobject@@PEAU_jmethodID@@ZZ 00000001800566ac     java.obj
 0002:000146ac       $unwind$?CallObjectMethod@JNIEnv_@@QEAAPEAV_jobject@@PEAV2@PEAU_jmethodID@@ZZ 00000001800566ac     java.obj
 0002:000146ac       $unwind$?NewObject@JNIEnv_@@QEAAPEAV_jobject@@PEAV_jclass@@PEAU_jmethodID@@ZZ 00000001800566ac     java.obj
 0002:000146ac       $unwind$?CallStaticIntMethod@JNIEnv_@@QEAAJPEAV_jclass@@PEAU_jmethodID@@ZZ 00000001800566ac     javaObject.obj
 0002:000146ac       $unwind$?CallLongMethod@JNIEnv_@@QEAA_JPEAV_jobject@@PEAU_jmethodID@@ZZ 00000001800566ac     utils.obj
 0002:000146b4       $unwind$?FunctionCallbackWrapper@imp@Nan@@YAXAEBV?$FunctionCallbackInfo@VValue@v8@@@v8@@@Z 00000001800566b4     java.obj
 0002:000146c4       $unwind$?GetterCallbackWrapper@imp@Nan@@YAXV?$Local@VName@v8@@@v8@@AEBV?$PropertyCallbackInfo@VValue@v8@@@4@@Z 00000001800566c4     java.obj
 0002:000146c4       $unwind$?GetterCallbackWrapper@imp@Nan@@YAXV?$Local@VName@v8@@@v8@@AEBV?$PropertyCallbackInfo@VValue@v8@@@4@@Z 00000001800566c4     javaObject.obj
 0002:000146d4       $unwind$?SetterCallbackWrapper@imp@Nan@@YAXV?$Local@VName@v8@@@v8@@V?$Local@VValue@v8@@@4@AEBV?$PropertyCallbackInfo@X@4@@Z 00000001800566d4     java.obj
 0002:000146d4       $unwind$?SetterCallbackWrapper@imp@Nan@@YAXV?$Local@VName@v8@@@v8@@V?$Local@VValue@v8@@@4@AEBV?$PropertyCallbackInfo@X@4@@Z 00000001800566d4     javaObject.obj
 0002:000146e8       $unwind$?New@?$Factory@VFunctionTemplate@v8@@@imp@Nan@@SA?AV?$Local@VFunctionTemplate@v8@@@v8@@P6AXAEBV?$FunctionCallbackInfo@VValue@v8@@@3@@ZV?$Local@VValue@v8@@@5@V?$Local@VSignature@v8@@@5@@Z 00000001800566e8     java.obj
 0002:000146fc       $chain$0$?New@?$Factory@VFunctionTemplate@v8@@@imp@Nan@@SA?AV?$Local@VFunctionTemplate@v8@@@v8@@P6AXAEBV?$FunctionCallbackInfo@VValue@v8@@@3@@ZV?$Local@VValue@v8@@@5@V?$Local@VSignature@v8@@@5@@Z 00000001800566fc     java.obj
 0002:00014710       $chain$1$?New@?$Factory@VFunctionTemplate@v8@@@imp@Nan@@SA?AV?$Local@VFunctionTemplate@v8@@@v8@@P6AXAEBV?$FunctionCallbackInfo@VValue@v8@@@3@@ZV?$Local@VValue@v8@@@5@V?$Local@VSignature@v8@@@5@@Z 0000000180056710     java.obj
 0002:00014724       $chain$2$?New@?$Factory@VFunctionTemplate@v8@@@imp@Nan@@SA?AV?$Local@VFunctionTemplate@v8@@@v8@@P6AXAEBV?$FunctionCallbackInfo@VValue@v8@@@3@@ZV?$Local@VValue@v8@@@5@V?$Local@VSignature@v8@@@5@@Z 0000000180056724     java.obj
 0002:00014734       $chain$3$?New@?$Factory@VFunctionTemplate@v8@@@imp@Nan@@SA?AV?$Local@VFunctionTemplate@v8@@@v8@@P6AXAEBV?$FunctionCallbackInfo@VValue@v8@@@3@@ZV?$Local@VValue@v8@@@5@V?$Local@VSignature@v8@@@5@@Z 0000000180056734     java.obj
 0002:00014744       $unwind$?ThrowError@Nan@@YAXPEBD@Z 0000000180056744     java.obj
 0002:00014744       $unwind$?HandleOKCallback@AsyncWorker@Nan@@MEAAXXZ 0000000180056744     methodCallBaton.obj
 0002:0001474c       $unwind$?TypeError@Nan@@YA?AV?$Local@VValue@v8@@@v8@@PEBD@Z 000000018005674c     java.obj
 0002:0001474c       $unwind$?type_case_a@?$output_processor@DV?$string_output_adapter@D@__crt_stdio_output@@V?$format_validation_base@DV?$string_output_adapter@D@__crt_stdio_output@@@2@@__crt_stdio_output@@AEAA_NXZ 000000018005674c     libucrt:output.obj
 0002:0001474c       $unwind$?type_case_a@?$output_processor@DV?$stream_output_adapter@D@__crt_stdio_output@@V?$standard_base@DV?$stream_output_adapter@D@__crt_stdio_output@@@2@@__crt_stdio_output@@AEAA_NXZ 000000018005674c     libucrt:output.obj
 0002:00014758       $unwind$?SetPrototypeMethod@Nan@@YAXV?$Local@VFunctionTemplate@v8@@@v8@@PEBDP6AXAEBV?$FunctionCallbackInfo@VValue@v8@@@1@@Z@Z 0000000180056758     java.obj
 0002:00014758       $unwind$?SetPrototypeTemplate@Nan@@YAXV?$Local@VFunctionTemplate@v8@@@v8@@PEBDV?$Local@VData@v8@@@3@@Z 0000000180056758     javaObject.obj
 0002:00014768       $unwind$?SetAccessor@Nan@@YA_NV?$Local@VObject@v8@@@v8@@V?$Local@VString@v8@@@3@P6AX1AEBV?$PropertyCallbackInfo@VValue@v8@@@1@@ZP6AX1V?$Local@VValue@v8@@@3@AEBV?$PropertyCallbackInfo@X@1@@Z4W4AccessControl@3@W4PropertyAttribute@3@@Z 0000000180056768     java.obj
 0002:00014778       $unwind$??R<lambda_ca71763b3c0644891230e4f79ea54fa6>@@QEBAHXZ 0000000180056778     libucrt:setvbuf.obj
 0002:00014778       $unwind$memcpy_s           0000000180056778     libucrt:strtod.obj
 0002:00014778       $unwind$__acrt_execute_initializers 0000000180056778     libucrt:shared_initialization.obj
 0002:00014778       $unwind$??1MethodCallBaton@@UEAA@XZ 0000000180056778     methodCallBaton.obj
 0002:00014778       $unwind$??_GInstanceMethodCallBaton@@UEAAPEAXI@Z 0000000180056778     methodCallBaton.obj
 0002:00014778       $unwind$??4?$_Yarn@D@std@@QEAAAEAV01@PEBD@Z 0000000180056778     libcpmt:locale0.obj
 0002:00014778       $unwind$??0JavaObject@@IEAA@PEAVJava@@PEAV_jobject@@@Z 0000000180056778     javaObject.obj
 0002:00014778       $unwind$?Wrap@ObjectWrap@Nan@@IEAAXV?$Local@VObject@v8@@@v8@@@Z 0000000180056778     java.obj
 0002:00014778       $unwind$memcpy_s           0000000180056778     libucrt:cfout.obj
 0002:00014778       $unwind$__acrt_stdio_flush_and_write_narrow_nolock 0000000180056778     libucrt:_flsbuf.obj
 0002:00014778       $unwind$__acrt_stdio_flush_and_write_wide_nolock 0000000180056778     libucrt:_flsbuf.obj
 0002:00014778       $unwind$__acrt_locale_initialize_time 0000000180056778     libucrt:inittime.obj
 0002:00014778       $unwind$?free_crt_array_internal@@YAXQEAPEBX_K@Z 0000000180056778     libucrt:inittime.obj
 0002:00014778       $unwind$??_G?$basic_streambuf@DU?$char_traits@D@std@@@std@@UEAAPEAXI@Z 0000000180056778     java.obj
 0002:00014778       $unwind$?type_case_s@?$output_processor@_WV?$stream_output_adapter@_W@__crt_stdio_output@@V?$standard_base@_WV?$stream_output_adapter@_W@__crt_stdio_output@@@2@@__crt_stdio_output@@AEAA_NXZ 0000000180056778     libucrt:output.obj
 0002:00014778       $unwind$??$common_lseek_nolock@_J@@YA_JH_JH@Z 0000000180056778     libucrt:lseek.obj
 0002:00014778       $unwind$__acrt_InitializeCriticalSectionEx 0000000180056778     libucrt:winapi_thunks.obj
 0002:00014778       $unwind$__acrt_getptd_noexit 0000000180056778     libucrt:per_thread_data.obj
 0002:00014778       $unwind$__acrt_getptd      0000000180056778     libucrt:per_thread_data.obj
 0002:00014778       $unwind$_exception_enabled 0000000180056778     libucrt:libm_error.obj
 0002:00014778       $unwind$__acrt_stdio_flush_nolock 0000000180056778     libucrt:fflush.obj
 0002:00014778       $unwind$?type_case_n@?$output_processor@_WV?$stream_output_adapter@_W@__crt_stdio_output@@V?$standard_base@_WV?$stream_output_adapter@_W@__crt_stdio_output@@@2@@__crt_stdio_output@@AEAA_NXZ 0000000180056778     libucrt:output.obj
 0002:00014778       $unwind$?type_case_Z@?$output_processor@_WV?$stream_output_adapter@_W@__crt_stdio_output@@V?$standard_base@_WV?$stream_output_adapter@_W@__crt_stdio_output@@@2@@__crt_stdio_output@@AEAA_NXZ 0000000180056778     libucrt:output.obj
 0002:00014778       $unwind$?type_case_n@?$output_processor@DV?$stream_output_adapter@D@__crt_stdio_output@@V?$standard_base@DV?$stream_output_adapter@D@__crt_stdio_output@@@2@@__crt_stdio_output@@AEAA_NXZ 0000000180056778     libucrt:output.obj
 0002:00014778       $unwind$??0_Init_locks@std@@QEAA@XZ 0000000180056778     libcpmt:xlock.obj
 0002:00014778       $unwind$??0_LocaleUpdate@@QEAA@QEAU__crt_locale_pointers@@@Z 0000000180056778     libucrt:output.obj
 0002:00014778       $unwind$__vcrt_InitializeCriticalSectionEx 0000000180056778     libvcruntime:winapi_downlevel.obj
 0002:00014778       $unwind$__vcrt_getptd_noexit 0000000180056778     libvcruntime:per_thread_data.obj
 0002:00014778       $unwind$?FrameUnwindToEmptyState@__FrameHandler3@@SAXPEA_KPEAU_xDISPATCHER_CONTEXT@@PEBU_s_FuncInfo@@@Z 0000000180056778     libvcruntime:risctrnsctrl.obj
 0002:00014778       $unwind$?CatchTryBlock@__FrameHandler3@@SAPEBU_s_TryBlockMapEntry@@PEBU_s_FuncInfo@@H@Z 0000000180056778     libvcruntime:risctrnsctrl.obj
 0002:00014778       $unwind$_DllMainCRTStartup 0000000180056778     LIBCMT:dll_dllmain.obj
 0002:00014778       $unwind$?type_case_Z@?$output_processor@_WV?$string_output_adapter@_W@__crt_stdio_output@@V?$standard_base@_WV?$string_output_adapter@_W@__crt_stdio_output@@@2@@__crt_stdio_output@@AEAA_NXZ 0000000180056778     libucrt:output.obj
 0002:00014778       $unwind$?type_case_s@?$output_processor@_WV?$string_output_adapter@_W@__crt_stdio_output@@V?$standard_base@_WV?$string_output_adapter@_W@__crt_stdio_output@@@2@@__crt_stdio_output@@AEAA_NXZ 0000000180056778     libucrt:output.obj
 0002:00014778       $unwind$?type_case_n@?$output_processor@_WV?$string_output_adapter@_W@__crt_stdio_output@@V?$standard_base@_WV?$string_output_adapter@_W@__crt_stdio_output@@@2@@__crt_stdio_output@@AEAA_NXZ 0000000180056778     libucrt:output.obj
 0002:00014778       $unwind$?javaObjectToString@@YA?AV?$basic_string@DU?$char_traits@D@std@@V?$allocator@D@2@@std@@PEAUJNIEnv_@@PEAV_jobject@@@Z 0000000180056778     utils.obj
 0002:00014778       $unwind$?longToJavaLongObj@@YAPEAV_jobject@@PEAUJNIEnv_@@_J@Z 0000000180056778     utils.obj
 0002:00014778       $unwind$?type_case_n@?$output_processor@DV?$string_output_adapter@D@__crt_stdio_output@@V?$format_validation_base@DV?$string_output_adapter@D@__crt_stdio_output@@@2@@__crt_stdio_output@@AEAA_NXZ 0000000180056778     libucrt:output.obj
 0002:00014788       $unwind$__acrt_can_show_message_box 0000000180056788     libucrt:winapi_thunks.obj
 0002:00014788       $unwind$??1Java@@EEAA@XZ   0000000180056788     java.obj
 0002:00014788       $unwind$??4?$basic_string@DU?$char_traits@D@std@@V?$allocator@D@2@@std@@QEAAAEAV01@$$QEAV01@@Z 0000000180056788     java.obj
 0002:00014788       $unwind$strncpy_s          0000000180056788     libucrt:strncpy_s.obj
 0002:00014788       $unwind$??_GJava@@EEAAPEAXI@Z 0000000180056788     java.obj
 0002:00014788       $unwind$??_GJavaProxyObject@@EEAAPEAXI@Z 0000000180056788     javaObject.obj
 0002:00014788       $unwind$??_GJavaObject@@MEAAPEAXI@Z 0000000180056788     javaObject.obj
 0002:00014788       $unwind$?_New_Locimp@_Locimp@locale@std@@CAPEAV123@_N@Z 0000000180056788     libcpmt:locale0.obj
 0002:00014788       $unwind$??_Glength_error@std@@UEAAPEAXI@Z 0000000180056788     libcpmt:xthrow.obj
 0002:00014788       $unwind$??_Gios_base@std@@UEAAPEAXI@Z 0000000180056788     java.obj
 0002:00014788       $unwind$?_Locinfo_ctor@_Locinfo@std@@SAXPEAV12@PEBD@Z 0000000180056788     libcpmt:locale0.obj
 0002:00014788       $unwind$_RTC_Terminate     0000000180056788     LIBCMT:initsect.obj
 0002:00014788       $unwind$??1JavaObject@@MEAA@XZ 0000000180056788     javaObject.obj
 0002:00014788       $unwind$??_G?$ctype@D@std@@MEAAPEAXI@Z 0000000180056788     java.obj
 0002:00014788       $unwind$??_Glogic_error@std@@UEAAPEAXI@Z 0000000180056788     libcpmt:xthrow.obj
 0002:00014788       $unwind$_Getcvt            0000000180056788     libcpmt:xwctomb.obj
 0002:00014788       $unwind$??$common_initialize_environment_nolock@D@@YAHXZ 0000000180056788     libucrt:environment_initialization.obj
 0002:00014788       $unwind$GetLocaleNameFromLangCountry 0000000180056788     libucrt:get_qualified_locale.obj
 0002:00014788       $unwind$_RTC_Initialize    0000000180056788     LIBCMT:initsect.obj
 0002:00014788       $unwind$_close_nolock      0000000180056788     libucrt:close.obj
 0002:00014788       $unwind$__acrt_fp_strflt_to_string 0000000180056788     libucrt:_fptostr.obj
 0002:00014788       $unwind$??_Gout_of_range@std@@UEAAPEAXI@Z 0000000180056788     libcpmt:xthrow.obj
 0002:00014788       $unwind$??_Gbad_array_new_length@std@@UEAAPEAXI@Z 0000000180056788     LIBCMT:throw_bad_alloc.obj
 0002:00014788       $unwind$wcsncat_s          0000000180056788     libucrt:wcsncat_s.obj
 0002:00014788       $unwind$?replace_current_thread_locale_nolock@@YAXQEAU__acrt_ptd@@QEAU__crt_locale_data@@@Z 0000000180056788     libucrt:per_thread_data.obj
 0002:00014788       $unwind$__acrt_execute_uninitializers 0000000180056788     libucrt:shared_initialization.obj
 0002:00014788       $unwind$__vcrt_FlsSetValue 0000000180056788     libvcruntime:winapi_downlevel.obj
 0002:00014788       $unwind$??1_Init_locks@std@@QEAA@XZ 0000000180056788     libcpmt:xlock.obj
 0002:00014788       $unwind$__acrt_errno_map_os_error 0000000180056788     libucrt:errno.obj
 0002:00014788       $unwind$GetLocaleNameFromLanguage 0000000180056788     libucrt:get_qualified_locale.obj
 0002:00014788       $unwind$??_G?$basic_ostringstream@DU?$char_traits@D@std@@V?$allocator@D@2@@std@@UEAAPEAXI@Z 0000000180056788     java.obj
 0002:00014788       $unwind$_fclose_nolock     0000000180056788     libucrt:fclose.obj
 0002:00014788       $unwind$?DloadGetSRWLockFunctionPointers@@YAEXZ 0000000180056788     DelayImp:delayhlp.obj
 0002:00014788       $unwind$??_G?$numpunct@D@std@@MEAAPEAXI@Z 0000000180056788     java.obj
 0002:00014788       $unwind$__acrt_stdio_begin_temporary_buffering_nolock 0000000180056788     libucrt:_sftbuf.obj
 0002:00014788       $unwind$_updatetlocinfoEx_nolock 0000000180056788     libucrt:locale_refcounting.obj
 0002:00014788       $unwind$??_G?$basic_stringbuf@DU?$char_traits@D@std@@V?$allocator@D@2@@std@@UEAAPEAXI@Z 0000000180056788     java.obj
 0002:00014788       $unwind$??1_Locinfo@std@@QEAA@XZ 0000000180056788     java.obj
 0002:00014788       $unwind$GetLcidFromLanguage 0000000180056788     libucrt:getqloc_downlevel.obj
 0002:00014788       $unwind$wcsncpy_s          0000000180056788     libucrt:wcsncpy_s.obj
 0002:00014788       $unwind$?force_decimal_point@__crt_stdio_output@@YAXPEADQEAU__crt_locale_pointers@@@Z 0000000180056788     libucrt:output.obj
 0002:00014788       $unwind$?make_error_code@std@@YA?AVerror_code@1@W4io_errc@1@@Z 0000000180056788     java.obj
 0002:00014788       $unwind$__acrt_LocaleNameToLCID 0000000180056788     libucrt:winapi_thunks.obj
 0002:00014788       $unwind$??_G?$basic_ostream@DU?$char_traits@D@std@@@std@@UEAAPEAXI@Z 0000000180056788     java.obj
 0002:00014788       $unwind$GetLcidFromLangCountry 0000000180056788     libucrt:getqloc_downlevel.obj
 0002:00014788       $unwind$??_GAsyncWorker@Nan@@UEAAPEAXI@Z 0000000180056788     methodCallBaton.obj
 0002:00014788       $unwind$??_GObjectWrap@Nan@@UEAAPEAXI@Z 0000000180056788     java.obj
 0002:00014788       $unwind$_initterm_e        0000000180056788     libucrt:initterm.obj
 0002:00014788       $unwind$??_G?$basic_ios@DU?$char_traits@D@std@@@std@@UEAAPEAXI@Z 0000000180056788     java.obj
 0002:00014788       $unwind$__acrt_GetUserDefaultLocaleName 0000000180056788     libucrt:winapi_thunks.obj
 0002:00014788       $unwind$??_Gexception@std@@UEAAPEAXI@Z 0000000180056788     libcpmt:xonce.obj
 0002:00014788       $unwind$__acrt_FlsSetValue 0000000180056788     libucrt:winapi_thunks.obj
 0002:00014788       $unwind$??R?$less@V?$basic_string@DU?$char_traits@D@std@@V?$allocator@D@2@@std@@@std@@QEBA_NAEBV?$basic_string@DU?$char_traits@D@std@@V?$allocator@D@2@@1@0@Z 0000000180056788     javaObject.obj
 0002:00014788       $unwind$??_Gbad_alloc@std@@UEAAPEAXI@Z 0000000180056788     libcpmt:xthrow.obj
 0002:00014788       $unwind$??1DynamicProxyData@@QEAA@XZ 0000000180056788     java.obj
 0002:00014788       $unwind$??_GMethodCallBaton@@UEAAPEAXI@Z 0000000180056788     methodCallBaton.obj
 0002:00014788       $unwind$?Execute@MethodCallBaton@@MEAAXXZ 0000000180056788     methodCallBaton.obj
 0002:00014788       $unwind$??_Gbad_exception@std@@UEAAPEAXI@Z 0000000180056788     libvcruntime:frame.obj
 0002:00014788       $unwind$_FindAndUnlinkFrame 0000000180056788     libvcruntime:risctrnsctrl.obj
 0002:00014788       $unwind$??_GNewInstanceBaton@@UEAAPEAXI@Z 0000000180056788     methodCallBaton.obj
 0002:00014788       $unwind$??_GStaticMethodCallBaton@@UEAAPEAXI@Z 0000000180056788     methodCallBaton.obj
 0002:00014788       $unwind$_realloc_base      0000000180056788     libucrt:realloc_base.obj
 0002:00014788       $unwind$__acrt_stdio_allocate_buffer_nolock 0000000180056788     libucrt:_getbuf.obj
 0002:00014788       $unwind$?SetUnwindTryBlock@__FrameHandler3@@SAXPEA_KPEAU_xDISPATCHER_CONTEXT@@PEBU_s_FuncInfo@@H@Z 0000000180056788     libvcruntime:ehstate.obj
 0002:00014788       $unwind$__acrt_uninitialize_lowio 0000000180056788     libucrt:ioinit.obj
 0002:00014794       $unwind$??0_System_error@std@@IEAA@Verror_code@1@AEBV?$basic_string@DU?$char_traits@D@std@@V?$allocator@D@2@@1@@Z 0000000180056794     java.obj
 0002:00014794       $unwind$?do_put@?$num_put@DV?$ostreambuf_iterator@DU?$char_traits@D@std@@@std@@@std@@MEBA?AV?$ostreambuf_iterator@DU?$char_traits@D@std@@@2@V32@AEAVios_base@2@DPEBX@Z 0000000180056794     java.obj
 0002:000147ac       $unwind$TestDefaultLanguage 00000001800567ac     libucrt:getqloc_downlevel.obj
 0002:000147ac       $unwind$ProcessCodePage    00000001800567ac     libucrt:getqloc_downlevel.obj
 0002:000147ac       $unwind$?do_tolower@?$ctype@D@std@@MEBAPEBDPEADPEBD@Z 00000001800567ac     java.obj
 0002:000147ac       $unwind$?do_toupper@?$ctype@D@std@@MEBAPEBDPEADPEBD@Z 00000001800567ac     java.obj
 0002:000147ac       $unwind$ProcessCodePage    00000001800567ac     libucrt:get_qualified_locale.obj
 0002:000147ac       $unwind$?type_case_c_tchar@?$output_processor@_WV?$string_output_adapter@_W@__crt_stdio_output@@V?$standard_base@_WV?$string_output_adapter@_W@__crt_stdio_output@@@2@@__crt_stdio_output@@AEAA_N_W@Z 00000001800567ac     libucrt:output.obj
 0002:000147ac       $unwind$?type_case_c_tchar@?$output_processor@_WV?$stream_output_adapter@_W@__crt_stdio_output@@V?$standard_base@_WV?$stream_output_adapter@_W@__crt_stdio_output@@@2@@__crt_stdio_output@@AEAA_N_W@Z 00000001800567ac     libucrt:output.obj
 0002:000147bc       $chain$0$?do_tolower@?$ctype@D@std@@MEBAPEBDPEADPEBD@Z 00000001800567bc     java.obj
 0002:000147d0       $chain$1$?do_tolower@?$ctype@D@std@@MEBAPEBDPEADPEBD@Z 00000001800567d0     java.obj
 0002:000147e0       $chain$0$?do_toupper@?$ctype@D@std@@MEBAPEBDPEADPEBD@Z 00000001800567e0     java.obj
 0002:000147f4       $chain$1$?do_toupper@?$ctype@D@std@@MEBAPEBDPEADPEBD@Z 00000001800567f4     java.obj
 0002:00014804       $unwind$??0failure@ios_base@std@@QEAA@PEBDAEBVerror_code@2@@Z 0000000180056804     java.obj
 0002:00014818       $unwind$wctomb_s           0000000180056818     libucrt:wctomb.obj
 0002:00014818       $unwind$?_Doraise@failure@ios_base@std@@MEBAXXZ 0000000180056818     java.obj
 0002:00014818       $unwind$wcstol             0000000180056818     libucrt:strtox.obj
 0002:00014818       $unwind$strtol             0000000180056818     libucrt:strtox.obj
 0002:00014818       $unwind$_invalid_parameter_noinfo 0000000180056818     libucrt:invalid_parameter.obj
 0002:00014818       $unwind$_itow_s            0000000180056818     libucrt:xtoa.obj
 0002:00014818       $unwind$_invalid_parameter_noinfo_noreturn 0000000180056818     libucrt:invalid_parameter.obj
 0002:00014818       $unwind$fflush             0000000180056818     libucrt:fflush.obj
 0002:00014818       $unwind$_log10_special     0000000180056818     libucrt:log_special.obj
 0002:00014818       $unwind$mbstowcs_s         0000000180056818     libucrt:mbstowcs.obj
 0002:00014818       $unwind$_wtol              0000000180056818     libucrt:atox.obj
 0002:00014820       $unwind$__acrt_eagerly_load_locale_apis 0000000180056820     libucrt:winapi_thunks.obj
 0002:00014820       $unwind$__acrt_can_use_vista_locale_apis 0000000180056820     libucrt:winapi_thunks.obj
 0002:00014820       $unwind$?_Xran@?$_String_val@U?$_Simple_types@D@std@@@std@@SAXXZ 0000000180056820     java.obj
 0002:00014820       $unwind$?__c32rtomb_utf8@__crt_mbstring@@YA_KPEAD_UPEAU_Mbstatet@@@Z 0000000180056820     libucrt:c32rtomb.obj
 0002:00014820       $unwind$initialize_c       0000000180056820     libucrt:initialization.obj
 0002:00014820       $unwind$_fileno            0000000180056820     libucrt:fileno.obj
 0002:00014820       $unwind$?load_exe_hook@@YAP6A_JXZIPEAUDelayLoadInfo@@@Z 0000000180056820     win_delay_load_hook.obj
 0002:00014820       $unwind$__acrt_release_locale_ref 0000000180056820     libucrt:locale_refcounting.obj
 0002:00014820       $unwind$uninitialize_environment 0000000180056820     libucrt:initialization.obj
 0002:00014820       $unwind$_msize_base        0000000180056820     libucrt:msize.obj
 0002:00014820       $unwind$?deallocate@?$allocator@D@std@@QEAAXQEAD_K@Z 0000000180056820     java.obj
 0002:00014820       $unwind$?allocate@?$allocator@D@std@@QEAAPEAD_K@Z 0000000180056820     java.obj
 0002:00014820       $unwind$uninitialize_allocated_io_buffers 0000000180056820     libucrt:initialization.obj
 0002:00014820       $unwind$_get_osfhandle     0000000180056820     libucrt:osfinfo.obj
 0002:00014820       $unwind$??1_Lockit@std@@QEAA@XZ 0000000180056820     libcpmt:xlock.obj
 0002:00014820       $unwind$??__Einitlocks@std@@YAXXZ 0000000180056820     libcpmt:iosptrs.obj
 0002:00014820       $unwind$??__F?s_nativeBindingLocation@Java@@0V?$basic_string@DU?$char_traits@D@std@@V?$allocator@D@2@@std@@A@@YAXXZ 0000000180056820     java.obj
 0002:00014820       $unwind$tolower            0000000180056820     libucrt:tolower_toupper.obj
 0002:00014820       $unwind$??__Einitlocks@std@@YAXXZ 0000000180056820     libcpmt:xlock.obj
 0002:00014820       $unwind$?_Atexit@@YAXP6AXXZ@Z 0000000180056820     libcpmt:iosptrs.obj
 0002:00014820       $unwind$__acrt_AreFileApisANSI 0000000180056820     libucrt:winapi_thunks.obj
 0002:00014820       $unwind$__acrt_DownlevelLocaleNameToLCID 0000000180056820     libucrt:lcidtoname_downlevel.obj
 0002:00014820       $unwind$?_Locinfo_dtor@_Locinfo@std@@SAXPEAV12@@Z 0000000180056820     libcpmt:locale0.obj
 0002:00014820       $unwind$_Deletegloballocale 0000000180056820     libcpmt:locale0.obj
 0002:00014820       $unwind$tidy_global        0000000180056820     libcpmt:locale0.obj
 0002:00014820       $unwind$??__Fclassic_locale@std@@YAXXZ 0000000180056820     libcpmt:locale0.obj
 0002:00014820       $unwind$?state_case_size@?$output_processor@_WV?$string_output_adapter@_W@__crt_stdio_output@@V?$standard_base@_WV?$string_output_adapter@_W@__crt_stdio_output@@@2@@__crt_stdio_output@@AEAA_NXZ 0000000180056820     libucrt:output.obj
 0002:00014820       $unwind$__crtInitializeCriticalSectionEx 0000000180056820     libcpmt:winapisupp.obj
 0002:00014820       $unwind$__vcrt_initialize  0000000180056820     libvcruntime:initialization.obj
 0002:00014820       $unwind$__vcrt_uninitialize 0000000180056820     libvcruntime:initialization.obj
 0002:00014820       $unwind$__vcrt_uninitialize_critical 0000000180056820     libvcruntime:initialization.obj
 0002:00014820       $unwind$__vcrt_thread_attach 0000000180056820     libvcruntime:initialization.obj
 0002:00014820       $unwind$__vcrt_thread_detach 0000000180056820     libvcruntime:initialization.obj
 0002:00014820       $unwind$__dcrt_terminate_console_output 0000000180056820     libucrt:initcon.obj
 0002:00014820       $unwind$__vcrt_initialize_ptd 0000000180056820     libvcruntime:per_thread_data.obj
 0002:00014820       $unwind$??__F?sFunctionTemplates@JavaObject@@0V?$map@V?$basic_string@DU?$char_traits@D@std@@V?$allocator@D@2@@std@@PEAV?$Persistent@VFunctionTemplate@v8@@V?$NonCopyablePersistentTraits@VFunctionTemplate@v8@@@2@@Nan@@U?$less@V?$basic_string@DU?$char_traits@D@std@@V?$allocator@D@2@@std@@@2@V?$allocator@U?$pair@$$CBV?$basic_string@DU?$char_traits@D@std@@V?$allocator@D@2@@std@@PEAV?$Persistent@VFunctionTemplate@v8@@V?$NonCopyablePersistentTraits@VFunctionTemplate@v8@@@2@@Nan@@@std@@@2@@std@@A@@YAXXZ 0000000180056820     javaObject.obj
 0002:00014820       $unwind$??__E?sFunctionTemplates@JavaObject@@0V?$map@V?$basic_string@DU?$char_traits@D@std@@V?$allocator@D@2@@std@@PEAV?$Persistent@VFunctionTemplate@v8@@V?$NonCopyablePersistentTraits@VFunctionTemplate@v8@@@2@@Nan@@U?$less@V?$basic_string@DU?$char_traits@D@std@@V?$allocator@D@2@@std@@@2@V?$allocator@U?$pair@$$CBV?$basic_string@DU?$char_traits@D@std@@V?$allocator@D@2@@std@@PEAV?$Persistent@VFunctionTemplate@v8@@V?$NonCopyablePersistentTraits@VFunctionTemplate@v8@@@2@@Nan@@@std@@@2@@std@@A@@YAXXZ 0000000180056820     javaObject.obj
 0002:00014820       $unwind$__vcrt_uninitialize_ptd 0000000180056820     libvcruntime:per_thread_data.obj
 0002:00014820       $unwind$__vcrt_getptd      0000000180056820     libvcruntime:per_thread_data.obj
 0002:00014820       $unwind$__vcrt_freefls     0000000180056820     libvcruntime:per_thread_data.obj
 0002:00014820       $unwind$?GetCurrentState@__FrameHandler3@@SAHPEA_KPEAU_xDISPATCHER_CONTEXT@@PEBU_s_FuncInfo@@@Z 0000000180056820     libvcruntime:ehstate.obj
 0002:00014820       $unwind$_stricmp           0000000180056820     libucrt:stricmp.obj
 0002:00014820       $unwind$_wcsnicmp          0000000180056820     libucrt:wcsnicmp.obj
 0002:00014820       $unwind$__FrameUnwindFilter 0000000180056820     libvcruntime:ehhelpers.obj
 0002:00014820       $unwind$__std_terminate    0000000180056820     libvcruntime:ehhelpers.obj
 0002:00014820       $unwind$_wcsicmp           0000000180056820     libucrt:wcsicmp.obj
 0002:00014820       $unwind$_lock_locales      0000000180056820     libucrt:locks.obj
 0002:00014820       $unwind$_statfp            0000000180056820     libucrt:fpctrl.obj
 0002:00014820       $unwind$_GetThrowImageBase 0000000180056820     libvcruntime:risctrnsctrl.obj
 0002:00014820       $unwind$_GetImageBase      0000000180056820     libvcruntime:risctrnsctrl.obj
 0002:00014820       $unwind$_set_error_mode    0000000180056820     libucrt:set_error_mode.obj
 0002:00014820       $unwind$_purecall          0000000180056820     libvcruntime:purevirt.obj
 0002:00014820       $unwind$_isatty            0000000180056820     libucrt:isatty.obj
 0002:00014820       $unwind$__scrt_initialize_default_local_stdio_options 0000000180056820     LIBCMT:default_local_stdio_options.obj
 0002:00014820       $unwind$__acrt_uninitialize_ptd 0000000180056820     libucrt:per_thread_data.obj
 0002:00014820       $unwind$__acrt_initialize_ptd 0000000180056820     libucrt:per_thread_data.obj
 0002:00014820       $unwind$?_Xlen@?$basic_string@DU?$char_traits@D@std@@V?$allocator@D@2@@std@@CAXXZ 0000000180056820     java.obj
 0002:00014820       $unwind$__acrt_uninitialize 0000000180056820     libucrt:initialization.obj
 0002:00014820       $unwind$??$uninitialize_environment_internal@_W@@YAXAEAPEAPEA_W@Z 0000000180056820     libucrt:environment_initialization.obj
 0002:00014820       $unwind$??__EkObject@@YAXXZ 0000000180056820     utils.obj
 0002:00014820       $unwind$__GSHandlerCheck   0000000180056820     LIBCMT:gshandler.obj
